----------Parsing Warnings----------

Suspicious flags set for section 0. Both IMAGE_SCN_MEM_WRITE and IMAGE_SCN_MEM_EXECUTE are set. This might indicate a packed executable.

Suspicious flags set for section 1. Both IMAGE_SCN_MEM_WRITE and IMAGE_SCN_MEM_EXECUTE are set. This might indicate a packed executable.

Imported symbols contain entries typical of packed executables.

----------DOS_HEADER----------

[IMAGE_DOS_HEADER]
0x0        0x0   e_magic:                       0x5A4D    
0x2        0x2   e_cblp:                        0x90      
0x4        0x4   e_cp:                          0x3       
0x6        0x6   e_crlc:                        0x0       
0x8        0x8   e_cparhdr:                     0x4       
0xA        0xA   e_minalloc:                    0x0       
0xC        0xC   e_maxalloc:                    0xFFFF    
0xE        0xE   e_ss:                          0x0       
0x10       0x10  e_sp:                          0xB8      
0x12       0x12  e_csum:                        0x0       
0x14       0x14  e_ip:                          0x0       
0x16       0x16  e_cs:                          0x0       
0x18       0x18  e_lfarlc:                      0x40      
0x1A       0x1A  e_ovno:                        0x0       
0x1C       0x1C  e_res:                         
0x24       0x24  e_oemid:                       0x0       
0x26       0x26  e_oeminfo:                     0x0       
0x28       0x28  e_res2:                        
0x3C       0x3C  e_lfanew:                      0x80      

----------NT_HEADERS----------

[IMAGE_NT_HEADERS]
0x80       0x0   Signature:                     0x4550    

----------FILE_HEADER----------

[IMAGE_FILE_HEADER]
0x84       0x0   Machine:                       0x14C     
0x86       0x2   NumberOfSections:              0x3       
0x88       0x4   TimeDateStamp:                 0x4E8F4031 [Fri Oct  7 18:08:49 2011 UTC]
0x8C       0x8   PointerToSymbolTable:          0x1D5400  
0x90       0xC   NumberOfSymbols:               0x4FC0    
0x94       0x10  SizeOfOptionalHeader:          0xE0      
0x96       0x12  Characteristics:               0x2106    
Flags: IMAGE_FILE_32BIT_MACHINE, IMAGE_FILE_DLL, IMAGE_FILE_EXECUTABLE_IMAGE, IMAGE_FILE_LINE_NUMS_STRIPPED

----------OPTIONAL_HEADER----------

[IMAGE_OPTIONAL_HEADER]
0x98       0x0   Magic:                         0x10B     
0x9A       0x2   MajorLinkerVersion:            0x2       
0x9B       0x3   MinorLinkerVersion:            0x15      
0x9C       0x4   SizeOfCode:                    0x7D000   
0xA0       0x8   SizeOfInitializedData:         0x27000   
0xA4       0xC   SizeOfUninitializedData:       0x170000  
0xA8       0x10  AddressOfEntryPoint:           0x1ED560  
0xAC       0x14  BaseOfCode:                    0x171000  
0xB0       0x18  BaseOfData:                    0x1EE000  
0xB4       0x1C  ImageBase:                     0x61300000
0xB8       0x20  SectionAlignment:              0x1000    
0xBC       0x24  FileAlignment:                 0x200     
0xC0       0x28  MajorOperatingSystemVersion:   0x4       
0xC2       0x2A  MinorOperatingSystemVersion:   0x0       
0xC4       0x2C  MajorImageVersion:             0x1       
0xC6       0x2E  MinorImageVersion:             0x0       
0xC8       0x30  MajorSubsystemVersion:         0x4       
0xCA       0x32  MinorSubsystemVersion:         0x0       
0xCC       0x34  Reserved1:                     0x0       
0xD0       0x38  SizeOfImage:                   0x215000  
0xD4       0x3C  SizeOfHeaders:                 0x1000    
0xD8       0x40  CheckSum:                      0x0       
0xDC       0x44  Subsystem:                     0x3       
0xDE       0x46  DllCharacteristics:            0x0       
0xE0       0x48  SizeOfStackReserve:            0x200000  
0xE4       0x4C  SizeOfStackCommit:             0x1000    
0xE8       0x50  SizeOfHeapReserve:             0x100000  
0xEC       0x54  SizeOfHeapCommit:              0x1000    
0xF0       0x58  LoaderFlags:                   0x0       
0xF4       0x5C  NumberOfRvaAndSizes:           0x10      
DllCharacteristics: 

----------PE Sections----------

[IMAGE_SECTION_HEADER]
0x178      0x0   Name:                          UPX0
0x180      0x8   Misc:                          0x170000  
0x180      0x8   Misc_PhysicalAddress:          0x170000  
0x180      0x8   Misc_VirtualSize:              0x170000  
0x184      0xC   VirtualAddress:                0x1000    
0x188      0x10  SizeOfRawData:                 0x0       
0x18C      0x14  PointerToRawData:              0x200     
0x190      0x18  PointerToRelocations:          0x0       
0x194      0x1C  PointerToLinenumbers:          0x0       
0x198      0x20  NumberOfRelocations:           0x0       
0x19A      0x22  NumberOfLinenumbers:           0x0       
0x19C      0x24  Characteristics:               0xE0000080
Flags: IMAGE_SCN_CNT_UNINITIALIZED_DATA, IMAGE_SCN_MEM_EXECUTE, IMAGE_SCN_MEM_READ, IMAGE_SCN_MEM_WRITE
Entropy: 0.000000 (Min=0.0, Max=8.0)
MD5     hash: d41d8cd98f00b204e9800998ecf8427e
SHA-1   hash: da39a3ee5e6b4b0d3255bfef95601890afd80709
SHA-256 hash: e3b0c44298fc1c149afbf4c8996fb92427ae41e4649b934ca495991b7852b855
SHA-512 hash: cf83e1357eefb8bdf1542850d66d8007d620e4050b5715dc83f4a921d36ce9ce47d0d13c5d85f2b0ff8318d2877eec2f63b931bd47417a81a538327af927da3e

[IMAGE_SECTION_HEADER]
0x1A0      0x0   Name:                          UPX1
0x1A8      0x8   Misc:                          0x7D000   
0x1A8      0x8   Misc_PhysicalAddress:          0x7D000   
0x1A8      0x8   Misc_VirtualSize:              0x7D000   
0x1AC      0xC   VirtualAddress:                0x171000  
0x1B0      0x10  SizeOfRawData:                 0x7C800   
0x1B4      0x14  PointerToRawData:              0x200     
0x1B8      0x18  PointerToRelocations:          0x0       
0x1BC      0x1C  PointerToLinenumbers:          0x0       
0x1C0      0x20  NumberOfRelocations:           0x0       
0x1C2      0x22  NumberOfLinenumbers:           0x0       
0x1C4      0x24  Characteristics:               0xE0000040
Flags: IMAGE_SCN_CNT_INITIALIZED_DATA, IMAGE_SCN_MEM_EXECUTE, IMAGE_SCN_MEM_READ, IMAGE_SCN_MEM_WRITE
Entropy: 7.927454 (Min=0.0, Max=8.0)
MD5     hash: a53e448f91b4171e535321ad0872816e
SHA-1   hash: 51e6488cc0126606c32a5fa209c4a91a59917570
SHA-256 hash: 7f632b5ec9da675a3ac652dc1d12d8a969015ebe940f2b89f570118d91a7116f
SHA-512 hash: d89ea4b9f421d7f18db818a2cf1472f04b7f3cb647dc16fe0edda4b050e5d8cb67ce0732c80933bd61fe36f460e7484a5ceec0787d28fc0a856439a3a5ade36f

[IMAGE_SECTION_HEADER]
0x1C8      0x0   Name:                          UPX2
0x1D0      0x8   Misc:                          0x27000   
0x1D0      0x8   Misc_PhysicalAddress:          0x27000   
0x1D0      0x8   Misc_VirtualSize:              0x27000   
0x1D4      0xC   VirtualAddress:                0x1EE000  
0x1D8      0x10  SizeOfRawData:                 0x26A00   
0x1DC      0x14  PointerToRawData:              0x7CA00   
0x1E0      0x18  PointerToRelocations:          0x0       
0x1E4      0x1C  PointerToLinenumbers:          0x0       
0x1E8      0x20  NumberOfRelocations:           0x0       
0x1EA      0x22  NumberOfLinenumbers:           0x0       
0x1EC      0x24  Characteristics:               0xC0000040
Flags: IMAGE_SCN_CNT_INITIALIZED_DATA, IMAGE_SCN_MEM_READ, IMAGE_SCN_MEM_WRITE
Entropy: 6.136488 (Min=0.0, Max=8.0)
MD5     hash: 6ad7bf98568210bc78a1c39be89c0765
SHA-1   hash: dd2307c3150df8ea1f8c6830fb21703f728795a3
SHA-256 hash: 90bf04bc714bd75639b0b8774c526e1a5dd55e0d095e5da974d6cf26117e0b0c
SHA-512 hash: 87fc3170d3da2899acdeb54deba28a282ea0f03889b14b87294b6a83d7fe4760d529938b3d66dc92d68c7d2fc01f9ba0ffce3c064846f62b0b889356cd77acdb

----------Directories----------

[IMAGE_DIRECTORY_ENTRY_EXPORT]
0xF8       0x0   VirtualAddress:                0x1EE1A4  
0xFC       0x4   Size:                          0x2671C   
[IMAGE_DIRECTORY_ENTRY_IMPORT]
0x100      0x0   VirtualAddress:                0x1EE000  
0x104      0x4   Size:                          0x1A4     
[IMAGE_DIRECTORY_ENTRY_RESOURCE]
0x108      0x0   VirtualAddress:                0x0       
0x10C      0x4   Size:                          0x0       
[IMAGE_DIRECTORY_ENTRY_EXCEPTION]
0x110      0x0   VirtualAddress:                0x0       
0x114      0x4   Size:                          0x0       
[IMAGE_DIRECTORY_ENTRY_SECURITY]
0x118      0x0   VirtualAddress:                0x0       
0x11C      0x4   Size:                          0x0       
[IMAGE_DIRECTORY_ENTRY_BASERELOC]
0x120      0x0   VirtualAddress:                0x2148C0  
0x124      0x4   Size:                          0x18      
[IMAGE_DIRECTORY_ENTRY_DEBUG]
0x128      0x0   VirtualAddress:                0x0       
0x12C      0x4   Size:                          0x0       
[IMAGE_DIRECTORY_ENTRY_COPYRIGHT]
0x130      0x0   VirtualAddress:                0x0       
0x134      0x4   Size:                          0x0       
[IMAGE_DIRECTORY_ENTRY_GLOBALPTR]
0x138      0x0   VirtualAddress:                0x0       
0x13C      0x4   Size:                          0x0       
[IMAGE_DIRECTORY_ENTRY_TLS]
0x140      0x0   VirtualAddress:                0x1ED788  
0x144      0x4   Size:                          0x18      
[IMAGE_DIRECTORY_ENTRY_LOAD_CONFIG]
0x148      0x0   VirtualAddress:                0x0       
0x14C      0x4   Size:                          0x0       
[IMAGE_DIRECTORY_ENTRY_BOUND_IMPORT]
0x150      0x0   VirtualAddress:                0x0       
0x154      0x4   Size:                          0x0       
[IMAGE_DIRECTORY_ENTRY_IAT]
0x158      0x0   VirtualAddress:                0x0       
0x15C      0x4   Size:                          0x0       
[IMAGE_DIRECTORY_ENTRY_DELAY_IMPORT]
0x160      0x0   VirtualAddress:                0x0       
0x164      0x4   Size:                          0x0       
[IMAGE_DIRECTORY_ENTRY_COM_DESCRIPTOR]
0x168      0x0   VirtualAddress:                0x0       
0x16C      0x4   Size:                          0x0       
[IMAGE_DIRECTORY_ENTRY_RESERVED]
0x170      0x0   VirtualAddress:                0x0       
0x174      0x4   Size:                          0x0       

----------Exported symbols----------

[IMAGE_EXPORT_DIRECTORY]
0x7CBA4    0x0   Characteristics:               0x0       
0x7CBA8    0x4   TimeDateStamp:                 0x4E8F4031 [Fri Oct  7 18:08:49 2011 UTC]
0x7CBAC    0x8   MajorVersion:                  0x0       
0x7CBAE    0xA   MinorVersion:                  0x0       
0x7CBB0    0xC   Name:                          0x1F5DC8  
0x7CBB4    0x10  Base:                          0x1       
0x7CBB8    0x14  NumberOfFunctions:             0xC66     
0x7CBBC    0x18  NumberOfNames:                 0xC66     
0x7CBC0    0x1C  AddressOfFunctions:            0x1EE1CC  
0x7CBC4    0x20  AddressOfNames:                0x1F1364  
0x7CBC8    0x24  AddressOfNameOrdinals:         0x1F44FC  

Ordinal      RVA         Name
1          0x0011A6E0    DjVuFormatErrorNative
2          0x0011A5C0    DjVuFormatErrorUTF8
3          0x00032570    DjVuPrintErrorNative
4          0x000323F0    DjVuPrintErrorUTF8
5          0x00032860    DjVuPrintMessageNative
6          0x000326E0    DjVuPrintMessageUTF8
7          0x001153D0    DjVuWriteError
8          0x00115590    DjVuWriteMessage
9          0x00132530    _Z14miniexp_objectP9miniobj_t
10         0x0014CB80    _Z19ddjvu_get_DjVuImagePN4DJVU12ddjvu_page_sE
11         0x0014CBB0    _Z22ddjvu_get_DjVuDocumentPN4DJVU16ddjvu_document_sE
12         0x00152900    _ZN4DJVU10ArrayBaseTINS_11GUTF8StringEED0Ev
13         0x00152930    _ZN4DJVU10ArrayBaseTINS_11GUTF8StringEED1Ev
14         0x00152950    _ZN4DJVU10ArrayBaseTIcED0Ev
15         0x00152980    _ZN4DJVU10ArrayBaseTIcED1Ev
16         0x00031F70    _ZN4DJVU10ByteStream10get_stderrEPKc
17         0x00031EA0    _ZN4DJVU10ByteStream10get_stdoutEPKc
18         0x00032250    _ZN4DJVU10ByteStream11getAsNativeEv
19         0x0002EF50    _ZN4DJVU10ByteStream11writestringERKNS_11GUTF8StringE
20         0x0002F0B0    _ZN4DJVU10ByteStream11writestringERKNS_13GNativeStringE
21         0x00032040    _ZN4DJVU10ByteStream12writemessageEPKc
22         0x00031D70    _ZN4DJVU10ByteStream13create_staticEPKvj
23         0x00032130    _ZN4DJVU10ByteStream13formatmessageEPKcz
24         0x0002F5C0    _ZN4DJVU10ByteStream4copyERS0_j
25         0x0002D730    _ZN4DJVU10ByteStream4readEPvj
26         0x0002D240    _ZN4DJVU10ByteStream4seekElib
27         0x0002FFA0    _ZN4DJVU10ByteStream5Stdio4initEPKc
28         0x000307A0    _ZN4DJVU10ByteStream5Stdio4initERKNS_4GURLEPKc
29         0x0002DEC0    _ZN4DJVU10ByteStream5Stdio4readEPvj
30         0x0002DAC0    _ZN4DJVU10ByteStream5Stdio4seekElib
31         0x0002DC30    _ZN4DJVU10ByteStream5Stdio5flushEv
32         0x0002DD10    _ZN4DJVU10ByteStream5Stdio5writeEPKvj
33         0x0002FF60    _ZN4DJVU10ByteStream5StdioC1Ev
34         0x0002FF60    _ZN4DJVU10ByteStream5StdioC2Ev
35         0x0002E3C0    _ZN4DJVU10ByteStream5StdioD0Ev
36         0x0002E090    _ZN4DJVU10ByteStream5StdioD1Ev
37         0x0002E090    _ZN4DJVU10ByteStream5StdioD2Ev
38         0x0002CEE0    _ZN4DJVU10ByteStream5flushEv
39         0x0002FB80    _ZN4DJVU10ByteStream5read8Ev
40         0x0002EC90    _ZN4DJVU10ByteStream5scanfEPKcz
41         0x0002D680    _ZN4DJVU10ByteStream5writeEPKvj
42         0x00030F40    _ZN4DJVU10ByteStream6Memory4initEPKvj
43         0x0002CEF0    _ZN4DJVU10ByteStream6Memory4readEPvj
44         0x0002D0C0    _ZN4DJVU10ByteStream6Memory4seekElib
45         0x00031070    _ZN4DJVU10ByteStream6Memory5emptyEv
46         0x0002D8C0    _ZN4DJVU10ByteStream6Memory5writeEPKvj
47         0x0002D830    _ZN4DJVU10ByteStream6Memory6readatEPvji
48         0x00030E80    _ZN4DJVU10ByteStream6MemoryC1Ev
49         0x00030E80    _ZN4DJVU10ByteStream6MemoryC2Ev
50         0x0002E570    _ZN4DJVU10ByteStream6MemoryD0Ev
51         0x0002E470    _ZN4DJVU10ByteStream6MemoryD1Ev
52         0x0002E470    _ZN4DJVU10ByteStream6MemoryD2Ev
53         0x0002D7E0    _ZN4DJVU10ByteStream6Static4readEPvj
54         0x0002CF40    _ZN4DJVU10ByteStream6Static4seekElib
55         0x000310E0    _ZN4DJVU10ByteStream6StaticC1EPKvj
56         0x000310E0    _ZN4DJVU10ByteStream6StaticC2EPKvj
57         0x0002E180    _ZN4DJVU10ByteStream6StaticD0Ev
58         0x0002E160    _ZN4DJVU10ByteStream6StaticD1Ev
59         0x0002E160    _ZN4DJVU10ByteStream6StaticD2Ev
60         0x00031BA0    _ZN4DJVU10ByteStream6createEP6_iobufPKcb
61         0x00031580    _ZN4DJVU10ByteStream6createEPKc
62         0x00031220    _ZN4DJVU10ByteStream6createEPKvj
63         0x00031390    _ZN4DJVU10ByteStream6createERKNS_4GURLEPKc
64         0x00031740    _ZN4DJVU10ByteStream6createEiPKcb
65         0x00031120    _ZN4DJVU10ByteStream6createEv
66         0x0002F360    _ZN4DJVU10ByteStream6formatEPKcz
67         0x0002FC70    _ZN4DJVU10ByteStream6read16Ev
68         0x0002FD60    _ZN4DJVU10ByteStream6read24Ev
69         0x0002FE60    _ZN4DJVU10ByteStream6read32Ev
70         0x001529A0    _ZN4DJVU10ByteStream6readatEPvji
71         0x0002F780    _ZN4DJVU10ByteStream6write8Ej
72         0x00152A20    _ZN4DJVU10ByteStream7Wrapper4readEPvj
73         0x00152A50    _ZN4DJVU10ByteStream7Wrapper4seekElib
74         0x00152A80    _ZN4DJVU10ByteStream7Wrapper5flushEv
75         0x00152AA0    _ZN4DJVU10ByteStream7Wrapper5writeEPKvj
76         0x00152AD0    _ZN4DJVU10ByteStream7WrapperC1ERKNS_2GPIS0_EE
77         0x00152B80    _ZN4DJVU10ByteStream7WrapperC1Ev
78         0x00152BB0    _ZN4DJVU10ByteStream7WrapperC2ERKNS_2GPIS0_EE
79         0x00152C60    _ZN4DJVU10ByteStream7WrapperC2Ev
80         0x0002E770    _ZN4DJVU10ByteStream7WrapperD0Ev
81         0x0002E6D0    _ZN4DJVU10ByteStream7WrapperD1Ev
82         0x0002E6D0    _ZN4DJVU10ByteStream7WrapperD2Ev
83         0x00152C90    _ZN4DJVU10ByteStream7WrapperadEv
84         0x0002ED40    _ZN4DJVU10ByteStream7readallEPvj
85         0x0002EE50    _ZN4DJVU10ByteStream7writallEPKvj
86         0x0002F870    _ZN4DJVU10ByteStream7write16Ej
87         0x0002F970    _ZN4DJVU10ByteStream7write24Ej
88         0x0002FA70    _ZN4DJVU10ByteStream7write32Ej
89         0x00016230    _ZN4DJVU10ByteStream8get_dataEv
90         0x00171440    _ZN4DJVU10ByteStream9EndOfFileE
91         0x00032320    _ZN4DJVU10ByteStream9getAsUTF8Ev
92         0x00031DD0    _ZN4DJVU10ByteStream9get_stdinEPKc
93         0x00152CA0    _ZN4DJVU10ByteStreamC1Ev
94         0x00152CD0    _ZN4DJVU10ByteStreamC2Ev
95         0x0002E140    _ZN4DJVU10ByteStreamD0Ev
96         0x0002E070    _ZN4DJVU10ByteStreamD1Ev
97         0x0002E070    _ZN4DJVU10ByteStreamD2Ev
98         0x000EB4B0    _ZN4DJVU10DjVuNavDir11delete_pageEi
99         0x000EAC70    _ZN4DJVU10DjVuNavDir11insert_pageEiPKc
100        0x000E9050    _ZN4DJVU10DjVuNavDir6decodeERNS_10ByteStreamE
101        0x000EA040    _ZN4DJVU10DjVuNavDir6encodeERNS_10ByteStreamE
102        0x000E8CB0    _ZN4DJVU10DjVuNavDirC1ERKNS_4GURLE
103        0x000E9C20    _ZN4DJVU10DjVuNavDirC1ERNS_10ByteStreamERKNS_4GURLE
104        0x000E8CB0    _ZN4DJVU10DjVuNavDirC2ERKNS_4GURLE
105        0x000E9C20    _ZN4DJVU10DjVuNavDirC2ERNS_10ByteStreamERKNS_4GURLE
106        0x00152D00    _ZN4DJVU10DjVuNavDirD0Ev
107        0x00152EA0    _ZN4DJVU10DjVuNavDirD1Ev
108        0x00003910    _ZN4DJVU10GArrayBase3delEii
109        0x00003B40    _ZN4DJVU10GArrayBase3insEiPKvi
110        0x000036C0    _ZN4DJVU10GArrayBase5emptyEv
111        0x000038F0    _ZN4DJVU10GArrayBase5shiftEi
112        0x000036F0    _ZN4DJVU10GArrayBase5stealERS0_
113        0x00003670    _ZN4DJVU10GArrayBase5touchEi
114        0x00002FC0    _ZN4DJVU10GArrayBase6resizeEii
115        0x00002F90    _ZN4DJVU10GArrayBaseC1ERKNS_5GCont6TraitsE
116        0x000038A0    _ZN4DJVU10GArrayBaseC1ERKNS_5GCont6TraitsEii
117        0x00002EC0    _ZN4DJVU10GArrayBaseC1ERKS0_
118        0x00002F90    _ZN4DJVU10GArrayBaseC2ERKNS_5GCont6TraitsE
119        0x000038A0    _ZN4DJVU10GArrayBaseC2ERKNS_5GCont6TraitsEii
120        0x00002EC0    _ZN4DJVU10GArrayBaseC2ERKS0_
121        0x00003760    _ZN4DJVU10GArrayBaseD1Ev
122        0x00003760    _ZN4DJVU10GArrayBaseD2Ev
123        0x000037E0    _ZN4DJVU10GArrayBaseaSERKS0_
124        0x00172158    _ZN4DJVU10GException11outofmemoryE
125        0x00002D30    _ZN4DJVU10GException9cmp_causeEPKcS2_
126        0x00002AA0    _ZN4DJVU10GExceptionC1EPKcS2_iS2_NS0_11source_typeE
127        0x00002A10    _ZN4DJVU10GExceptionC1ERKS0_
128        0x000029D0    _ZN4DJVU10GExceptionC1Ev
129        0x00002AA0    _ZN4DJVU10GExceptionC2EPKcS2_iS2_NS0_11source_typeE
130        0x00002A10    _ZN4DJVU10GExceptionC2ERKS0_
131        0x000029D0    _ZN4DJVU10GExceptionC2Ev
132        0x00002480    _ZN4DJVU10GExceptionD0Ev
133        0x00002430    _ZN4DJVU10GExceptionD1Ev
134        0x00002430    _ZN4DJVU10GExceptionD2Ev
135        0x00002B20    _ZN4DJVU10GExceptionaSERKS0_
136        0x00013810    _ZN4DJVU10GSafeFlags15test_and_modifyEllll
137        0x00013A10    _ZN4DJVU10GSafeFlags15wait_and_modifyEllll
138        0x000135E0    _ZN4DJVU10GSafeFlagsaSEl
139        0x00007EB0    _ZN4DJVU10GStringRep10UCS4toUTF8EjPh
140        0x00007C00    _ZN4DJVU10GStringRep10UTF8toUCS4ERPKhPKv
141        0x00153030    _ZN4DJVU10GStringRep10UTF8toUCS4ERjPKhPKv
142        0x0000B820    _ZN4DJVU10GStringRep11UCS4toUTF16EjRtS1_
143        0x0000BD00    _ZN4DJVU10GStringRep11UTF16toUCS4ERjPKtPKv
144        0x0000F320    _ZN4DJVU10GStringRep12ChangeLocaleC1EiPKc
145        0x0000F320    _ZN4DJVU10GStringRep12ChangeLocaleC2EiPKc
146        0x00005840    _ZN4DJVU10GStringRep12ChangeLocaleD1Ev
147        0x00005840    _ZN4DJVU10GStringRep12ChangeLocaleD2Ev
148        0x00009810    _ZN4DJVU10GStringRep12NativeToUTF8EPKc
149        0x0000B950    _ZN4DJVU10GStringRep12UCS4toNativeEjPhPi
150        0x0000D240    _ZN4DJVU10GStringRep12UTF8ToNativeEPKcNS0_10EscapeModeE
151        0x00004C00    _ZN4DJVU10GStringRep13set_remainderEPKvjNS0_10EncodeTypeE
152        0x00004C10    _ZN4DJVU10GStringRep13set_remainderEPKvjRKNS_2GPIS0_EE
153        0x00004C20    _ZN4DJVU10GStringRep13set_remainderERKNS_2GPINS0_7UnicodeEEE
154        0x0000B590    _ZN4DJVU10GStringRep3cmpEPKcRKNS_2GPIS0_EEi
155        0x0000A9F0    _ZN4DJVU10GStringRep3cmpEPKcS2_i
156        0x0000AF00    _ZN4DJVU10GStringRep3cmpERKNS_2GPIS0_EEPKci
157        0x0000AEA0    _ZN4DJVU10GStringRep3cmpERKNS_2GPIS0_EES4_i
158        0x0000FB80    _ZN4DJVU10GStringRep4UTF813create_formatEPKcz
159        0x0000A190    _ZN4DJVU10GStringRep4UTF86createEPKc
160        0x0000A650    _ZN4DJVU10GStringRep4UTF86createEPKcRKNS_2GPIS0_EE
161        0x0000FAA0    _ZN4DJVU10GStringRep4UTF86createEPKcRPc
162        0x0000A7B0    _ZN4DJVU10GStringRep4UTF86createEPKcS3_
163        0x00009ED0    _ZN4DJVU10GStringRep4UTF86createEPKcii
164        0x0000A590    _ZN4DJVU10GStringRep4UTF86createEPKjii
165        0x0000C1B0    _ZN4DJVU10GStringRep4UTF86createEPKtii
166        0x0000A700    _ZN4DJVU10GStringRep4UTF86createERKNS_2GPIS0_EEPKc
167        0x0000A400    _ZN4DJVU10GStringRep4UTF86createERKNS_2GPIS0_EES5_
168        0x0000A330    _ZN4DJVU10GStringRep4UTF86createEj
169        0x00009EB0    _ZN4DJVU10GStringRep4UTF8C1Ev
170        0x00009EB0    _ZN4DJVU10GStringRep4UTF8C2Ev
171        0x00004DE0    _ZN4DJVU10GStringRep4UTF8D0Ev
172        0x00004DC0    _ZN4DJVU10GStringRep4UTF8D1Ev
173        0x00004DC0    _ZN4DJVU10GStringRep4UTF8D2Ev
174        0x00010740    _ZN4DJVU10GStringRep6Native13create_formatEPKcz
175        0x00008A20    _ZN4DJVU10GStringRep6Native6createEPKc
176        0x00008CA0    _ZN4DJVU10GStringRep6Native6createEPKcRKNS_2GPIS0_EE
177        0x0000F940    _ZN4DJVU10GStringRep6Native6createEPKcRPc
178        0x00008E20    _ZN4DJVU10GStringRep6Native6createEPKcS3_
179        0x00008940    _ZN4DJVU10GStringRep6Native6createEPKcii
180        0x00008BC0    _ZN4DJVU10GStringRep6Native6createEPKjii
181        0x0000C0D0    _ZN4DJVU10GStringRep6Native6createEPKtii
182        0x00008D60    _ZN4DJVU10GStringRep6Native6createERKNS_2GPIS0_EEPKc
183        0x00008AF0    _ZN4DJVU10GStringRep6Native6createERKNS_2GPIS0_EES5_
184        0x00009DD0    _ZN4DJVU10GStringRep6Native6createEj
185        0x00008920    _ZN4DJVU10GStringRep6NativeC1Ev
186        0x00008920    _ZN4DJVU10GStringRep6NativeC2Ev
187        0x00004E40    _ZN4DJVU10GStringRep6NativeD0Ev
188        0x00004E20    _ZN4DJVU10GStringRep6NativeD1Ev
189        0x00004E20    _ZN4DJVU10GStringRep6NativeD2Ev
190        0x0011A8C0    _ZN4DJVU10GStringRep7Unicode13set_remainderEPKvjNS0_10EncodeTypeE
191        0x0011A970    _ZN4DJVU10GStringRep7Unicode13set_remainderEPKvjRKNS_2GPIS0_EE
192        0x0011AC00    _ZN4DJVU10GStringRep7Unicode13set_remainderERKNS_2GPIS1_EE
193        0x0011B3D0    _ZN4DJVU10GStringRep7Unicode6createEPKvjNS0_10EncodeTypeE
194        0x0011C950    _ZN4DJVU10GStringRep7Unicode6createEPKvjNS0_10EncodeTypeERKNS_2GPIS0_EE
195        0x0011C030    _ZN4DJVU10GStringRep7Unicode6createEPKvjNS_2GPIS0_EE
196        0x0011CA40    _ZN4DJVU10GStringRep7Unicode6createEPKvjRKNS_2GPIS1_EE
197        0x0011B160    _ZN4DJVU10GStringRep7Unicode6createEj
198        0x0011B2F0    _ZN4DJVU10GStringRep7UnicodeC1Ev
199        0x0011B2F0    _ZN4DJVU10GStringRep7UnicodeC2Ev
200        0x0011AB20    _ZN4DJVU10GStringRep7UnicodeD0Ev
201        0x0011AA40    _ZN4DJVU10GStringRep7UnicodeD1Ev
202        0x0011AA40    _ZN4DJVU10GStringRep7UnicodeD2Ev
203        0x00004ED0    _ZN4DJVU10GStringRep9giswlowerEm
204        0x00004F10    _ZN4DJVU10GStringRep9giswspaceEm
205        0x00004EF0    _ZN4DJVU10GStringRep9giswupperEm
206        0x00004E90    _ZN4DJVU10GStringRep9gtowlowerEm
207        0x00004EB0    _ZN4DJVU10GStringRep9gtowupperEm
208        0x000088F0    _ZN4DJVU10GStringRepC1Ev
209        0x000088F0    _ZN4DJVU10GStringRepC2Ev
210        0x00004E00    _ZN4DJVU10GStringRepD0Ev
211        0x00004D80    _ZN4DJVU10GStringRepD1Ev
212        0x00004D80    _ZN4DJVU10GStringRepD2Ev
213        0x0005CF40    _ZN4DJVU10MMRDecoder13decode_headerERNS_10ByteStreamERiS3_S3_
214        0x0005BC90    _ZN4DJVU10MMRDecoder4initENS_2GPINS_10ByteStreamEEEb
215        0x0005C110    _ZN4DJVU10MMRDecoder6createENS_2GPINS_10ByteStreamEEEiib
216        0x0005D0E0    _ZN4DJVU10MMRDecoder6decodeENS_2GPINS_10ByteStreamEEE
217        0x0005AD90    _ZN4DJVU10MMRDecoder7VLTable4initEi
218        0x0005B1C0    _ZN4DJVU10MMRDecoder7VLTable6createEPKNS_6VLCodeEi
219        0x0005ACD0    _ZN4DJVU10MMRDecoder7VLTableC1EPKNS_6VLCodeE
220        0x0005ACD0    _ZN4DJVU10MMRDecoder7VLTableC2EPKNS_6VLCodeE
221        0x00153060    _ZN4DJVU10MMRDecoder7VLTableD0Ev
222        0x00153110    _ZN4DJVU10MMRDecoder7VLTableD1Ev
223        0x0005CEB0    _ZN4DJVU10MMRDecoder7scanrleEbPPKh
224        0x00059D60    _ZN4DJVU10MMRDecoder8VLSource10nextstripeEv
225        0x00059E70    _ZN4DJVU10MMRDecoder8VLSource4initEb
226        0x00059E40    _ZN4DJVU10MMRDecoder8VLSource5shiftEi
227        0x00059EB0    _ZN4DJVU10MMRDecoder8VLSource6createERNS_2GPINS_10ByteStreamEEEb
228        0x00059CC0    _ZN4DJVU10MMRDecoder8VLSource7preloadEv
229        0x00059BF0    _ZN4DJVU10MMRDecoder8VLSourceC1ERNS_2GPINS_10ByteStreamEEE
230        0x00059BF0    _ZN4DJVU10MMRDecoder8VLSourceC2ERNS_2GPINS_10ByteStreamEEE
231        0x001531B0    _ZN4DJVU10MMRDecoder8VLSourceD0Ev
232        0x00153260    _ZN4DJVU10MMRDecoder8VLSourceD1Ev
233        0x0005C270    _ZN4DJVU10MMRDecoder8scanrunsEPPKt
234        0x0005B860    _ZN4DJVU10MMRDecoderC1Eii
235        0x0005B860    _ZN4DJVU10MMRDecoderC2Eii
236        0x000596D0    _ZN4DJVU10MMRDecoderD0Ev
237        0x000594D0    _ZN4DJVU10MMRDecoderD1Ev
238        0x000594D0    _ZN4DJVU10MMRDecoderD2Ev
239        0x00015360    _ZN4DJVU10MMXControl10enable_mmxEv
240        0x00015340    _ZN4DJVU10MMXControl11disable_mmxEv
241        0x00171004    _ZN4DJVU10MMXControl7mmxflagE
242        0x00153300    _ZN4DJVU10_ArrayBaseD0Ev
243        0x00153350    _ZN4DJVU10_ArrayBaseD1Ev
244        0x0012CE80    _ZN4DJVU10lt_XMLTags11ParseValuesEPKcRNS_4GMapINS_11GUTF8StringES4_EEb
245        0x0012F050    _ZN4DJVU10lt_XMLTags4initERKNS_2GPINS_10ByteStreamEEE
246        0x0012F160    _ZN4DJVU10lt_XMLTags4initERKNS_4GURLE
247        0x0012D5F0    _ZN4DJVU10lt_XMLTags4initERNS_13XMLByteStreamE
248        0x00153390    _ZN4DJVU10lt_XMLTags6addrawENS_11GUTF8StringE
249        0x00153420    _ZN4DJVU10lt_XMLTags6addtagENS_2GPIS0_EE
250        0x00153690    _ZN4DJVU10lt_XMLTags6createEPKc
251        0x00153740    _ZN4DJVU10lt_XMLTags6createERKNS_2GPINS_10ByteStreamEEE
252        0x00153840    _ZN4DJVU10lt_XMLTags6createERKNS_4GURLE
253        0x00153940    _ZN4DJVU10lt_XMLTags6createERNS_13XMLByteStreamE
254        0x00153A40    _ZN4DJVU10lt_XMLTags6createEv
255        0x0012FBD0    _ZN4DJVU10lt_XMLTags8get_MapsEPKcS2_NS_6GPListIS0_EERNS_4GMapINS_11GUTF8StringENS_2GPIS0_EEEE
256        0x00153AF0    _ZN4DJVU10lt_XMLTags8set_LineEi
257        0x0012D3A0    _ZN4DJVU10lt_XMLTagsC1EPKc
258        0x0012D1E0    _ZN4DJVU10lt_XMLTagsC1Ev
259        0x0012D3A0    _ZN4DJVU10lt_XMLTagsC2EPKc
260        0x0012D1E0    _ZN4DJVU10lt_XMLTagsC2Ev
261        0x0012B2F0    _ZN4DJVU10lt_XMLTagsD0Ev
262        0x0012B160    _ZN4DJVU10lt_XMLTagsD1Ev
263        0x0012B160    _ZN4DJVU10lt_XMLTagsD2Ev
264        0x00153B00    _ZN4DJVU11DjVuMessage10LookUpUTF8ERKNS_11GUTF8StringE
265        0x0011A2B0    _ZN4DJVU11DjVuMessage11create_fullEv
266        0x00119DC0    _ZN4DJVU11DjVuMessage11programnameEv
267        0x00153B30    _ZN4DJVU11DjVuMessage12LookUpNativeERKNS_11GUTF8StringE
268        0x00119DB0    _ZN4DJVU11DjVuMessage12use_languageEv
269        0x001175A0    _ZN4DJVU11DjVuMessage15GetProfilePathsEv
270        0x00119E20    _ZN4DJVU11DjVuMessage15set_programnameERKNS_11GUTF8StringE
271        0x00153B60    _ZN4DJVU11DjVuMessage18AddByteStreamLaterERKNS_2GPINS_10ByteStreamEEE
272        0x00119ED0    _ZN4DJVU11DjVuMessage4initEv
273        0x00153B80    _ZN4DJVU11DjVuMessage6perrorERKNS_11GUTF8StringE
274        0x00119EB0    _ZN4DJVU11DjVuMessageC1Ev
275        0x00119EB0    _ZN4DJVU11DjVuMessageC2Ev
276        0x00115790    _ZN4DJVU11DjVuMessageD0Ev
277        0x00115770    _ZN4DJVU11DjVuMessageD1Ev
278        0x00115770    _ZN4DJVU11DjVuMessageD2Ev
279        0x0002A250    _ZN4DJVU11DjVuPalette13allocate_histEv
280        0x0002A670    _ZN4DJVU11DjVuPalette13allocate_pmapEv
281        0x0002BBF0    _ZN4DJVU11DjVuPalette13color_correctEd
282        0x00153BA0    _ZN4DJVU11DjVuPalette13histogram_addEPKhi
283        0x00153CC0    _ZN4DJVU11DjVuPalette13histogram_addERKNS_6GPixelEi
284        0x00153CF0    _ZN4DJVU11DjVuPalette14color_to_indexEPKh
285        0x00153DB0    _ZN4DJVU11DjVuPalette14color_to_indexERKNS_6GPixelE
286        0x0002AA50    _ZN4DJVU11DjVuPalette15compute_paletteEii
287        0x00153DD0    _ZN4DJVU11DjVuPalette15histogram_clearEv
288        0x0002C250    _ZN4DJVU11DjVuPalette18decode_rgb_entriesERNS_10ByteStreamEi
289        0x0002A740    _ZN4DJVU11DjVuPalette19color_to_index_slowEPKh
290        0x0002BA70    _ZN4DJVU11DjVuPalette22compute_pixmap_paletteERKNS_7GPixmapEii
291        0x00153E10    _ZN4DJVU11DjVuPalette22histogram_norm_and_addEPKii
292        0x0002BBA0    _ZN4DJVU11DjVuPalette28compute_palette_and_quantizeERNS_7GPixmapEii
293        0x00029D10    _ZN4DJVU11DjVuPalette5bcompEPKvS2_
294        0x00029D30    _ZN4DJVU11DjVuPalette5gcompEPKvS2_
295        0x00029D70    _ZN4DJVU11DjVuPalette5lcompEPKvS2_
296        0x00029D50    _ZN4DJVU11DjVuPalette5rcompEPKvS2_
297        0x00153F80    _ZN4DJVU11DjVuPalette6createEv
298        0x0002C640    _ZN4DJVU11DjVuPalette6decodeENS_2GPINS_10ByteStreamEEE
299        0x0002BB10    _ZN4DJVU11DjVuPalette8quantizeERNS_7GPixmapE
300        0x0002A110    _ZN4DJVU11DjVuPaletteC1ERKS0_
301        0x00029F80    _ZN4DJVU11DjVuPaletteC1Ev
302        0x0002A110    _ZN4DJVU11DjVuPaletteC2ERKS0_
303        0x00029F80    _ZN4DJVU11DjVuPaletteC2Ev
304        0x00029F20    _ZN4DJVU11DjVuPaletteD0Ev
305        0x00029DC0    _ZN4DJVU11DjVuPaletteD1Ev
306        0x00029DC0    _ZN4DJVU11DjVuPaletteD2Ev
307        0x0002A080    _ZN4DJVU11DjVuPaletteaSERKS0_
308        0x00007930    _ZN4DJVU11GBaseString23throw_illegal_subscriptEv
309        0x00154030    _ZN4DJVU11GBaseString3cmpEPKcS2_i
310        0x00154060    _ZN4DJVU11GBaseString4initERKNS_2GPINS_10GStringRepEEE
311        0x00154090    _ZN4DJVU11GBaseString4initEv
312        0x00006C90    _ZN4DJVU11GBaseString5emptyEv
313        0x001540B0    _ZN4DJVU11GBaseString6toLongERKNS_11GUTF8StringEiRii
314        0x001540E0    _ZN4DJVU11GBaseString6toLongERKNS_13GNativeStringEiRii
315        0x00171000    _ZN4DJVU11GBaseString7nullstrE
316        0x00154110    _ZN4DJVU11GBaseString7toULongERKNS_11GUTF8StringEiRii
317        0x00154140    _ZN4DJVU11GBaseString7toULongERKNS_13GNativeStringEiRii
318        0x00154170    _ZN4DJVU11GBaseString8toDoubleERKNS_11GUTF8StringEiRi
319        0x001541A0    _ZN4DJVU11GBaseString8toDoubleERKNS_13GNativeStringEiRi
320        0x001541D0    _ZN4DJVU11GBaseStringC1Ev
321        0x001541F0    _ZN4DJVU11GBaseStringC2Ev
322        0x00005490    _ZN4DJVU11GBaseStringD1Ev
323        0x00005490    _ZN4DJVU11GBaseStringD2Ev
324        0x0009B780    _ZN4DJVU11GIFFManager10load_chunkERNS_13IFFByteStreamENS_2GPINS_9GIFFChunkEEE
325        0x00097FA0    _ZN4DJVU11GIFFManager17get_chunks_numberERKNS_11GUTF8StringE
326        0x00097F90    _ZN4DJVU11GIFFManager17get_chunks_numberEv
327        0x00098550    _ZN4DJVU11GIFFManager6createERKNS_11GUTF8StringE
328        0x0009BED0    _ZN4DJVU11GIFFManager6createEv
329        0x0009A200    _ZN4DJVU11GIFFManager9add_chunkENS_11GUTF8StringERKNS_2GPINS_9GIFFChunkEEEi
330        0x0009AFF0    _ZN4DJVU11GIFFManager9add_chunkENS_11GUTF8StringERKNS_6TArrayIcEE
331        0x000987E0    _ZN4DJVU11GIFFManager9del_chunkENS_11GUTF8StringE
332        0x00097790    _ZN4DJVU11GIFFManager9del_chunkEv
333        0x00097840    _ZN4DJVU11GIFFManager9get_chunkENS_11GUTF8StringEPi
334        0x00099B30    _ZN4DJVU11GIFFManager9load_fileENS_2GPINS_10ByteStreamEEE
335        0x00099E30    _ZN4DJVU11GIFFManager9load_fileERKNS_6TArrayIcEE
336        0x00098490    _ZN4DJVU11GIFFManager9save_fileENS_2GPINS_10ByteStreamEEE
337        0x00098290    _ZN4DJVU11GIFFManager9save_fileERNS_6TArrayIcEE
338        0x00094890    _ZN4DJVU11GIFFManagerD0Ev
339        0x000947F0    _ZN4DJVU11GIFFManagerD1Ev
340        0x000947F0    _ZN4DJVU11GIFFManagerD2Ev
341        0x00014B40    _ZN4DJVU11GRectMapper10get_outputEv
342        0x00014240    _ZN4DJVU11GRectMapper10set_outputERKNS_5GRectE
343        0x00014A50    _ZN4DJVU11GRectMapper3mapERNS_5GRectE
344        0x00014730    _ZN4DJVU11GRectMapper3mapERiS1_
345        0x000140C0    _ZN4DJVU11GRectMapper5clearEv
346        0x00014AB0    _ZN4DJVU11GRectMapper5unmapERNS_5GRectE
347        0x000148C0    _ZN4DJVU11GRectMapper5unmapERiS1_
348        0x00014340    _ZN4DJVU11GRectMapper6rotateEi
349        0x000143E0    _ZN4DJVU11GRectMapper7mirrorxEv
350        0x000143F0    _ZN4DJVU11GRectMapper7mirroryEv
351        0x00014400    _ZN4DJVU11GRectMapper7precalcEv
352        0x00014B10    _ZN4DJVU11GRectMapper9get_inputEv
353        0x00014120    _ZN4DJVU11GRectMapper9set_inputERKNS_5GRectE
354        0x00014080    _ZN4DJVU11GRectMapperC1Ev
355        0x00014080    _ZN4DJVU11GRectMapperC2Ev
356        0x00154210    _ZN4DJVU11GUTF8String4initERKNS_2GPINS_10GStringRepEEE
357        0x001542F0    _ZN4DJVU11GUTF8String4initEv
358        0x0000D0C0    _ZN4DJVU11GUTF8String5setatEic
359        0x00154310    _ZN4DJVU11GUTF8String6createEPKcj
360        0x001543D0    _ZN4DJVU11GUTF8String6createEPKjj
361        0x00154400    _ZN4DJVU11GUTF8String6createEPKtj
362        0x0011D150    _ZN4DJVU11GUTF8String6createEPKvjNS_10GStringRep10EncodeTypeE
363        0x0011D470    _ZN4DJVU11GUTF8String6createEPKvjNS_10GStringRep10EncodeTypeERKS0_
364        0x0011D240    _ZN4DJVU11GUTF8String6createEPKvjRKNS_2GPINS_10GStringRep7UnicodeEEE
365        0x0011D330    _ZN4DJVU11GUTF8String6createEPKvjRKS0_
366        0x00010270    _ZN4DJVU11GUTF8String6formatEPKcz
367        0x0000CEE0    _ZN4DJVU11GUTF8String6getbufEi
368        0x00154430    _ZN4DJVU11GUTF8String7vformatERKS0_RPc
369        0x0000D410    _ZN4DJVU11GUTF8StringC1EPKc
370        0x0000D790    _ZN4DJVU11GUTF8StringC1EPKcj
371        0x0000D4F0    _ZN4DJVU11GUTF8StringC1EPKh
372        0x0000D6B0    _ZN4DJVU11GUTF8StringC1EPKj
373        0x0000D970    _ZN4DJVU11GUTF8StringC1EPKjj
374        0x0000D5D0    _ZN4DJVU11GUTF8StringC1EPKt
375        0x0000D890    _ZN4DJVU11GUTF8StringC1EPKtj
376        0x00154510    _ZN4DJVU11GUTF8StringC1ERKNS_11GBaseStringE
377        0x0000DA50    _ZN4DJVU11GUTF8StringC1ERKNS_11GBaseStringEii
378        0x00154630    _ZN4DJVU11GUTF8StringC1ERKNS_13GNativeStringE
379        0x00154750    _ZN4DJVU11GUTF8StringC1ERKNS_2GPINS_10GStringRepEEE
380        0x00154850    _ZN4DJVU11GUTF8StringC1ERKS0_
381        0x0000F830    _ZN4DJVU11GUTF8StringC1ERKS0_RPc
382        0x0000D310    _ZN4DJVU11GUTF8StringC1Ec
383        0x0000FBC0    _ZN4DJVU11GUTF8StringC1Ed
384        0x0000FCB0    _ZN4DJVU11GUTF8StringC1Ei
385        0x001548E0    _ZN4DJVU11GUTF8StringC1Ev
386        0x0000D410    _ZN4DJVU11GUTF8StringC2EPKc
387        0x0000D790    _ZN4DJVU11GUTF8StringC2EPKcj
388        0x0000D4F0    _ZN4DJVU11GUTF8StringC2EPKh
389        0x0000D6B0    _ZN4DJVU11GUTF8StringC2EPKj
390        0x0000D970    _ZN4DJVU11GUTF8StringC2EPKjj
391        0x0000D5D0    _ZN4DJVU11GUTF8StringC2EPKt
392        0x0000D890    _ZN4DJVU11GUTF8StringC2EPKtj
393        0x00154900    _ZN4DJVU11GUTF8StringC2ERKNS_11GBaseStringE
394        0x0000DA50    _ZN4DJVU11GUTF8StringC2ERKNS_11GBaseStringEii
395        0x00154A20    _ZN4DJVU11GUTF8StringC2ERKNS_13GNativeStringE
396        0x00154B40    _ZN4DJVU11GUTF8StringC2ERKNS_2GPINS_10GStringRepEEE
397        0x00154C40    _ZN4DJVU11GUTF8StringC2ERKS0_
398        0x0000F830    _ZN4DJVU11GUTF8StringC2ERKS0_RPc
399        0x0000D310    _ZN4DJVU11GUTF8StringC2Ec
400        0x0000FBC0    _ZN4DJVU11GUTF8StringC2Ed
401        0x0000FCB0    _ZN4DJVU11GUTF8StringC2Ei
402        0x00154CD0    _ZN4DJVU11GUTF8StringC2Ev
403        0x00005820    _ZN4DJVU11GUTF8StringD1Ev
404        0x00005820    _ZN4DJVU11GUTF8StringD2Ev
405        0x0000F140    _ZN4DJVU11GUTF8StringaSEPKc
406        0x00154CF0    _ZN4DJVU11GUTF8StringaSERKNS_11GBaseStringE
407        0x00154D10    _ZN4DJVU11GUTF8StringaSERKNS_13GNativeStringE
408        0x00154D30    _ZN4DJVU11GUTF8StringaSERKNS_2GPINS_10GStringRepEEE
409        0x00154D50    _ZN4DJVU11GUTF8StringaSERKS0_
410        0x0000F070    _ZN4DJVU11GUTF8StringaSEc
411        0x0000CB20    _ZN4DJVU11GUTF8StringpLEPKc
412        0x0000CBE0    _ZN4DJVU11GUTF8StringpLERKNS_11GBaseStringE
413        0x0000C9F0    _ZN4DJVU11GUTF8StringpLEc
414        0x0005E300    _ZN4DJVU11JPEGDecoder4Impl20jpeg_byte_stream_srcEP22jpeg_decompress_structRNS_10ByteStreamE
415        0x0005E1E0    _ZN4DJVU11JPEGDecoder6decodeERNS_10ByteStreamE
416        0x0005DCF0    _ZN4DJVU11JPEGDecoder6decodeERNS_10ByteStreamERNS_7GPixmapE
417        0x00137B90    _ZN4DJVU11ddjvu_job_s12notify_errorEPKNS_8DjVuPortERKNS_11GUTF8StringE
418        0x001380C0    _ZN4DJVU11ddjvu_job_s13notify_statusEPKNS_8DjVuPortERKNS_11GUTF8StringE
419        0x00154D70    _ZN4DJVU11ddjvu_job_s4stopEv
420        0x00154D80    _ZN4DJVU11ddjvu_job_s6statusEv
421        0x00154D90    _ZN4DJVU11ddjvu_job_s7releaseEv
422        0x00134600    _ZN4DJVU11ddjvu_job_s8inheritsERKNS_11GUTF8StringE
423        0x0013B5D0    _ZN4DJVU11ddjvu_job_sC1Ev
424        0x0013B5D0    _ZN4DJVU11ddjvu_job_sC2Ev
425        0x00154DA0    _ZN4DJVU11ddjvu_job_sD0Ev
426        0x00154ED0    _ZN4DJVU11ddjvu_job_sD1Ev
427        0x00154FF0    _ZN4DJVU11ddjvu_job_sD2Ev
428        0x00036140    _ZN4DJVU12BSByteStream6Decode4initEv
429        0x00037190    _ZN4DJVU12BSByteStream6Decode4readEPvj
430        0x00035AF0    _ZN4DJVU12BSByteStream6Decode5flushEv
431        0x000364B0    _ZN4DJVU12BSByteStream6Decode6decodeEv
432        0x00036080    _ZN4DJVU12BSByteStream6DecodeC1ENS_2GPINS_10ByteStreamEEE
433        0x00036080    _ZN4DJVU12BSByteStream6DecodeC2ENS_2GPINS_10ByteStreamEEE
434        0x00035CD0    _ZN4DJVU12BSByteStream6DecodeD0Ev
435        0x00035CB0    _ZN4DJVU12BSByteStream6DecodeD1Ev
436        0x00035CB0    _ZN4DJVU12BSByteStream6DecodeD2Ev
437        0x0003BCB0    _ZN4DJVU12BSByteStream6Encode4initEi
438        0x0003B8E0    _ZN4DJVU12BSByteStream6Encode5flushEv
439        0x00037260    _ZN4DJVU12BSByteStream6Encode5writeEPKvj
440        0x0003A4C0    _ZN4DJVU12BSByteStream6Encode6encodeEv
441        0x0003BBF0    _ZN4DJVU12BSByteStream6EncodeC1ENS_2GPINS_10ByteStreamEEE
442        0x0003BBF0    _ZN4DJVU12BSByteStream6EncodeC2ENS_2GPINS_10ByteStreamEEE
443        0x0003BB10    _ZN4DJVU12BSByteStream6EncodeD0Ev
444        0x0003BA40    _ZN4DJVU12BSByteStream6EncodeD1Ev
445        0x0003BA40    _ZN4DJVU12BSByteStream6EncodeD2Ev
446        0x00036260    _ZN4DJVU12BSByteStream6createENS_2GPINS_10ByteStreamEEE
447        0x0003BEF0    _ZN4DJVU12BSByteStream6createENS_2GPINS_10ByteStreamEEEi
448        0x00035EF0    _ZN4DJVU12BSByteStreamC1ENS_2GPINS_10ByteStreamEEE
449        0x00035EF0    _ZN4DJVU12BSByteStreamC2ENS_2GPINS_10ByteStreamEEE
450        0x00035D00    _ZN4DJVU12BSByteStreamD0Ev
451        0x00035B90    _ZN4DJVU12BSByteStreamD1Ev
452        0x00035B90    _ZN4DJVU12BSByteStreamD2Ev
453        0x000D06F0    _ZN4DJVU12DjVuDocument10id_to_fileEPKNS_8DjVuPortERKNS_11GUTF8StringE
454        0x000CB5E0    _ZN4DJVU12DjVuDocument10start_initERKNS_4GURLENS_2GPINS_8DjVuPortEEEPNS_13DjVuFileCacheE
455        0x00155110    _ZN4DJVU12DjVuDocument11UnnamedFileD0Ev
456        0x00155280    _ZN4DJVU12DjVuDocument11UnnamedFileD1Ev
457        0x000CFAB0    _ZN4DJVU12DjVuDocument11create_waitERKNS_4GURLENS_2GPINS_8DjVuPortEEEPNS_13DjVuFileCacheE
458        0x000D1710    _ZN4DJVU12DjVuDocument11get_id_listEv
459        0x000CCB10    _ZN4DJVU12DjVuDocument11init_threadEv
460        0x0017EDEC    _ZN4DJVU12DjVuDocument11thumb_gammaE
461        0x000D1AF0    _ZN4DJVU12DjVuDocument12add_to_cacheERKNS_2GPINS_8DjVuFileEEE
462        0x000D3800    _ZN4DJVU12DjVuDocument12get_djvm_docEv
463        0x000C5BF0    _ZN4DJVU12DjVuDocument12request_dataEPKNS_8DjVuPortERKNS_4GURLE
464        0x000D1500    _ZN4DJVU12DjVuDocument13add_thumb_reqERKNS_2GPINS0_8ThumbReqEEE
465        0x001553E0    _ZN4DJVU12DjVuDocument13create_noinitEv
466        0x000D07A0    _ZN4DJVU12DjVuDocument13get_djvu_fileERKNS_11GUTF8StringEb
467        0x000D1020    _ZN4DJVU12DjVuDocument13get_djvu_fileERKNS_4GURLEb
468        0x00155490    _ZN4DJVU12DjVuDocument13get_djvu_fileEib
469        0x000D2D90    _ZN4DJVU12DjVuDocument13get_thumbnailEib
470        0x000CE360    _ZN4DJVU12DjVuDocument13get_url_namesEv
471        0x000D1BD0    _ZN4DJVU12DjVuDocument14process_threqsEv
472        0x001554D0    _ZN4DJVU12DjVuDocument15set_verbose_eofEb
473        0x000C7E80    _ZN4DJVU12DjVuDocument16set_file_aliasesEPKNS_8DjVuFileE
474        0x000C53D0    _ZN4DJVU12DjVuDocument16set_import_codecEPFvRNS_2GPINS_8DataPoolEEERKNS_4GURLERbS8_E
475        0x00191034    _ZN4DJVU12DjVuDocument17djvu_import_codecE
476        0x000C53E0    _ZN4DJVU12DjVuDocument18set_compress_codecEPFvRNS_2GPINS_10ByteStreamEEERKNS_4GURLEbE
477        0x001554F0    _ZN4DJVU12DjVuDocument18set_recover_errorsENS_8DjVuPort19ErrorRecoveryActionE
478        0x000CDF90    _ZN4DJVU12DjVuDocument18static_init_threadEPv
479        0x000CA450    _ZN4DJVU12DjVuDocument19check_unnamed_filesEv
480        0x00191030    _ZN4DJVU12DjVuDocument19djvu_compress_codecE
481        0x00155510    _ZN4DJVU12DjVuDocument21set_needs_compressionEv
482        0x000C7250    _ZN4DJVU12DjVuDocument22wait_for_complete_initEv
483        0x000D36D0    _ZN4DJVU12DjVuDocument25notify_file_flags_changedEPKNS_8DjVuFileEll
484        0x00155520    _ZN4DJVU12DjVuDocument4initERKNS_4GURLENS_2GPINS_8DjVuPortEEEPNS_13DjVuFileCacheE
485        0x000D4960    _ZN4DJVU12DjVuDocument5writeERKNS_2GPINS_10ByteStreamEEERKNS_4GMapINS_11GUTF8StringEPvEE
486        0x000D46A0    _ZN4DJVU12DjVuDocument5writeERKNS_2GPINS_10ByteStreamEEEb
487        0x000CFBE0    _ZN4DJVU12DjVuDocument6createENS_2GPINS_8DataPoolEEENS1_INS_8DjVuPortEEEPNS_13DjVuFileCacheE
488        0x000CF850    _ZN4DJVU12DjVuDocument6createERKNS_2GPINS_10ByteStreamEEENS1_INS_8DjVuPortEEEPNS_13DjVuFileCacheE
489        0x001555F0    _ZN4DJVU12DjVuDocument6createERKNS_4GURLENS_2GPINS_8DjVuPortEEEPNS_13DjVuFileCacheE
490        0x000D4E90    _ZN4DJVU12DjVuDocument6expandERKNS_4GURLERKNS_11GUTF8StringE
491        0x000D5430    _ZN4DJVU12DjVuDocument7map_idsERNS_4GMapINS_11GUTF8StringEPvEE
492        0x000D4AE0    _ZN4DJVU12DjVuDocument7save_asERKNS_4GURLEb
493        0x00155750    _ZN4DJVU12DjVuDocument8ThumbReqD0Ev
494        0x00155880    _ZN4DJVU12DjVuDocument8ThumbReqD1Ev
495        0x000D1340    _ZN4DJVU12DjVuDocument8get_pageERKNS_11GUTF8StringEbPNS_8DjVuPortE
496        0x001559A0    _ZN4DJVU12DjVuDocument8get_pageEibPNS_8DjVuPortE
497        0x000CA420    _ZN4DJVU12DjVuDocument9id_to_urlEPKNS_8DjVuPortERKNS_11GUTF8StringE
498        0x000C58F0    _ZN4DJVU12DjVuDocument9stop_initEv
499        0x000C53F0    _ZN4DJVU12DjVuDocumentC1Ev
500        0x000C53F0    _ZN4DJVU12DjVuDocumentC2Ev
501        0x000C7E60    _ZN4DJVU12DjVuDocumentD0Ev
502        0x000C73B0    _ZN4DJVU12DjVuDocumentD1Ev
503        0x000C73B0    _ZN4DJVU12DjVuDocumentD2Ev
504        0x001559E0    _ZN4DJVU12GMonitorLockD1Ev
505        0x00015300    _ZN4DJVU12GPBufferBase3setEjc
506        0x000151F0    _ZN4DJVU12GPBufferBase4swapERS0_
507        0x00015230    _ZN4DJVU12GPBufferBase6resizeEjj
508        0x00015160    _ZN4DJVU12GPBufferBase7replaceEPvj
509        0x00015190    _ZN4DJVU12GPBufferBaseC1ERPvjj
510        0x00015190    _ZN4DJVU12GPBufferBaseC2ERPvjj
511        0x000151D0    _ZN4DJVU12GPBufferBaseD1Ev
512        0x000151D0    _ZN4DJVU12GPBufferBaseD2Ev
513        0x00137DD0    _ZN4DJVU12ddjvu_page_s12notify_errorEPKNS_8DjVuPortERKNS_11GUTF8StringE
514        0x00138300    _ZN4DJVU12ddjvu_page_s13notify_statusEPKNS_8DjVuPortERKNS_11GUTF8StringE
515        0x00135580    _ZN4DJVU12ddjvu_page_s15notify_relayoutEPKNS_9DjVuImageE
516        0x00135750    _ZN4DJVU12ddjvu_page_s16notify_redisplayEPKNS_9DjVuImageE
517        0x00135DF0    _ZN4DJVU12ddjvu_page_s17notify_chunk_doneEPKNS_8DjVuPortERKNS_11GUTF8StringE
518        0x00137660    _ZN4DJVU12ddjvu_page_s25notify_file_flags_changedEPKNS_8DjVuFileEll
519        0x001375A0    _ZN4DJVU12ddjvu_page_s6statusEv
520        0x00133D00    _ZN4DJVU12ddjvu_page_s7releaseEv
521        0x00134720    _ZN4DJVU12ddjvu_page_s8inheritsERKNS_11GUTF8StringE
522        0x00155A00    _ZN4DJVU12ddjvu_page_sD0Ev
523        0x00155B80    _ZN4DJVU12ddjvu_page_sD1Ev
524        0x00126F80    _ZN4DJVU12lt_XMLParser14setOCRcallbackEPvPFNS_2GPINS_10ByteStreamEEES1_RKNS_11GUTF8StringERKNS2_INS_9DjVuImageEEEE
525        0x001227A0    _ZN4DJVU12lt_XMLParser4Impl10ChangeAnnoEiiRNS_8DjVuFileERKNS_10lt_XMLTagsE
526        0x001224D0    _ZN4DJVU12lt_XMLParser4Impl10ChangeInfoERNS_8DjVuFileEid
527        0x001263F0    _ZN4DJVU12lt_XMLParser4Impl10ChangeMetaERNS_8DjVuFileERKNS_10lt_XMLTagsE
528        0x00126630    _ZN4DJVU12lt_XMLParser4Impl10ChangeTextEiiRNS_8DjVuFileERKNS_10lt_XMLTagsE
529        0x00125FF0    _ZN4DJVU12lt_XMLParser4Impl10parse_annoEiiRKNS_10lt_XMLTagsERNS_4GMapINS_11GUTF8StringENS_2GPIS2_EEEERNS_8DjVuFileE
530        0x00126E00    _ZN4DJVU12lt_XMLParser4Impl10parse_metaERKNS_10lt_XMLTagsERNS_8DjVuFileE
531        0x00126C70    _ZN4DJVU12lt_XMLParser4Impl10parse_textEiiRKNS_10lt_XMLTagsERNS_8DjVuFileE
532        0x001269B0    _ZN4DJVU12lt_XMLParser4Impl13ChangeTextOCRERKNS_11GUTF8StringEiiRKNS_2GPINS_8DjVuFileEEE
533        0x00121F30    _ZN4DJVU12lt_XMLParser4Impl4saveEv
534        0x0011FEE0    _ZN4DJVU12lt_XMLParser4Impl5emptyEv
535        0x00127CE0    _ZN4DJVU12lt_XMLParser4Impl5parseERKNS_10lt_XMLTagsE
536        0x00120BE0    _ZN4DJVU12lt_XMLParser4Impl5parseERKNS_2GPINS_10ByteStreamEEE
537        0x00127150    _ZN4DJVU12lt_XMLParser4Impl8get_fileERKNS_4GURLENS_11GUTF8StringE
538        0x00122270    _ZN4DJVU12lt_XMLParser4ImplC1Ev
539        0x00122270    _ZN4DJVU12lt_XMLParser4ImplC2Ev
540        0x00120A30    _ZN4DJVU12lt_XMLParser4ImplD0Ev
541        0x001208D0    _ZN4DJVU12lt_XMLParser4ImplD1Ev
542        0x001208D0    _ZN4DJVU12lt_XMLParser4ImplD2Ev
543        0x00122420    _ZN4DJVU12lt_XMLParser6createEv
544        0x00122250    _ZN4DJVU12lt_XMLParserC1Ev
545        0x00122250    _ZN4DJVU12lt_XMLParserC2Ev
546        0x0011FD30    _ZN4DJVU12lt_XMLParserD0Ev
547        0x0011FD10    _ZN4DJVU12lt_XMLParserD1Ev
548        0x0011FD10    _ZN4DJVU12lt_XMLParserD2Ev
549        0x000F9DE0    _ZN4DJVU13DjVuDocEditor10move_pagesERKNS_5GListIiEEi
550        0x001013F0    _ZN4DJVU13DjVuDocEditor11create_waitERKNS_4GURLE
551        0x00101300    _ZN4DJVU13DjVuDocEditor11create_waitEv
552        0x000F2D00    _ZN4DJVU13DjVuDocEditor11insert_fileERKNS_2GPINS_8DataPoolEEERKNS_4GURLEbRiRNS_4GMapINS_11GUTF8StringESB_EEPNS_8DjVuPortE
553        0x000F20F0    _ZN4DJVU13DjVuDocEditor11insert_fileERKNS_4GURLERKNS_11GUTF8StringEiPNS_8DjVuPortE
554        0x000F51D0    _ZN4DJVU13DjVuDocEditor11insert_fileERKNS_4GURLEbRiRNS_4GMapINS_11GUTF8StringES6_EEPNS_8DjVuPortE
555        0x000F6720    _ZN4DJVU13DjVuDocEditor11insert_pageERKNS_4GURLEi
556        0x000F68B0    _ZN4DJVU13DjVuDocEditor11insert_pageERNS_2GPINS_8DataPoolEEERKNS_4GURLEi
557        0x000F8810    _ZN4DJVU13DjVuDocEditor11remove_fileERKNS_11GUTF8StringEb
558        0x000F7AB0    _ZN4DJVU13DjVuDocEditor11remove_fileERKNS_11GUTF8StringEbRNS_4GMapIS1_PvEE
559        0x000F8C30    _ZN4DJVU13DjVuDocEditor11remove_pageEib
560        0x000F5A10    _ZN4DJVU13DjVuDocEditor12insert_groupERKNS_5GListINS_4GURLEEEiPFvPvES6_
561        0x000F8E70    _ZN4DJVU13DjVuDocEditor12remove_pagesERKNS_5GListIiEEb
562        0x000EEF10    _ZN4DJVU13DjVuDocEditor12request_dataEPKNS_8DjVuPortERKNS_4GURLE
563        0x000FBC60    _ZN4DJVU13DjVuDocEditor12set_djvm_navENS_2GPINS_7DjVmNavEEE
564        0x000FC690    _ZN4DJVU13DjVuDocEditor13get_thumbnailEib
565        0x00100200    _ZN4DJVU13DjVuDocEditor13save_pages_asERKNS_2GPINS_10ByteStreamEEERKNS_5GListIiEE
566        0x000FA2E0    _ZN4DJVU13DjVuDocEditor13set_file_nameERKNS_11GUTF8StringES3_
567        0x000FA640    _ZN4DJVU13DjVuDocEditor13set_page_nameEiRKNS_11GUTF8StringE
568        0x000FAA50    _ZN4DJVU13DjVuDocEditor13simplify_annoEPFvfPvES1_
569        0x000F16C0    _ZN4DJVU13DjVuDocEditor14find_unique_idENS_11GUTF8StringE
570        0x000FA830    _ZN4DJVU13DjVuDocEditor14set_file_titleERKNS_11GUTF8StringES3_
571        0x000FA860    _ZN4DJVU13DjVuDocEditor14set_page_titleEiRKNS_11GUTF8StringE
572        0x000F0720    _ZN4DJVU13DjVuDocEditor15clean_files_mapEv
573        0x000FDA70    _ZN4DJVU13DjVuDocEditor15file_thumbnailsEv
574        0x000F6D50    _ZN4DJVU13DjVuDocEditor16generate_ref_mapERKNS_2GPINS_8DjVuFileEEERNS_4GMapINS_11GUTF8StringEPvEERNS6_INS_4GURLES8_EE
575        0x000FC5D0    _ZN4DJVU13DjVuDocEditor17remove_thumbnailsEv
576        0x000F1D60    _ZN4DJVU13DjVuDocEditor17strip_incl_chunksERKNS_2GPINS_8DataPoolEEE
577        0x000FC3C0    _ZN4DJVU13DjVuDocEditor17unfile_thumbnailsEv
578        0x00100190    _ZN4DJVU13DjVuDocEditor19generate_thumbnailsEiPFbiPvES1_
579        0x000FD1B0    _ZN4DJVU13DjVuDocEditor19generate_thumbnailsEii
580        0x00171A64    _ZN4DJVU13DjVuDocEditor19thumbnails_per_fileE
581        0x000FBD50    _ZN4DJVU13DjVuDocEditor20get_shared_anno_fileEv
582        0x000FB430    _ZN4DJVU13DjVuDocEditor23create_shared_anno_fileEPFvfPvES1_
583        0x00155CE0    _ZN4DJVU13DjVuDocEditor4FileD0Ev
584        0x00155DC0    _ZN4DJVU13DjVuDocEditor4FileD1Ev
585        0x000FC890    _ZN4DJVU13DjVuDocEditor4initERKNS_4GURLE
586        0x000F0320    _ZN4DJVU13DjVuDocEditor4initEv
587        0x00101550    _ZN4DJVU13DjVuDocEditor4saveEv
588        0x000F0020    _ZN4DJVU13DjVuDocEditor5checkEv
589        0x000FE780    _ZN4DJVU13DjVuDocEditor5writeERKNS_2GPINS_10ByteStreamEEERKNS_4GMapINS_11GUTF8StringEPvEE
590        0x000FE7E0    _ZN4DJVU13DjVuDocEditor5writeERKNS_2GPINS_10ByteStreamEEEb
591        0x000FE850    _ZN4DJVU13DjVuDocEditor7save_asERKNS_4GURLEb
592        0x000F9200    _ZN4DJVU13DjVuDocEditor9move_fileERKNS_11GUTF8StringERiRNS_4GMapIS1_PvEE
593        0x000F9A80    _ZN4DJVU13DjVuDocEditor9move_pageEii
594        0x00100520    _ZN4DJVU13DjVuDocEditor9save_fileERKNS_11GUTF8StringERKNS_4GURLERNS_4GMapIS1_S1_EE
595        0x00100F10    _ZN4DJVU13DjVuDocEditor9save_fileERKNS_11GUTF8StringERKNS_4GURLEbRNS_4GMapIS1_S1_EE
596        0x000F00F0    _ZN4DJVU13DjVuDocEditorC1Ev
597        0x000F00F0    _ZN4DJVU13DjVuDocEditorC2Ev
598        0x000EDA00    _ZN4DJVU13DjVuDocEditorD0Ev
599        0x000ED790    _ZN4DJVU13DjVuDocEditorD1Ev
600        0x000ED790    _ZN4DJVU13DjVuDocEditorD2Ev
601        0x000EC6B0    _ZN4DJVU13DjVuErrorList10set_streamENS_2GPINS_10ByteStreamEEE
602        0x000EBC90    _ZN4DJVU13DjVuErrorList12notify_errorEPKNS_8DjVuPortERKNS_11GUTF8StringE
603        0x000EBFB0    _ZN4DJVU13DjVuErrorList12request_dataEPKNS_8DjVuPortERKNS_4GURLE
604        0x000EBB30    _ZN4DJVU13DjVuErrorList13notify_statusEPKNS_8DjVuPortERKNS_11GUTF8StringE
605        0x000EC8C0    _ZN4DJVU13DjVuErrorList8GetErrorEv
606        0x000EC9D0    _ZN4DJVU13DjVuErrorList9GetStatusEv
607        0x000EC520    _ZN4DJVU13DjVuErrorListC1Ev
608        0x000EC520    _ZN4DJVU13DjVuErrorListC2Ev
609        0x00155EA0    _ZN4DJVU13DjVuErrorListD0Ev
610        0x00156020    _ZN4DJVU13DjVuErrorListD1Ev
611        0x00075F90    _ZN4DJVU13DjVuFileCache10file_addedERKNS_2GPINS_8DjVuFileEEE
612        0x00075FB0    _ZN4DJVU13DjVuFileCache12file_clearedERKNS_2GPINS_8DjVuFileEEE
613        0x00075FA0    _ZN4DJVU13DjVuFileCache12file_deletedERKNS_2GPINS_8DjVuFileEEE
614        0x000774D0    _ZN4DJVU13DjVuFileCache12set_max_sizeEi
615        0x00076860    _ZN4DJVU13DjVuFileCache13clear_to_sizeEi
616        0x00076740    _ZN4DJVU13DjVuFileCache14calculate_sizeEv
617        0x00075F50    _ZN4DJVU13DjVuFileCache4Item10qsort_funcEPKvS3_
618        0x001561A0    _ZN4DJVU13DjVuFileCache4ItemD0Ev
619        0x00156250    _ZN4DJVU13DjVuFileCache4ItemD1Ev
620        0x000775C0    _ZN4DJVU13DjVuFileCache6enableEb
621        0x000770D0    _ZN4DJVU13DjVuFileCache8add_fileERKNS_2GPINS_8DjVuFileEEE
622        0x000776C0    _ZN4DJVU13DjVuFileCache8del_fileEPKNS_8DjVuFileE
623        0x00077920    _ZN4DJVU13DjVuFileCache9get_itemsEv
624        0x00076130    _ZN4DJVU13DjVuFileCacheD0Ev
625        0x00075FC0    _ZN4DJVU13DjVuFileCacheD1Ev
626        0x00075FC0    _ZN4DJVU13DjVuFileCacheD2Ev
627        0x000B7910    _ZN4DJVU13DjVuInterfaceD0Ev
628        0x000B78C0    _ZN4DJVU13DjVuInterfaceD1Ev
629        0x000B78C0    _ZN4DJVU13DjVuInterfaceD2Ev
630        0x00028860    _ZN4DJVU13GBitmapScaler5scaleERKNS_5GRectERKNS_7GBitmapES3_RS4_
631        0x001562F0    _ZN4DJVU13GBitmapScaler6createEiiii
632        0x001563C0    _ZN4DJVU13GBitmapScaler6createEv
633        0x000285D0    _ZN4DJVU13GBitmapScaler8get_lineEiRKNS_5GRectES3_RKNS_7GBitmapE
634        0x000283C0    _ZN4DJVU13GBitmapScalerC1Eiiii
635        0x000281F0    _ZN4DJVU13GBitmapScalerC1Ev
636        0x000283C0    _ZN4DJVU13GBitmapScalerC2Eiiii
637        0x000281F0    _ZN4DJVU13GBitmapScalerC2Ev
638        0x00027230    _ZN4DJVU13GBitmapScalerD0Ev
639        0x000270D0    _ZN4DJVU13GBitmapScalerD1Ev
640        0x000270D0    _ZN4DJVU13GBitmapScalerD2Ev
641        0x00156470    _ZN4DJVU13GNativeString4initERKNS_2GPINS_10GStringRepEEE
642        0x00156550    _ZN4DJVU13GNativeString4initEv
643        0x00012340    _ZN4DJVU13GNativeString5setatEic
644        0x00156570    _ZN4DJVU13GNativeString6createEPKcj
645        0x001565A0    _ZN4DJVU13GNativeString6createEPKjj
646        0x001565D0    _ZN4DJVU13GNativeString6createEPKtj
647        0x000105A0    _ZN4DJVU13GNativeString6formatEPKcz
648        0x000120F0    _ZN4DJVU13GNativeString6getbufEi
649        0x00156600    _ZN4DJVU13GNativeString7vformatERKS0_RPc
650        0x00009BB0    _ZN4DJVU13GNativeStringC1EPKc
651        0x00009550    _ZN4DJVU13GNativeStringC1EPKcj
652        0x00009A70    _ZN4DJVU13GNativeStringC1EPKh
653        0x00008EF0    _ZN4DJVU13GNativeStringC1EPKj
654        0x00009030    _ZN4DJVU13GNativeStringC1EPKjj
655        0x0000C8B0    _ZN4DJVU13GNativeStringC1EPKt
656        0x0000C6B0    _ZN4DJVU13GNativeStringC1EPKtj
657        0x001566D0    _ZN4DJVU13GNativeStringC1ERKNS_11GBaseStringE
658        0x000093E0    _ZN4DJVU13GNativeStringC1ERKNS_11GBaseStringEii
659        0x00156850    _ZN4DJVU13GNativeStringC1ERKNS_11GUTF8StringE
660        0x001569D0    _ZN4DJVU13GNativeStringC1ERKNS_2GPINS_10GStringRepEEE
661        0x00005890    _ZN4DJVU13GNativeStringC1ERKS0_
662        0x00156AE0    _ZN4DJVU13GNativeStringC1ERKS0_RPc
663        0x000096B0    _ZN4DJVU13GNativeStringC1Ec
664        0x00010890    _ZN4DJVU13GNativeStringC1Ed
665        0x00010980    _ZN4DJVU13GNativeStringC1Ei
666        0x00156BF0    _ZN4DJVU13GNativeStringC1Ev
667        0x00009BB0    _ZN4DJVU13GNativeStringC2EPKc
668        0x00009550    _ZN4DJVU13GNativeStringC2EPKcj
669        0x00009A70    _ZN4DJVU13GNativeStringC2EPKh
670        0x00008EF0    _ZN4DJVU13GNativeStringC2EPKj
671        0x00009030    _ZN4DJVU13GNativeStringC2EPKjj
672        0x0000C8B0    _ZN4DJVU13GNativeStringC2EPKt
673        0x0000C6B0    _ZN4DJVU13GNativeStringC2EPKtj
674        0x00156C10    _ZN4DJVU13GNativeStringC2ERKNS_11GBaseStringE
675        0x000093E0    _ZN4DJVU13GNativeStringC2ERKNS_11GBaseStringEii
676        0x00156D90    _ZN4DJVU13GNativeStringC2ERKNS_11GUTF8StringE
677        0x00156F10    _ZN4DJVU13GNativeStringC2ERKNS_2GPINS_10GStringRepEEE
678        0x00005890    _ZN4DJVU13GNativeStringC2ERKS0_
679        0x00157020    _ZN4DJVU13GNativeStringC2ERKS0_RPc
680        0x000096B0    _ZN4DJVU13GNativeStringC2Ec
681        0x00010890    _ZN4DJVU13GNativeStringC2Ed
682        0x00010980    _ZN4DJVU13GNativeStringC2Ei
683        0x00157130    _ZN4DJVU13GNativeStringC2Ev
684        0x00005800    _ZN4DJVU13GNativeStringD1Ev
685        0x00005800    _ZN4DJVU13GNativeStringD2Ev
686        0x00009940    _ZN4DJVU13GNativeStringaSEPKc
687        0x00157150    _ZN4DJVU13GNativeStringaSERKNS_11GBaseStringE
688        0x00157170    _ZN4DJVU13GNativeStringaSERKNS_11GUTF8StringE
689        0x00157190    _ZN4DJVU13GNativeStringaSERKNS_2GPINS_10GStringRepEEE
690        0x001571B0    _ZN4DJVU13GNativeStringaSERKS0_
691        0x000092A0    _ZN4DJVU13GNativeStringaSEc
692        0x00011B40    _ZN4DJVU13GNativeStringpLEPKc
693        0x00011C60    _ZN4DJVU13GNativeStringpLERKNS_11GBaseStringE
694        0x000119F0    _ZN4DJVU13GNativeStringpLEc
695        0x00029570    _ZN4DJVU13GPixmapScaler5scaleERKNS_5GRectERKNS_7GPixmapES3_RS4_
696        0x001571D0    _ZN4DJVU13GPixmapScaler6createEiiii
697        0x001572A0    _ZN4DJVU13GPixmapScaler6createEv
698        0x00029300    _ZN4DJVU13GPixmapScaler8get_lineEiRKNS_5GRectES3_RKNS_7GPixmapE
699        0x00029120    _ZN4DJVU13GPixmapScalerC1Eiiii
700        0x00028FB0    _ZN4DJVU13GPixmapScalerC1Ev
701        0x00029120    _ZN4DJVU13GPixmapScalerC2Eiiii
702        0x00028FB0    _ZN4DJVU13GPixmapScalerC2Ev
703        0x00027370    _ZN4DJVU13GPixmapScalerD0Ev
704        0x00027250    _ZN4DJVU13GPixmapScalerD1Ev
705        0x00027250    _ZN4DJVU13GPixmapScalerD2Ev
706        0x000350D0    _ZN4DJVU13IFFByteStream11close_chunkEv
707        0x00157350    _ZN4DJVU13IFFByteStream14get_bytestreamEv
708        0x00035320    _ZN4DJVU13IFFByteStream16seek_close_chunkEv
709        0x00157380    _ZN4DJVU13IFFByteStream4copyERNS_10ByteStreamEj
710        0x00032B80    _ZN4DJVU13IFFByteStream4readEPvj
711        0x00157440    _ZN4DJVU13IFFByteStream5flushEv
712        0x00033400    _ZN4DJVU13IFFByteStream5readyEv
713        0x000329F0    _ZN4DJVU13IFFByteStream5writeEPKvj
714        0x00033330    _ZN4DJVU13IFFByteStream6createERKNS_2GPINS_10ByteStreamEEE
715        0x00035830    _ZN4DJVU13IFFByteStream7compareERS0_
716        0x00035660    _ZN4DJVU13IFFByteStream7full_idERNS_11GUTF8StringE
717        0x00033450    _ZN4DJVU13IFFByteStream8check_idEPKc
718        0x00035380    _ZN4DJVU13IFFByteStream8short_idERNS_11GUTF8StringE
719        0x00033430    _ZN4DJVU13IFFByteStream9compositeEv
720        0x000340E0    _ZN4DJVU13IFFByteStream9get_chunkERNS_11GUTF8StringEPiS3_
721        0x00034CB0    _ZN4DJVU13IFFByteStream9put_chunkEPKci
722        0x000332E0    _ZN4DJVU13IFFByteStreamC1ERKNS_2GPINS_10ByteStreamEEEi
723        0x000332E0    _ZN4DJVU13IFFByteStreamC2ERKNS_2GPINS_10ByteStreamEEEi
724        0x00035300    _ZN4DJVU13IFFByteStreamD0Ev
725        0x00035260    _ZN4DJVU13IFFByteStreamD1Ev
726        0x00035260    _ZN4DJVU13IFFByteStreamD2Ev
727        0x0011EFB0    _ZN4DJVU13XMLByteStream4initEv
728        0x0011FB90    _ZN4DJVU13XMLByteStream6createENS_2GPINS_10ByteStreamEEE
729        0x0011EED0    _ZN4DJVU13XMLByteStreamC1ERNS_17UnicodeByteStreamE
730        0x0011EF00    _ZN4DJVU13XMLByteStreamC1ERNS_2GPINS_10ByteStreamEEE
731        0x0011EED0    _ZN4DJVU13XMLByteStreamC2ERNS_17UnicodeByteStreamE
732        0x0011EF00    _ZN4DJVU13XMLByteStreamC2ERNS_2GPINS_10ByteStreamEEE
733        0x0011D7D0    _ZN4DJVU13XMLByteStreamD0Ev
734        0x0011D700    _ZN4DJVU13XMLByteStreamD1Ev
735        0x0011D700    _ZN4DJVU13XMLByteStreamD2Ev
736        0x00110DB0    _ZN4DJVU14DjVuDumpHelper4dumpENS_2GPINS_10ByteStreamEEE
737        0x00111480    _ZN4DJVU14DjVuDumpHelper4dumpERKNS_2GPINS_8DataPoolEEE
738        0x00157460    _ZN4DJVU14DjVuDumpHelperC1Ev
739        0x00157470    _ZN4DJVU14DjVuDumpHelperC2Ev
740        0x00157480    _ZN4DJVU14DjVuDumpHelperD1Ev
741        0x00157490    _ZN4DJVU14DjVuDumpHelperD2Ev
742        0x00077C30    _ZN4DJVU14DjVuMemoryPort12request_dataEPKNS_8DjVuPortERKNS_4GURLE
743        0x0007D5F0    _ZN4DJVU14DjVuMemoryPort8add_dataERKNS_4GURLERKNS_2GPINS_8DataPoolEEE
744        0x001574A0    _ZN4DJVU14DjVuMemoryPortD0Ev
745        0x00157590    _ZN4DJVU14DjVuMemoryPortD1Ev
746        0x0007BC20    _ZN4DJVU14DjVuPortcaster10id_to_fileEPKNS_8DjVuPortERKNS_11GUTF8StringE
747        0x0007A610    _ZN4DJVU14DjVuPortcaster11copy_routesEPNS_8DjVuPortEPKS1_
748        0x0007C020    _ZN4DJVU14DjVuPortcaster12notify_errorEPKNS_8DjVuPortERKNS_11GUTF8StringE
749        0x0007BE20    _ZN4DJVU14DjVuPortcaster12request_dataEPKNS_8DjVuPortERKNS_4GURLE
750        0x00079390    _ZN4DJVU14DjVuPortcaster13alias_to_portERKNS_11GUTF8StringE
751        0x00079250    _ZN4DJVU14DjVuPortcaster13clear_aliasesEPKNS_8DjVuPortE
752        0x00078DA0    _ZN4DJVU14DjVuPortcaster13is_port_aliveEPNS_8DjVuPortE
753        0x0007C190    _ZN4DJVU14DjVuPortcaster13notify_statusEPKNS_8DjVuPortERKNS_11GUTF8StringE
754        0x0007ABD0    _ZN4DJVU14DjVuPortcaster14add_to_closureERNS_4GMapIPKvPvEEPKNS_8DjVuPortEi
755        0x00157670    _ZN4DJVU14DjVuPortcaster14get_portcasterEv
756        0x0007CB00    _ZN4DJVU14DjVuPortcaster15compute_closureEPKNS_8DjVuPortERNS_6GPListIS1_EEb
757        0x0007C450    _ZN4DJVU14DjVuPortcaster15notify_relayoutEPKNS_9DjVuImageE
758        0x000795C0    _ZN4DJVU14DjVuPortcaster15prefix_to_portsERKNS_11GUTF8StringE
759        0x0007C300    _ZN4DJVU14DjVuPortcaster16notify_redisplayEPKNS_9DjVuImageE
760        0x00079140    _ZN4DJVU14DjVuPortcaster17clear_all_aliasesEv
761        0x0007C5A0    _ZN4DJVU14DjVuPortcaster17notify_chunk_doneEPKNS_8DjVuPortERKNS_11GUTF8StringE
762        0x0007C9B0    _ZN4DJVU14DjVuPortcaster22notify_decode_progressEPKNS_8DjVuPortEf
763        0x0007C850    _ZN4DJVU14DjVuPortcaster24notify_doc_flags_changedEPKNS_12DjVuDocumentEll
764        0x0007C6F0    _ZN4DJVU14DjVuPortcaster25notify_file_flags_changedEPKNS_8DjVuFileEll
765        0x00079840    _ZN4DJVU14DjVuPortcaster8del_portEPKNS_8DjVuPortE
766        0x00078F50    _ZN4DJVU14DjVuPortcaster9add_aliasEPKNS_8DjVuPortERKNS_11GUTF8StringE
767        0x00079D20    _ZN4DJVU14DjVuPortcaster9add_routeEPKNS_8DjVuPortEPS1_
768        0x0007A2D0    _ZN4DJVU14DjVuPortcaster9del_routeEPKNS_8DjVuPortEPS1_
769        0x0007B9D0    _ZN4DJVU14DjVuPortcaster9id_to_urlEPKNS_8DjVuPortERKNS_11GUTF8StringE
770        0x00078640    _ZN4DJVU14DjVuPortcasterC1Ev
771        0x00078640    _ZN4DJVU14DjVuPortcasterC2Ev
772        0x00077FF0    _ZN4DJVU14DjVuPortcasterD0Ev
773        0x00077DE0    _ZN4DJVU14DjVuPortcasterD1Ev
774        0x00077DE0    _ZN4DJVU14DjVuPortcasterD2Ev
775        0x00077A80    _ZN4DJVU14DjVuSimplePort12notify_errorEPKNS_8DjVuPortERKNS_11GUTF8StringE
776        0x00077B30    _ZN4DJVU14DjVuSimplePort12request_dataEPKNS_8DjVuPortERKNS_4GURLE
777        0x00077A60    _ZN4DJVU14DjVuSimplePort13notify_statusEPKNS_8DjVuPortERKNS_11GUTF8StringE
778        0x00157680    _ZN4DJVU14DjVuSimplePortD0Ev
779        0x001576B0    _ZN4DJVU14DjVuSimplePortD1Ev
780        0x00050BC0    _ZN4DJVU14IWEncoderParmsC1Ev
781        0x00050BC0    _ZN4DJVU14IWEncoderParmsC2Ev
782        0x00064270    _ZN4DJVU14PoolByteStream4readEPvj
783        0x0005E3B0    _ZN4DJVU14PoolByteStream4seekElib
784        0x0005E5F0    _ZN4DJVU14PoolByteStream5writeEPKvj
785        0x001576D0    _ZN4DJVU14PoolByteStreamD0Ev
786        0x00157780    _ZN4DJVU14PoolByteStreamD1Ev
787        0x0012CDD0    _ZN4DJVU14lt_XMLContentsC1ENS_2GPINS_10lt_XMLTagsEEE
788        0x0012CDA0    _ZN4DJVU14lt_XMLContentsC1Ev
789        0x0012CDD0    _ZN4DJVU14lt_XMLContentsC2ENS_2GPINS_10lt_XMLTagsEEE
790        0x0012CDA0    _ZN4DJVU14lt_XMLContentsC2Ev
791        0x00157820    _ZN4DJVU14lt_XMLContentsD1Ev
792        0x001578B0    _ZN4DJVU15DjVuMessageLite10LookUpUTF8ERKNS_11GUTF8StringE
793        0x00115270    _ZN4DJVU15DjVuMessageLite11create_liteEv
794        0x001578E0    _ZN4DJVU15DjVuMessageLite12LookUpNativeERKNS_11GUTF8StringE
795        0x001150F0    _ZN4DJVU15DjVuMessageLite13AddByteStreamERKNS_2GPINS_10ByteStreamEEE
796        0x00111CF0    _ZN4DJVU15DjVuMessageLite13getByteStreamEv
797        0x00111E40    _ZN4DJVU15DjVuMessageLite18AddByteStreamLaterERKNS_2GPINS_10ByteStreamEEE
798        0x00111DE0    _ZN4DJVU15DjVuMessageLite18getDjVuMessageLiteEv
799        0x00171A68    _ZN4DJVU15DjVuMessageLite6createE
800        0x001131C0    _ZN4DJVU15DjVuMessageLite6perrorERKNS_11GUTF8StringE
801        0x00111EA0    _ZN4DJVU15DjVuMessageLiteC1Ev
802        0x00111EA0    _ZN4DJVU15DjVuMessageLiteC2Ev
803        0x00111630    _ZN4DJVU15DjVuMessageLiteD0Ev
804        0x00111550    _ZN4DJVU15DjVuMessageLiteD1Ev
805        0x00111550    _ZN4DJVU15DjVuMessageLiteD2Ev
806        0x001579B0    _ZN4DJVU15ddjvu_context_sD0Ev
807        0x00157B20    _ZN4DJVU15ddjvu_context_sD1Ev
808        0x00157C80    _ZN4DJVU15ddjvu_message_pD0Ev
809        0x00157D60    _ZN4DJVU15ddjvu_message_pD1Ev
810        0x00147D20    _ZN4DJVU15ddjvu_savejob_s14parse_pagespecEPKciPb
811        0x00147F00    _ZN4DJVU15ddjvu_savejob_s19mark_included_filesEPNS_8DjVuFileE
812        0x001344F0    _ZN4DJVU15ddjvu_savejob_s25notify_file_flags_changedEPKNS_8DjVuFileEll
813        0x001484E0    _ZN4DJVU15ddjvu_savejob_s3runEv
814        0x00134790    _ZN4DJVU15ddjvu_savejob_s8inheritsERKNS_11GUTF8StringE
815        0x00157E40    _ZN4DJVU15ddjvu_savejob_sD0Ev
816        0x00158150    _ZN4DJVU15ddjvu_savejob_sD1Ev
817        0x00137CA0    _ZN4DJVU16ddjvu_document_s12notify_errorEPKNS_8DjVuPortERKNS_11GUTF8StringE
818        0x00136070    _ZN4DJVU16ddjvu_document_s12request_dataEPKNS_8DjVuPortERKNS_4GURLE
819        0x001381D0    _ZN4DJVU16ddjvu_document_s13notify_statusEPKNS_8DjVuPortERKNS_11GUTF8StringE
820        0x0013C110    _ZN4DJVU16ddjvu_document_s13want_pageinfoEv
821        0x00137830    _ZN4DJVU16ddjvu_document_s24notify_doc_flags_changedEPKNS_12DjVuDocumentEll
822        0x001377F0    _ZN4DJVU16ddjvu_document_s6statusEv
823        0x00136DF0    _ZN4DJVU16ddjvu_document_s7releaseEv
824        0x00135490    _ZN4DJVU16ddjvu_document_s8callbackEPv
825        0x001346B0    _ZN4DJVU16ddjvu_document_s8inheritsERKNS_11GUTF8StringE
826        0x00158460    _ZN4DJVU16ddjvu_document_sD0Ev
827        0x00158680    _ZN4DJVU16ddjvu_document_sD1Ev
828        0x001456E0    _ZN4DJVU16ddjvu_printjob_s10cbprogressEdPv
829        0x00134E10    _ZN4DJVU16ddjvu_printjob_s3runEv
830        0x00145600    _ZN4DJVU16ddjvu_printjob_s6cbinfoEiiiNS_8DjVuToPS5StageEPv
831        0x00134800    _ZN4DJVU16ddjvu_printjob_s8inheritsERKNS_11GUTF8StringE
832        0x00138430    _ZN4DJVU16ddjvu_printjob_s9cbrefreshEPv
833        0x00158890    _ZN4DJVU16ddjvu_printjob_sD0Ev
834        0x00158A80    _ZN4DJVU16ddjvu_printjob_sD1Ev
835        0x000B8310    _ZN4DJVU17DjVuImageNotifier12request_dataEPKNS_8DjVuPortERKNS_4GURLE
836        0x000B78F0    _ZN4DJVU17DjVuImageNotifier15notify_relayoutEPKNS_9DjVuImageE
837        0x000B78D0    _ZN4DJVU17DjVuImageNotifier16notify_redisplayEPKNS_9DjVuImageE
838        0x000B7B90    _ZN4DJVU17DjVuImageNotifier17notify_chunk_doneEPKNS_8DjVuPortERKNS_11GUTF8StringE
839        0x000B9310    _ZN4DJVU17DjVuImageNotifierC1EPNS_13DjVuInterfaceE
840        0x000B9310    _ZN4DJVU17DjVuImageNotifierC2EPNS_13DjVuInterfaceE
841        0x00158C60    _ZN4DJVU17DjVuImageNotifierD0Ev
842        0x00158D50    _ZN4DJVU17DjVuImageNotifierD1Ev
843        0x00002E10    _ZN4DJVU17GExceptionHandler7exthrowERKNS_10GExceptionE
844        0x00002EB0    _ZN4DJVU17GExceptionHandler7rethrowEv
845        0x0011ED80    _ZN4DJVU17UnicodeByteStream12set_encodingERKNS_11GUTF8StringE
846        0x0011EC80    _ZN4DJVU17UnicodeByteStream14set_encodetypeENS_10GStringRep10EncodeTypeE
847        0x0011E100    _ZN4DJVU17UnicodeByteStream4getsEjmb
848        0x0011DEB0    _ZN4DJVU17UnicodeByteStream4readEPvj
849        0x0011DC10    _ZN4DJVU17UnicodeByteStream4seekElib
850        0x0011DAE0    _ZN4DJVU17UnicodeByteStream5flushEv
851        0x0011DD60    _ZN4DJVU17UnicodeByteStream5writeEPKvj
852        0x0011EAF0    _ZN4DJVU17UnicodeByteStreamC1ENS_2GPINS_10ByteStreamEEENS_10GStringRep10EncodeTypeE
853        0x0011E9B0    _ZN4DJVU17UnicodeByteStreamC1ERKS0_
854        0x0011EAF0    _ZN4DJVU17UnicodeByteStreamC2ENS_2GPINS_10ByteStreamEEENS_10GStringRep10EncodeTypeE
855        0x0011E9B0    _ZN4DJVU17UnicodeByteStreamC2ERKS0_
856        0x0011D620    _ZN4DJVU17UnicodeByteStreamD0Ev
857        0x0011D540    _ZN4DJVU17UnicodeByteStreamD1Ev
858        0x0011D540    _ZN4DJVU17UnicodeByteStreamD2Ev
859        0x0011EE80    _ZN4DJVU17UnicodeByteStreamaSERS0_
860        0x00137040    _ZN4DJVU17ddjvu_thumbnail_p8callbackEPv
861        0x00158E30    _ZN4DJVU17ddjvu_thumbnail_pD0Ev
862        0x00158F10    _ZN4DJVU17ddjvu_thumbnail_pD1Ev
863        0x00158FF0    _ZN4DJVU18ProgressByteStream4readEPvj
864        0x00159110    _ZN4DJVU18ProgressByteStream4seekElib
865        0x00159140    _ZN4DJVU18ProgressByteStream5writeEPKvj
866        0x00159170    _ZN4DJVU18ProgressByteStreamD0Ev
867        0x00159220    _ZN4DJVU18ProgressByteStreamD1Ev
868        0x00133C10    _ZN4DJVU19ddjvu_runnablejob_s4stopEv
869        0x00145A10    _ZN4DJVU19ddjvu_runnablejob_s5startEv
870        0x00133C00    _ZN4DJVU19ddjvu_runnablejob_s6statusEv
871        0x00145760    _ZN4DJVU19ddjvu_runnablejob_s7cbstartEPv
872        0x00134640    _ZN4DJVU19ddjvu_runnablejob_s8inheritsERKNS_11GUTF8StringE
873        0x00145380    _ZN4DJVU19ddjvu_runnablejob_s8progressEi
874        0x001452A0    _ZN4DJVU19ddjvu_runnablejob_sC1Ev
875        0x001452A0    _ZN4DJVU19ddjvu_runnablejob_sC2Ev
876        0x001592C0    _ZN4DJVU19ddjvu_runnablejob_sD0Ev
877        0x001593F0    _ZN4DJVU19ddjvu_runnablejob_sD1Ev
878        0x0018C008    _ZN4DJVU19setlocale_win32_varE
879        0x00159510    _ZN4DJVU20GCriticalSectionLockC1EPNS_16GCriticalSectionE
880        0x00159530    _ZN4DJVU20GCriticalSectionLockD1Ev
881        0x0011A4A0    _ZN4DJVU21DjVuMessageLookUpUTF8EPcjPKc
882        0x00114FC0    _ZN4DJVU22DjVuMessageLite_LookUpEPcjPKc
883        0x0011A380    _ZN4DJVU23DjVuMessageLookUpNativeEPcjPKc
884        0x00001F70    _ZN4DJVU3GOS3cwdERKNS_11GUTF8StringE
885        0x00001F50    _ZN4DJVU3GOS5sleepEi
886        0x00001F40    _ZN4DJVU3GOS5ticksEv
887        0x000022F0    _ZN4DJVU3GOS6getenvERKNS_11GUTF8StringE
888        0x00001B80    _ZN4DJVU3GOS8basenameERKNS_11GUTF8StringEPKc
889        0x0006B650    _ZN4DJVU4GURL11expand_nameERKNS_11GUTF8StringEPKc
890        0x0006A9C0    _ZN4DJVU4GURL13beautify_pathENS_11GUTF8StringE
891        0x0006D520    _ZN4DJVU4GURL13beautify_pathEv
892        0x00071E60    _ZN4DJVU4GURL14parse_cgi_argsEv
893        0x00071130    _ZN4DJVU4GURL14store_cgi_argsEv
894        0x0006D620    _ZN4DJVU4GURL15convert_slashesEv
895        0x0006B200    _ZN4DJVU4GURL15decode_reservedERKNS_11GUTF8StringE
896        0x0006B480    _ZN4DJVU4GURL15encode_reservedERKNS_11GUTF8StringE
897        0x0006D0D0    _ZN4DJVU4GURL17set_hash_argumentERKNS_11GUTF8StringE
898        0x0006F820    _ZN4DJVU4GURL19clear_all_argumentsEv
899        0x0006F520    _ZN4DJVU4GURL19clear_cgi_argumentsEv
900        0x0006F670    _ZN4DJVU4GURL19clear_hash_argumentEv
901        0x00071660    _ZN4DJVU4GURL21add_djvu_cgi_argumentERKNS_11GUTF8StringEPKc
902        0x00071C00    _ZN4DJVU4GURL24clear_djvu_cgi_argumentsEv
903        0x0006B620    _ZN4DJVU4GURL4UTF8C1ERKNS_11GUTF8StringE
904        0x000731C0    _ZN4DJVU4GURL4UTF8C1ERKNS_11GUTF8StringERKS0_
905        0x0006B620    _ZN4DJVU4GURL4UTF8C2ERKNS_11GUTF8StringE
906        0x000731C0    _ZN4DJVU4GURL4UTF8C2ERKNS_11GUTF8StringERKS0_
907        0x00159550    _ZN4DJVU4GURL4UTF8D0Ev
908        0x00159580    _ZN4DJVU4GURL4UTF8D1Ev
909        0x0006C660    _ZN4DJVU4GURL4initEb
910        0x00073700    _ZN4DJVU4GURL6NativeC1ERKNS_13GNativeStringE
911        0x00074A00    _ZN4DJVU4GURL6NativeC1ERKNS_13GNativeStringERKS0_
912        0x00073700    _ZN4DJVU4GURL6NativeC2ERKNS_13GNativeStringE
913        0x00074A00    _ZN4DJVU4GURL6NativeC2ERKNS_13GNativeStringERKS0_
914        0x001595A0    _ZN4DJVU4GURL6NativeD0Ev
915        0x001595D0    _ZN4DJVU4GURL6NativeD1Ev
916        0x0006C3A0    _ZN4DJVU4GURL8Filename4UTF8C1ERKNS_11GUTF8StringE
917        0x0006C3A0    _ZN4DJVU4GURL8Filename4UTF8C2ERKNS_11GUTF8StringE
918        0x001595F0    _ZN4DJVU4GURL8Filename4UTF8D0Ev
919        0x00159620    _ZN4DJVU4GURL8Filename4UTF8D1Ev
920        0x0006C520    _ZN4DJVU4GURL8Filename6NativeC1ERKNS_13GNativeStringE
921        0x0006C520    _ZN4DJVU4GURL8Filename6NativeC2ERKNS_13GNativeStringE
922        0x00159640    _ZN4DJVU4GURL8Filename6NativeD0Ev
923        0x00159670    _ZN4DJVU4GURL8Filename6NativeD1Ev
924        0x0006C2B0    _ZN4DJVU4GURL8FilenameC1ERKNS_11GUTF8StringE
925        0x0006C3D0    _ZN4DJVU4GURL8FilenameC1ERKNS_13GNativeStringE
926        0x0006C2B0    _ZN4DJVU4GURL8FilenameC2ERKNS_11GUTF8StringE
927        0x0006C3D0    _ZN4DJVU4GURL8FilenameC2ERKNS_13GNativeStringE
928        0x00159690    _ZN4DJVU4GURL8FilenameD0Ev
929        0x001596C0    _ZN4DJVU4GURL8FilenameD1Ev
930        0x0006A920    _ZN4DJVU4GURL8protocolERKNS_11GUTF8StringE
931        0x0006A370    _ZN4DJVU4GURLC1EPKc
932        0x0006A650    _ZN4DJVU4GURLC1ERKNS_11GUTF8StringE
933        0x00072570    _ZN4DJVU4GURLC1ERKNS_11GUTF8StringERKS0_
934        0x000731F0    _ZN4DJVU4GURLC1ERKNS_13GNativeStringE
935        0x000743D0    _ZN4DJVU4GURLC1ERKNS_13GNativeStringERKS0_
936        0x00074BA0    _ZN4DJVU4GURLC1ERKS0_
937        0x0006A0B0    _ZN4DJVU4GURLC1Ev
938        0x0006A370    _ZN4DJVU4GURLC2EPKc
939        0x0006A650    _ZN4DJVU4GURLC2ERKNS_11GUTF8StringE
940        0x00072570    _ZN4DJVU4GURLC2ERKNS_11GUTF8StringERKS0_
941        0x000731F0    _ZN4DJVU4GURLC2ERKNS_13GNativeStringE
942        0x000743D0    _ZN4DJVU4GURLC2ERKNS_13GNativeStringERKS0_
943        0x00074BA0    _ZN4DJVU4GURLC2ERKS0_
944        0x0006A0B0    _ZN4DJVU4GURLC2Ev
945        0x001596E0    _ZN4DJVU4GURLD0Ev
946        0x00159700    _ZN4DJVU4GURLD1Ev
947        0x00159830    _ZN4DJVU4GURLD2Ev
948        0x00074A30    _ZN4DJVU4GURLaSERKS0_
949        0x000078F0    _ZN4DJVU4hashERKNS_11GBaseStringE
950        0x00075DF0    _ZN4DJVU4hashERKNS_4GURLE
951        0x00159960    _ZN4DJVU5GCont10NormTraitsINS0_7MapNodeINS_11GUTF8StringENS_2GPINS_10lt_XMLTagsEEEEEE3leaEPvi
952        0x00159970    _ZN4DJVU5GCont10NormTraitsINS0_7MapNodeINS_11GUTF8StringENS_2GPINS_10lt_XMLTagsEEEEEE4copyEPvPKvii
953        0x00159B90    _ZN4DJVU5GCont10NormTraitsINS0_7MapNodeINS_11GUTF8StringENS_2GPINS_10lt_XMLTagsEEEEEE4finiEPvi
954        0x00159C50    _ZN4DJVU5GCont10NormTraitsINS0_7MapNodeINS_11GUTF8StringENS_2GPINS_10lt_XMLTagsEEEEEE4initEPvi
955        0x00159C90    _ZN4DJVU5GCont10NormTraitsINS0_7MapNodeINS_11GUTF8StringENS_2GPINS_12DjVuDocumentEEEEEE3leaEPvi
956        0x00159CA0    _ZN4DJVU5GCont10NormTraitsINS0_7MapNodeINS_11GUTF8StringENS_2GPINS_12DjVuDocumentEEEEEE4copyEPvPKvii
957        0x00159EC0    _ZN4DJVU5GCont10NormTraitsINS0_7MapNodeINS_11GUTF8StringENS_2GPINS_12DjVuDocumentEEEEEE4finiEPvi
958        0x00159F80    _ZN4DJVU5GCont10NormTraitsINS0_7MapNodeINS_11GUTF8StringENS_2GPINS_12DjVuDocumentEEEEEE4initEPvi
959        0x00159FC0    _ZN4DJVU5GCont10NormTraitsINS0_7MapNodeINS_11GUTF8StringENS_2GPINS_8DjVmDir07FileRecEEEEEE3leaEPvi
960        0x00159FD0    _ZN4DJVU5GCont10NormTraitsINS0_7MapNodeINS_11GUTF8StringENS_2GPINS_8DjVmDir07FileRecEEEEEE4copyEPvPKvii
961        0x0015A1F0    _ZN4DJVU5GCont10NormTraitsINS0_7MapNodeINS_11GUTF8StringENS_2GPINS_8DjVmDir07FileRecEEEEEE4finiEPvi
962        0x0015A2B0    _ZN4DJVU5GCont10NormTraitsINS0_7MapNodeINS_11GUTF8StringENS_2GPINS_8DjVmDir07FileRecEEEEEE4initEPvi
963        0x0015A2F0    _ZN4DJVU5GCont10NormTraitsINS0_7MapNodeINS_11GUTF8StringENS_2GPINS_8DjVuFileEEEEEE3leaEPvi
964        0x0015A300    _ZN4DJVU5GCont10NormTraitsINS0_7MapNodeINS_11GUTF8StringENS_2GPINS_8DjVuFileEEEEEE4copyEPvPKvii
965        0x0015A520    _ZN4DJVU5GCont10NormTraitsINS0_7MapNodeINS_11GUTF8StringENS_2GPINS_8DjVuFileEEEEEE4finiEPvi
966        0x0015A5E0    _ZN4DJVU5GCont10NormTraitsINS0_7MapNodeINS_11GUTF8StringENS_2GPINS_8DjVuFileEEEEEE4initEPvi
967        0x0015A620    _ZN4DJVU5GCont10NormTraitsINS0_7MapNodeINS_11GUTF8StringENS_6GPBaseEEEE3leaEPvi
968        0x0015A630    _ZN4DJVU5GCont10NormTraitsINS0_7MapNodeINS_11GUTF8StringENS_6GPBaseEEEE4copyEPvPKvii
969        0x0015A850    _ZN4DJVU5GCont10NormTraitsINS0_7MapNodeINS_11GUTF8StringENS_6GPBaseEEEE4finiEPvi
970        0x0015A910    _ZN4DJVU5GCont10NormTraitsINS0_7MapNodeINS_11GUTF8StringENS_6GPBaseEEEE4initEPvi
971        0x0015A950    _ZN4DJVU5GCont10NormTraitsINS0_7MapNodeINS_11GUTF8StringENS_6GPListINS_10lt_XMLTagsEEEEEE3leaEPvi
972        0x0015A970    _ZN4DJVU5GCont10NormTraitsINS0_7MapNodeINS_11GUTF8StringENS_6GPListINS_10lt_XMLTagsEEEEEE4copyEPvPKvii
973        0x0015AB90    _ZN4DJVU5GCont10NormTraitsINS0_7MapNodeINS_11GUTF8StringENS_6GPListINS_10lt_XMLTagsEEEEEE4finiEPvi
974        0x0015AC50    _ZN4DJVU5GCont10NormTraitsINS0_7MapNodeINS_11GUTF8StringENS_6GPListINS_10lt_XMLTagsEEEEEE4initEPvi
975        0x0015AD30    _ZN4DJVU5GCont10NormTraitsINS0_7MapNodeINS_11GUTF8StringENS_6GPListINS_7DjVmDir4FileEEEEEE3leaEPvi
976        0x0015AD50    _ZN4DJVU5GCont10NormTraitsINS0_7MapNodeINS_11GUTF8StringENS_6GPListINS_7DjVmDir4FileEEEEEE4copyEPvPKvii
977        0x0015AF70    _ZN4DJVU5GCont10NormTraitsINS0_7MapNodeINS_11GUTF8StringENS_6GPListINS_7DjVmDir4FileEEEEEE4finiEPvi
978        0x0015B030    _ZN4DJVU5GCont10NormTraitsINS0_7MapNodeINS_11GUTF8StringENS_6GPListINS_7DjVmDir4FileEEEEEE4initEPvi
979        0x0015B110    _ZN4DJVU5GCont10NormTraitsINS0_7MapNodeINS_11GUTF8StringENS_8GMapArea10BorderTypeEEEE3leaEPvi
980        0x0015B120    _ZN4DJVU5GCont10NormTraitsINS0_7MapNodeINS_11GUTF8StringENS_8GMapArea10BorderTypeEEEE4copyEPvPKvii
981        0x0015B1E0    _ZN4DJVU5GCont10NormTraitsINS0_7MapNodeINS_11GUTF8StringENS_8GMapArea10BorderTypeEEEE4finiEPvi
982        0x0015B210    _ZN4DJVU5GCont10NormTraitsINS0_7MapNodeINS_11GUTF8StringENS_8GMapArea10BorderTypeEEEE4initEPvi
983        0x0015B250    _ZN4DJVU5GCont10NormTraitsINS0_7MapNodeINS_11GUTF8StringEPKvEEE3leaEPvi
984        0x0015B260    _ZN4DJVU5GCont10NormTraitsINS0_7MapNodeINS_11GUTF8StringEPKvEEE4copyEPvS5_ii
985        0x0015B320    _ZN4DJVU5GCont10NormTraitsINS0_7MapNodeINS_11GUTF8StringEPKvEEE4finiEPvi
986        0x0015B350    _ZN4DJVU5GCont10NormTraitsINS0_7MapNodeINS_11GUTF8StringEPKvEEE4initEPvi
987        0x0015B390    _ZN4DJVU5GCont10NormTraitsINS0_7MapNodeINS_11GUTF8StringEPvEEE3leaES4_i
988        0x0015B3A0    _ZN4DJVU5GCont10NormTraitsINS0_7MapNodeINS_11GUTF8StringEPvEEE4copyES4_PKvii
989        0x0015B460    _ZN4DJVU5GCont10NormTraitsINS0_7MapNodeINS_11GUTF8StringEPvEEE4finiES4_i
990        0x0015B490    _ZN4DJVU5GCont10NormTraitsINS0_7MapNodeINS_11GUTF8StringEPvEEE4initES4_i
991        0x0015B4D0    _ZN4DJVU5GCont10NormTraitsINS0_7MapNodeINS_11GUTF8StringES3_EEE3leaEPvi
992        0x0015B4E0    _ZN4DJVU5GCont10NormTraitsINS0_7MapNodeINS_11GUTF8StringES3_EEE4copyEPvPKvii
993        0x0015B700    _ZN4DJVU5GCont10NormTraitsINS0_7MapNodeINS_11GUTF8StringES3_EEE4finiEPvi
994        0x0015B7C0    _ZN4DJVU5GCont10NormTraitsINS0_7MapNodeINS_11GUTF8StringES3_EEE4initEPvi
995        0x0015B800    _ZN4DJVU5GCont10NormTraitsINS0_7MapNodeINS_11GUTF8StringEiEEE3leaEPvi
996        0x0015B810    _ZN4DJVU5GCont10NormTraitsINS0_7MapNodeINS_11GUTF8StringEiEEE4copyEPvPKvii
997        0x0015B8D0    _ZN4DJVU5GCont10NormTraitsINS0_7MapNodeINS_11GUTF8StringEiEEE4finiEPvi
998        0x0015B900    _ZN4DJVU5GCont10NormTraitsINS0_7MapNodeINS_11GUTF8StringEiEEE4initEPvi
999        0x0015B940    _ZN4DJVU5GCont10NormTraitsINS0_7MapNodeINS_4GURLENS_6GPListINS_8DataPoolEEEEEE3leaEPvi
1000       0x0015B950    _ZN4DJVU5GCont10NormTraitsINS0_7MapNodeINS_4GURLENS_6GPListINS_8DataPoolEEEEEE4copyEPvPKvii
1001       0x0015BB70    _ZN4DJVU5GCont10NormTraitsINS0_7MapNodeINS_4GURLENS_6GPListINS_8DataPoolEEEEEE4finiEPvi
1002       0x0015BC30    _ZN4DJVU5GCont10NormTraitsINS0_7MapNodeINS_4GURLENS_6GPListINS_8DataPoolEEEEEE4initEPvi
1003       0x0015BD10    _ZN4DJVU5GCont10NormTraitsINS0_7MapNodeINS_4GURLEPvEEE3leaES4_i
1004       0x0015BD30    _ZN4DJVU5GCont10NormTraitsINS0_7MapNodeINS_4GURLEPvEEE4copyES4_PKvii
1005       0x0015BDF0    _ZN4DJVU5GCont10NormTraitsINS0_7MapNodeINS_4GURLEPvEEE4finiES4_i
1006       0x0015BE20    _ZN4DJVU5GCont10NormTraitsINS0_7MapNodeINS_4GURLEPvEEE4initES4_i
1007       0x0015BE60    _ZN4DJVU5GCont10NormTraitsINS0_7MapNodeINS_4GURLEiEEE3leaEPvi
1008       0x0015BE80    _ZN4DJVU5GCont10NormTraitsINS0_7MapNodeINS_4GURLEiEEE4copyEPvPKvii
1009       0x0015BF40    _ZN4DJVU5GCont10NormTraitsINS0_7MapNodeINS_4GURLEiEEE4finiEPvi
1010       0x0015BF70    _ZN4DJVU5GCont10NormTraitsINS0_7MapNodeINS_4GURLEiEEE4initEPvi
1011       0x0015BFB0    _ZN4DJVU5GCont10NormTraitsINS0_7MapNodeIP9miniexp_sS4_EEE3leaEPvi
1012       0x0015BFD0    _ZN4DJVU5GCont10NormTraitsINS0_7MapNodeIP9miniexp_sS4_EEE4copyEPvPKvii
1013       0x0015C020    _ZN4DJVU5GCont10NormTraitsINS0_7MapNodeIP9miniexp_sS4_EEE4finiEPvi
1014       0x0015C030    _ZN4DJVU5GCont10NormTraitsINS0_7MapNodeIP9miniexp_sS4_EEE4initEPvi
1015       0x0015C040    _ZN4DJVU5GCont10NormTraitsINS0_7MapNodeIPKvPvEEE3leaES5_i
1016       0x0015C060    _ZN4DJVU5GCont10NormTraitsINS0_7MapNodeIPKvPvEEE4copyES5_S4_ii
1017       0x0015C0B0    _ZN4DJVU5GCont10NormTraitsINS0_7MapNodeIPKvPvEEE4finiES5_i
1018       0x0015C0C0    _ZN4DJVU5GCont10NormTraitsINS0_7MapNodeIPKvPvEEE4initES5_i
1019       0x0015C0D0    _ZN4DJVU5GCont10NormTraitsINS0_7MapNodeIiNS_6GPBaseEEEE3leaEPvi
1020       0x0015C0F0    _ZN4DJVU5GCont10NormTraitsINS0_7MapNodeIiNS_6GPBaseEEEE4copyEPvPKvii
1021       0x0015C1B0    _ZN4DJVU5GCont10NormTraitsINS0_7MapNodeIiNS_6GPBaseEEEE4finiEPvi
1022       0x0015C1E0    _ZN4DJVU5GCont10NormTraitsINS0_7MapNodeIiNS_6GPBaseEEEE4initEPvi
1023       0x0015C220    _ZN4DJVU5GCont10NormTraitsINS0_7MapNodeIiiEEE3leaEPvi
1024       0x0015C240    _ZN4DJVU5GCont10NormTraitsINS0_7MapNodeIiiEEE4copyEPvPKvii
1025       0x0015C290    _ZN4DJVU5GCont10NormTraitsINS0_7MapNodeIiiEEE4finiEPvi
1026       0x0015C2A0    _ZN4DJVU5GCont10NormTraitsINS0_7MapNodeIiiEEE4initEPvi
1027       0x0015C2B0    _ZN4DJVU5GCont10NormTraitsINS0_8ListNodeINS_11GUTF8StringEEEE3leaEPvi
1028       0x0015C2C0    _ZN4DJVU5GCont10NormTraitsINS0_8ListNodeINS_11GUTF8StringEEEE4copyEPvPKvii
1029       0x0015C360    _ZN4DJVU5GCont10NormTraitsINS0_8ListNodeINS_11GUTF8StringEEEE4finiEPvi
1030       0x0015C390    _ZN4DJVU5GCont10NormTraitsINS0_8ListNodeINS_11GUTF8StringEEEE4initEPvi
1031       0x0015C3D0    _ZN4DJVU5GCont10NormTraitsINS0_8ListNodeINS_14lt_XMLContentsEEEE3leaEPvi
1032       0x0015C3F0    _ZN4DJVU5GCont10NormTraitsINS0_8ListNodeINS_14lt_XMLContentsEEEE4copyEPvPKvii
1033       0x0015C5C0    _ZN4DJVU5GCont10NormTraitsINS0_8ListNodeINS_14lt_XMLContentsEEEE4finiEPvi
1034       0x0015C680    _ZN4DJVU5GCont10NormTraitsINS0_8ListNodeINS_14lt_XMLContentsEEEE4initEPvi
1035       0x0015C6C0    _ZN4DJVU5GCont10NormTraitsINS0_8ListNodeINS_4GMapINS_11GUTF8StringENS_2GPINS_10lt_XMLTagsEEEEEEEE3leaEPvi
1036       0x0015C6E0    _ZN4DJVU5GCont10NormTraitsINS0_8ListNodeINS_4GMapINS_11GUTF8StringENS_2GPINS_10lt_XMLTagsEEEEEEEE4copyEPvPKvii
1037       0x0015C780    _ZN4DJVU5GCont10NormTraitsINS0_8ListNodeINS_4GMapINS_11GUTF8StringENS_2GPINS_10lt_XMLTagsEEEEEEEE4finiEPvi
1038       0x0015C7B0    _ZN4DJVU5GCont10NormTraitsINS0_8ListNodeINS_4GMapINS_11GUTF8StringENS_2GPINS_10lt_XMLTagsEEEEEEEE4initEPvi
1039       0x0015C800    _ZN4DJVU5GCont10NormTraitsINS0_8ListNodeINS_4GURLEEEE3leaEPvi
1040       0x0015C810    _ZN4DJVU5GCont10NormTraitsINS0_8ListNodeINS_4GURLEEEE4copyEPvPKvii
1041       0x0015C8B0    _ZN4DJVU5GCont10NormTraitsINS0_8ListNodeINS_4GURLEEEE4finiEPvi
1042       0x0015C8E0    _ZN4DJVU5GCont10NormTraitsINS0_8ListNodeINS_4GURLEEEE4initEPvi
1043       0x0015C920    _ZN4DJVU5GCont10NormTraitsINS0_8ListNodeINS_4PBoxEEEE3leaEPvi
1044       0x0015C940    _ZN4DJVU5GCont10NormTraitsINS0_8ListNodeINS_4PBoxEEEE4copyEPvPKvii
1045       0x0015C990    _ZN4DJVU5GCont10NormTraitsINS0_8ListNodeINS_4PBoxEEEE4finiEPvi
1046       0x0015C9A0    _ZN4DJVU5GCont10NormTraitsINS0_8ListNodeINS_4PBoxEEEE4initEPvi
1047       0x0015C9B0    _ZN4DJVU5GCont10NormTraitsINS0_8ListNodeINS_5GRectEEEE3leaEPvi
1048       0x0015C9D0    _ZN4DJVU5GCont10NormTraitsINS0_8ListNodeINS_5GRectEEEE4copyEPvPKvii
1049       0x0015CA20    _ZN4DJVU5GCont10NormTraitsINS0_8ListNodeINS_5GRectEEEE4finiEPvi
1050       0x0015CA30    _ZN4DJVU5GCont10NormTraitsINS0_8ListNodeINS_5GRectEEEE4initEPvi
1051       0x0015CA70    _ZN4DJVU5GCont10NormTraitsINS0_8ListNodeINS_6GPBaseEEEE3leaEPvi
1052       0x0015CA90    _ZN4DJVU5GCont10NormTraitsINS0_8ListNodeINS_6GPBaseEEEE4copyEPvPKvii
1053       0x0015CB30    _ZN4DJVU5GCont10NormTraitsINS0_8ListNodeINS_6GPBaseEEEE4finiEPvi
1054       0x0015CB60    _ZN4DJVU5GCont10NormTraitsINS0_8ListNodeINS_6GPBaseEEEE4initEPvi
1055       0x0015CBA0    _ZN4DJVU5GCont10NormTraitsINS0_8ListNodeINS_7DjVuTXT4ZoneEEEE3leaEPvi
1056       0x0015CBB0    _ZN4DJVU5GCont10NormTraitsINS0_8ListNodeINS_7DjVuTXT4ZoneEEEE4copyEPvPKvii
1057       0x0015CCF0    _ZN4DJVU5GCont10NormTraitsINS0_8ListNodeINS_7DjVuTXT4ZoneEEEE4finiEPvi
1058       0x0015CD20    _ZN4DJVU5GCont10NormTraitsINS0_8ListNodeINS_7DjVuTXT4ZoneEEEE4initEPvi
1059       0x0015CD60    _ZN4DJVU5GCont10NormTraitsINS0_8ListNodeIPKvEEE3leaEPvi
1060       0x0015CD80    _ZN4DJVU5GCont10NormTraitsINS0_8ListNodeIPKvEEE4copyEPvS4_ii
1061       0x0015CDC0    _ZN4DJVU5GCont10NormTraitsINS0_8ListNodeIPKvEEE4finiEPvi
1062       0x0015CDD0    _ZN4DJVU5GCont10NormTraitsINS0_8ListNodeIPKvEEE4initEPvi
1063       0x0015CDE0    _ZN4DJVU5GCont10NormTraitsINS0_8ListNodeIPNS_7DjVuTXT4ZoneEEEE3leaEPvi
1064       0x0015CE00    _ZN4DJVU5GCont10NormTraitsINS0_8ListNodeIPNS_7DjVuTXT4ZoneEEEE4copyEPvPKvii
1065       0x0015CE40    _ZN4DJVU5GCont10NormTraitsINS0_8ListNodeIPNS_7DjVuTXT4ZoneEEEE4finiEPvi
1066       0x0015CE50    _ZN4DJVU5GCont10NormTraitsINS0_8ListNodeIPNS_7DjVuTXT4ZoneEEEE4initEPvi
1067       0x0015CE60    _ZN4DJVU5GCont10NormTraitsINS0_8ListNodeIPvEEE3leaES3_i
1068       0x0015CE80    _ZN4DJVU5GCont10NormTraitsINS0_8ListNodeIPvEEE4copyES3_PKvii
1069       0x0015CEC0    _ZN4DJVU5GCont10NormTraitsINS0_8ListNodeIPvEEE4finiES3_i
1070       0x0015CED0    _ZN4DJVU5GCont10NormTraitsINS0_8ListNodeIPvEEE4initES3_i
1071       0x0015CEE0    _ZN4DJVU5GCont10NormTraitsINS0_8ListNodeIiEEE3leaEPvi
1072       0x0015CF00    _ZN4DJVU5GCont10NormTraitsINS0_8ListNodeIiEEE4copyEPvPKvii
1073       0x0015CF40    _ZN4DJVU5GCont10NormTraitsINS0_8ListNodeIiEEE4finiEPvi
1074       0x0015CF50    _ZN4DJVU5GCont10NormTraitsINS0_8ListNodeIiEEE4initEPvi
1075       0x0015CF60    _ZN4DJVU5GCont10NormTraitsINS_11GUTF8StringEE3leaEPvi
1076       0x0015CF70    _ZN4DJVU5GCont10NormTraitsINS_11GUTF8StringEE4copyEPvPKvii
1077       0x0015CFF0    _ZN4DJVU5GCont10NormTraitsINS_11GUTF8StringEE4finiEPvi
1078       0x0015D020    _ZN4DJVU5GCont10NormTraitsINS_11GUTF8StringEE4initEPvi
1079       0x0015D060    _ZN4DJVU5GCont10NormTraitsINS_5GListIPKvEEE3leaEPvi
1080       0x0015D070    _ZN4DJVU5GCont10NormTraitsINS_5GListIPKvEEE4copyEPvS4_ii
1081       0x0015D0F0    _ZN4DJVU5GCont10NormTraitsINS_5GListIPKvEEE4finiEPvi
1082       0x0015D120    _ZN4DJVU5GCont10NormTraitsINS_5GListIPKvEEE4initEPvi
1083       0x0015D180    _ZN4DJVU5GCont10NormTraitsINS_6GPBaseEE3leaEPvi
1084       0x0015D190    _ZN4DJVU5GCont10NormTraitsINS_6GPBaseEE4copyEPvPKvii
1085       0x0015D210    _ZN4DJVU5GCont10NormTraitsINS_6GPBaseEE4finiEPvi
1086       0x0015D240    _ZN4DJVU5GCont10NormTraitsINS_6GPBaseEE4initEPvi
1087       0x0015D280    _ZN4DJVU5GCont10NormTraitsINS_8JB2ShapeEE3leaEPvi
1088       0x0015D2A0    _ZN4DJVU5GCont10NormTraitsINS_8JB2ShapeEE4copyEPvPKvii
1089       0x0015D340    _ZN4DJVU5GCont10NormTraitsINS_8JB2ShapeEE4finiEPvi
1090       0x0015D370    _ZN4DJVU5GCont10NormTraitsINS_8JB2ShapeEE4initEPvi
1091       0x0015D3B0    _ZN4DJVU5GCont10NormTraitsIiE3leaEPvi
1092       0x0015D3C0    _ZN4DJVU5GCont10NormTraitsIiE4copyEPvPKvii
1093       0x0015D3F0    _ZN4DJVU5GCont10NormTraitsIiE4finiEPvi
1094       0x0015D400    _ZN4DJVU5GCont10NormTraitsIiE4initEPvi
1095       0x0015D410    _ZN4DJVU5GCont10TrivTraitsILi16EE3leaEPvi
1096       0x0015D420    _ZN4DJVU5GCont10TrivTraitsILi16EE4copyEPvPKvii
1097       0x0015D450    _ZN4DJVU5GCont10TrivTraitsILi16EE4finiEPvi
1098       0x0015D460    _ZN4DJVU5GCont10TrivTraitsILi16EE4initEPvi
1099       0x0015D470    _ZN4DJVU5GCont10TrivTraitsILi1EE3leaEPvi
1100       0x0015D480    _ZN4DJVU5GCont10TrivTraitsILi1EE4copyEPvPKvii
1101       0x0015D4B0    _ZN4DJVU5GCont10TrivTraitsILi1EE4finiEPvi
1102       0x0015D4C0    _ZN4DJVU5GCont10TrivTraitsILi1EE4initEPvi
1103       0x0015D4D0    _ZN4DJVU5GCont10TrivTraitsILi2EE3leaEPvi
1104       0x0015D4E0    _ZN4DJVU5GCont10TrivTraitsILi2EE4copyEPvPKvii
1105       0x0015D510    _ZN4DJVU5GCont10TrivTraitsILi2EE4finiEPvi
1106       0x0015D520    _ZN4DJVU5GCont10TrivTraitsILi2EE4initEPvi
1107       0x0015D530    _ZN4DJVU5GCont10TrivTraitsILi3EE3leaEPvi
1108       0x0015D540    _ZN4DJVU5GCont10TrivTraitsILi3EE4copyEPvPKvii
1109       0x0015D570    _ZN4DJVU5GCont10TrivTraitsILi3EE4finiEPvi
1110       0x0015D580    _ZN4DJVU5GCont10TrivTraitsILi3EE4initEPvi
1111       0x0015D590    _ZN4DJVU5GCont10TrivTraitsILi4EE3leaEPvi
1112       0x0015D5A0    _ZN4DJVU5GCont10TrivTraitsILi4EE4copyEPvPKvii
1113       0x0015D5D0    _ZN4DJVU5GCont10TrivTraitsILi4EE4finiEPvi
1114       0x0015D5E0    _ZN4DJVU5GCont10TrivTraitsILi4EE4initEPvi
1115       0x0015D5F0    _ZN4DJVU5GCont10TrivTraitsILi8EE3leaEPvi
1116       0x0015D600    _ZN4DJVU5GCont10TrivTraitsILi8EE4copyEPvPKvii
1117       0x0015D630    _ZN4DJVU5GCont10TrivTraitsILi8EE4finiEPvi
1118       0x0015D640    _ZN4DJVU5GCont10TrivTraitsILi8EE4initEPvi
1119       0x0015D650    _ZN4DJVU5GRect5clearEv
1120       0x00013FC0    _ZN4DJVU5GRect5scaleEf
1121       0x00014020    _ZN4DJVU5GRect5scaleEff
1122       0x00013D40    _ZN4DJVU5GRect7inflateEii
1123       0x00013E80    _ZN4DJVU5GRect8recthullERKS0_S2_
1124       0x00013E00    _ZN4DJVU5GRect9intersectERKS0_S2_
1125       0x00013DA0    _ZN4DJVU5GRect9translateEii
1126       0x0015D680    _ZN4DJVU5GRectC1Eiijj
1127       0x0015D6A0    _ZN4DJVU5GRectC1Ev
1128       0x0015D6D0    _ZN4DJVU5GRectC2Eiijj
1129       0x0015D6F0    _ZN4DJVU5GRectC2Ev
1130       0x0015D720    _ZN4DJVU6DArrayINS_11GUTF8StringEE4copyEPviiPKvii
1131       0x0015D790    _ZN4DJVU6DArrayINS_11GUTF8StringEE5init1EPvii
1132       0x0015D7D0    _ZN4DJVU6DArrayINS_11GUTF8StringEE5init2EPviiPKvii
1133       0x0015D850    _ZN4DJVU6DArrayINS_11GUTF8StringEE6insertEPviiPKvi
1134       0x0015D930    _ZN4DJVU6DArrayINS_11GUTF8StringEE7destroyEPvii
1135       0x0015D970    _ZN4DJVU6DArrayINS_11GUTF8StringEED0Ev
1136       0x0015D9A0    _ZN4DJVU6DArrayINS_11GUTF8StringEED1Ev
1137       0x000150F0    _ZN4DJVU6GPBase6assignEPNS_9GPEnabledE
1138       0x00015060    _ZN4DJVU6GPBase6assignERKS0_
1139       0x0015D9C0    _ZN4DJVU6GPBaseC1EPNS_9GPEnabledE
1140       0x0015D9E0    _ZN4DJVU6GPBaseC1ERKS0_
1141       0x0015DA10    _ZN4DJVU6GPBaseC1Ev
1142       0x0015DA20    _ZN4DJVU6GPBaseC2EPNS_9GPEnabledE
1143       0x0015DA40    _ZN4DJVU6GPBaseC2ERKS0_
1144       0x0015DA70    _ZN4DJVU6GPBaseC2Ev
1145       0x0015DA80    _ZN4DJVU6GPBaseD1Ev
1146       0x0015DAA0    _ZN4DJVU6GPBaseD2Ev
1147       0x0015DAC0    _ZN4DJVU6GPBaseaSERKS0_
1148       0x001743B4    _ZN4DJVU6GPixel3REDE
1149       0x001743BA    _ZN4DJVU6GPixel4BLUEE
1150       0x001743BD    _ZN4DJVU6GPixel5BLACKE
1151       0x001743B7    _ZN4DJVU6GPixel5GREENE
1152       0x001743C0    _ZN4DJVU6GPixel5WHITEE
1153       0x0015DAE0    _ZN4DJVU6TArrayIcE5init1EPvii
1154       0x0015DAF0    _ZN4DJVU6TArrayIcE5init2EPviiPKvii
1155       0x0015DB50    _ZN4DJVU6TArrayIcE6insertEPviiPKvi
1156       0x0015DBA0    _ZN4DJVU6TArrayIcE7destroyEPvii
1157       0x0015DBB0    _ZN4DJVU6TArrayIcEC1Ev
1158       0x0015DCE0    _ZN4DJVU6TArrayIcED0Ev
1159       0x0015DD10    _ZN4DJVU6TArrayIcED1Ev
1160       0x00039B80    _ZN4DJVU6_BSort10radixsort8Ev
1161       0x000390B0    _ZN4DJVU6_BSort11quicksort3dEiii
1162       0x00037E50    _ZN4DJVU6_BSort11quicksort3rEiii
1163       0x00039C90    _ZN4DJVU6_BSort11radixsort16Ev
1164       0x00039F20    _ZN4DJVU6_BSort3runERi
1165       0x0015DD30    _ZN4DJVU6_BSort7pivot3dEPhii
1166       0x0015E620    _ZN4DJVU6_BSort7pivot3rEPiii
1167       0x00037C60    _ZN4DJVU6_BSort8ranksortEiii
1168       0x00037A20    _ZN4DJVU6_BSortC1EPhi
1169       0x00037A20    _ZN4DJVU6_BSortC2EPhi
1170       0x00037BC0    _ZN4DJVU6_BSortD1Ev
1171       0x00037BC0    _ZN4DJVU6_BSortD2Ev
1172       0x000DB400    _ZN4DJVU7DjVmDir11delete_fileERKNS_11GUTF8StringE
1173       0x000DA1B0    _ZN4DJVU7DjVmDir11insert_fileERKNS_2GPINS0_4FileEEEi
1174       0x000DBB30    _ZN4DJVU7DjVmDir13set_file_nameERKNS_11GUTF8StringES3_
1175       0x000DC300    _ZN4DJVU7DjVmDir14set_file_titleERKNS_11GUTF8StringES3_
1176       0x000DC8B0    _ZN4DJVU7DjVmDir18resolve_duplicatesEb
1177       0x000D5DD0    _ZN4DJVU7DjVmDir4File13set_load_nameERKNS_11GUTF8StringE
1178       0x000D6050    _ZN4DJVU7DjVmDir4File13set_save_nameERKNS_11GUTF8StringE
1179       0x000D59F0    _ZN4DJVU7DjVmDir4File15check_save_nameEb
1180       0x000D6560    _ZN4DJVU7DjVmDir4File6createERKNS_11GUTF8StringES4_S4_NS1_9FILE_TYPEE
1181       0x0015EDC0    _ZN4DJVU7DjVmDir4File6createEv
1182       0x0015EE70    _ZN4DJVU7DjVmDir4File9set_titleERKNS_11GUTF8StringE
1183       0x000D64F0    _ZN4DJVU7DjVmDir4FileC1Ev
1184       0x000D64F0    _ZN4DJVU7DjVmDir4FileC2Ev
1185       0x0015EE90    _ZN4DJVU7DjVmDir4FileD0Ev
1186       0x0015F000    _ZN4DJVU7DjVmDir4FileD1Ev
1187       0x0015F160    _ZN4DJVU7DjVmDir6createEv
1188       0x000D67F0    _ZN4DJVU7DjVmDir6decodeERKNS_2GPINS_10ByteStreamEEE
1189       0x0017F778    _ZN4DJVU7DjVmDir7versionE
1190       0x0015F210    _ZN4DJVU7DjVmDirC1Ev
1191       0x0015F460    _ZN4DJVU7DjVmDirC2Ev
1192       0x0015F6B0    _ZN4DJVU7DjVmDirD0Ev
1193       0x0015F880    _ZN4DJVU7DjVmDirD1Ev
1194       0x000E1230    _ZN4DJVU7DjVmDoc11delete_fileERKNS_11GUTF8StringE
1195       0x000E0A30    _ZN4DJVU7DjVmDoc11insert_fileERKNS_2GPINS_7DjVmDir4FileEEENS1_INS_8DataPoolEEEi
1196       0x000E1110    _ZN4DJVU7DjVmDoc11insert_fileERKNS_2GPINS_8DataPoolEEENS_7DjVmDir4File9FILE_TYPEERKNS_11GUTF8StringESB_SB_i
1197       0x000E0EF0    _ZN4DJVU7DjVmDoc11insert_fileERNS_10ByteStreamENS_7DjVmDir4File9FILE_TYPEERKNS_11GUTF8StringES8_S8_i
1198       0x000E4B20    _ZN4DJVU7DjVmDoc11write_indexERKNS_2GPINS_10ByteStreamEEE
1199       0x0015FA40    _ZN4DJVU7DjVmDoc12get_djvm_dirEv
1200       0x000E14D0    _ZN4DJVU7DjVmDoc12set_djvm_navENS_2GPINS_7DjVmNavEEE
1201       0x000E0890    _ZN4DJVU7DjVmDoc4initEv
1202       0x000E3A90    _ZN4DJVU7DjVmDoc4readERKNS_2GPINS_8DataPoolEEE
1203       0x000E42F0    _ZN4DJVU7DjVmDoc4readERKNS_4GURLE
1204       0x000E41C0    _ZN4DJVU7DjVmDoc4readERNS_10ByteStreamE
1205       0x000E39C0    _ZN4DJVU7DjVmDoc5writeERKNS_2GPINS_10ByteStreamEEE
1206       0x000E1B80    _ZN4DJVU7DjVmDoc5writeERKNS_2GPINS_10ByteStreamEEERKNS_4GMapINS_11GUTF8StringEPvEE
1207       0x000E0940    _ZN4DJVU7DjVmDoc6createEv
1208       0x000E5A10    _ZN4DJVU7DjVmDoc6expandERKNS_4GURLERKNS_11GUTF8StringE
1209       0x000E0790    _ZN4DJVU7DjVmDocC1Ev
1210       0x000E0790    _ZN4DJVU7DjVmDocC2Ev
1211       0x0015FA70    _ZN4DJVU7DjVmDocD0Ev
1212       0x0015FBA0    _ZN4DJVU7DjVmDocD1Ev
1213       0x000E8220    _ZN4DJVU7DjVmNav11getBookMarkERNS_2GPINS0_12DjVuBookMarkEEEi
1214       0x000E7B70    _ZN4DJVU7DjVmNav12DjVuBookMark4dumpERKNS_2GPINS_10ByteStreamEEE
1215       0x000E7760    _ZN4DJVU7DjVmNav12DjVuBookMark6createEtRKNS_11GUTF8StringES4_
1216       0x000E7840    _ZN4DJVU7DjVmNav12DjVuBookMark6createEv
1217       0x000E7930    _ZN4DJVU7DjVmNav12DjVuBookMark6decodeERKNS_2GPINS_10ByteStreamEEE
1218       0x000E7A00    _ZN4DJVU7DjVmNav12DjVuBookMark6encodeERKNS_2GPINS_10ByteStreamEEE
1219       0x000E7720    _ZN4DJVU7DjVmNav12DjVuBookMarkC1Ev
1220       0x000E7720    _ZN4DJVU7DjVmNav12DjVuBookMarkC2Ev
1221       0x0015FCC0    _ZN4DJVU7DjVmNav12DjVuBookMarkD0Ev
1222       0x0015FDA0    _ZN4DJVU7DjVmNav12DjVuBookMarkD1Ev
1223       0x000E85E0    _ZN4DJVU7DjVmNav15isValidBookmarkEv
1224       0x000E81B0    _ZN4DJVU7DjVmNav16getBookMarkCountEv
1225       0x000E82B0    _ZN4DJVU7DjVmNav4dumpERKNS_2GPINS_10ByteStreamEEE
1226       0x000E81C0    _ZN4DJVU7DjVmNav6appendERKNS_2GPINS0_12DjVuBookMarkEEE
1227       0x000E7880    _ZN4DJVU7DjVmNav6createEv
1228       0x000E7C20    _ZN4DJVU7DjVmNav6decodeERKNS_2GPINS_10ByteStreamEEE
1229       0x000E7E70    _ZN4DJVU7DjVmNav6encodeERKNS_2GPINS_10ByteStreamEEE
1230       0x000E8590    _ZN4DJVU7DjVmNav8get_treeEiPii
1231       0x0015FE80    _ZN4DJVU7DjVmNavC1Ev
1232       0x0015FF70    _ZN4DJVU7DjVmNavC2Ev
1233       0x00160060    _ZN4DJVU7DjVmNavD0Ev
1234       0x00160140    _ZN4DJVU7DjVmNavD1Ev
1235       0x0008EF30    _ZN4DJVU7DjVuANT11decode_compEcc
1236       0x0008F0D0    _ZN4DJVU7DjVuANT12get_bg_colorERNS_8GLParserE
1237       0x0008FDE0    _ZN4DJVU7DjVuANT12get_metadataERNS_8GLParserE
1238       0x00092430    _ZN4DJVU7DjVuANT13del_all_itemsEPKcRNS_8GLParserE
1239       0x0008F940    _ZN4DJVU7DjVuANT13get_hor_alignERNS_8GLParserE
1240       0x00090390    _ZN4DJVU7DjVuANT13get_map_areasERNS_8GLParserE
1241       0x0008FB90    _ZN4DJVU7DjVuANT13get_ver_alignERNS_8GLParserE
1242       0x00093570    _ZN4DJVU7DjVuANT5mergeERNS_10ByteStreamE
1243       0x00160220    _ZN4DJVU7DjVuANT6createEv
1244       0x000922C0    _ZN4DJVU7DjVuANT6decodeERNS_10ByteStreamE
1245       0x00091FA0    _ZN4DJVU7DjVuANT6decodeERNS_8GLParserE
1246       0x000932F0    _ZN4DJVU7DjVuANT6encodeERNS_10ByteStreamE
1247       0x0008F6C0    _ZN4DJVU7DjVuANT8get_modeERNS_8GLParserE
1248       0x0008F2E0    _ZN4DJVU7DjVuANT8get_zoomERNS_8GLParserE
1249       0x0008EDD0    _ZN4DJVU7DjVuANT8read_rawERNS_10ByteStreamE
1250       0x0008EFB0    _ZN4DJVU7DjVuANT9cvt_colorEPKcm
1251       0x0008DDD0    _ZN4DJVU7DjVuANTC1Ev
1252       0x0008DDD0    _ZN4DJVU7DjVuANTC2Ev
1253       0x00089600    _ZN4DJVU7DjVuANTD0Ev
1254       0x00089520    _ZN4DJVU7DjVuANTD1Ev
1255       0x00089520    _ZN4DJVU7DjVuANTD2Ev
1256       0x0017C198    _ZN4DJVU7DjVuTXT11end_of_lineE
1257       0x0017C19B    _ZN4DJVU7DjVuTXT13end_of_columnE
1258       0x0017C19A    _ZN4DJVU7DjVuTXT13end_of_regionE
1259       0x0009FD70    _ZN4DJVU7DjVuTXT14normalize_textEv
1260       0x0017C199    _ZN4DJVU7DjVuTXT16end_of_paragraphE
1261       0x0009E980    _ZN4DJVU7DjVuTXT4Zone12append_childEv
1262       0x0009F650    _ZN4DJVU7DjVuTXT4Zone6decodeERKNS_2GPINS_10ByteStreamEEEiPKS1_S8_
1263       0x0017C194    _ZN4DJVU7DjVuTXT4Zone7versionE
1264       0x0009F000    _ZN4DJVU7DjVuTXT4Zone8normtextEPKcRNS_11GUTF8StringE
1265       0x0009EB60    _ZN4DJVU7DjVuTXT4Zone9cleartextEv
1266       0x0009E910    _ZN4DJVU7DjVuTXT4ZoneC1Ev
1267       0x0009E910    _ZN4DJVU7DjVuTXT4ZoneC2Ev
1268       0x001602D0    _ZN4DJVU7DjVuTXT6createEv
1269       0x000A0140    _ZN4DJVU7DjVuTXT6decodeERKNS_2GPINS_10ByteStreamEEE
1270       0x00160380    _ZN4DJVU7DjVuTXTC1Ev
1271       0x00160430    _ZN4DJVU7DjVuTXTC2Ev
1272       0x001604E0    _ZN4DJVU7DjVuTXTD0Ev
1273       0x001605C0    _ZN4DJVU7DjVuTXTD1Ev
1274       0x00190D70    _ZN4DJVU7FCPools10global_ptrE
1275       0x0005F9F0    _ZN4DJVU7FCPools5cleanEv
1276       0x0005FE70    _ZN4DJVU7FCPools8add_poolERKNS_4GURLENS_2GPINS_8DataPoolEEE
1277       0x00060690    _ZN4DJVU7FCPools8del_poolERKNS_4GURLENS_2GPINS_8DataPoolEEE
1278       0x000603D0    _ZN4DJVU7FCPools8get_poolERKNS_4GURLEii
1279       0x00065B60    _ZN4DJVU7FCPools9load_fileERKNS_4GURLE
1280       0x000188B0    _ZN4DJVU7GBitmap10ZeroBufferC1Ej
1281       0x000188B0    _ZN4DJVU7GBitmap10ZeroBufferC2Ej
1282       0x001606A0    _ZN4DJVU7GBitmap10ZeroBufferD0Ev
1283       0x00160750    _ZN4DJVU7GBitmap10ZeroBufferD1Ev
1284       0x001607F0    _ZN4DJVU7GBitmap10append_runERPhi
1285       0x00016FC0    _ZN4DJVU7GBitmap10donate_rleEPhjii
1286       0x00019170    _ZN4DJVU7GBitmap10uncompressEv
1287       0x00171008    _ZN4DJVU7GBitmap10zerobufferE
1288       0x0001CC40    _ZN4DJVU7GBitmap11append_lineERPhPKhib
1289       0x00160850    _ZN4DJVU7GBitmap11borrow_dataERhii
1290       0x00016F50    _ZN4DJVU7GBitmap11donate_dataEPhii
1291       0x0001A380    _ZN4DJVU7GBitmap12change_graysEi
1292       0x00017100    _ZN4DJVU7GBitmap12read_integerERcRNS_10ByteStreamE
1293       0x000177F0    _ZN4DJVU7GBitmap12read_pbm_rawERNS_10ByteStreamE
1294       0x000178B0    _ZN4DJVU7GBitmap12read_pgm_rawERNS_10ByteStreamEi
1295       0x00017C00    _ZN4DJVU7GBitmap12read_rle_rawERNS_10ByteStreamE
1296       0x000172B0    _ZN4DJVU7GBitmap13read_pbm_textERNS_10ByteStreamE
1297       0x00017480    _ZN4DJVU7GBitmap13read_pgm_textERNS_10ByteStreamEi
1298       0x0001A270    _ZN4DJVU7GBitmap14binarize_graysEi
1299       0x00018030    _ZN4DJVU7GBitmap14rle_get_bitmapEiRPKhPhb
1300       0x0001BE90    _ZN4DJVU7GBitmap15append_long_runERPhi
1301       0x00160890    _ZN4DJVU7GBitmap15euclidian_ratioEiiRiS1_
1302       0x00019550    _ZN4DJVU7GBitmap4blitEPKS0_ii
1303       0x00019B00    _ZN4DJVU7GBitmap4blitEPKS0_iii
1304       0x0001BD70    _ZN4DJVU7GBitmap4fillEh
1305       0x0001A710    _ZN4DJVU7GBitmap4initERKS0_RKNS_5GRectEi
1306       0x0001B750    _ZN4DJVU7GBitmap4initERKS0_i
1307       0x0001AED0    _ZN4DJVU7GBitmap4initERNS_10ByteStreamEi
1308       0x0001A560    _ZN4DJVU7GBitmap4initEiii
1309       0x000170D0    _ZN4DJVU7GBitmap5shareEv
1310       0x001608E0    _ZN4DJVU7GBitmap6createERKS0_
1311       0x00160990    _ZN4DJVU7GBitmap6createERKS0_RKNS_5GRectEi
1312       0x00160A50    _ZN4DJVU7GBitmap6createERKS0_i
1313       0x00160B10    _ZN4DJVU7GBitmap6createERNS_10ByteStreamEi
1314       0x00160BD0    _ZN4DJVU7GBitmap6createEiii
1315       0x00160C90    _ZN4DJVU7GBitmap6createEv
1316       0x00018C00    _ZN4DJVU7GBitmap6decodeEPh
1317       0x0001CD20    _ZN4DJVU7GBitmap6rotateEi
1318       0x000189C0    _ZN4DJVU7GBitmap6zeroesEi
1319       0x00016D40    _ZN4DJVU7GBitmap7destroyEv
1320       0x0001C480    _ZN4DJVU7GBitmap7get_rleERj
1321       0x0001C2B0    _ZN4DJVU7GBitmap8compressEv
1322       0x00017F20    _ZN4DJVU7GBitmap8makerowsEiiPhPS1_
1323       0x00160D40    _ZN4DJVU7GBitmap8read_runERPKh
1324       0x00160D70    _ZN4DJVU7GBitmap8read_runERPh
1325       0x0001C4C0    _ZN4DJVU7GBitmap8save_pbmERNS_10ByteStreamEi
1326       0x00019240    _ZN4DJVU7GBitmap8save_pgmERNS_10ByteStreamEi
1327       0x0001C8D0    _ZN4DJVU7GBitmap8save_rleERNS_10ByteStreamE
1328       0x0017100C    _ZN4DJVU7GBitmap8zerosizeE
1329       0x0001B530    _ZN4DJVU7GBitmap9minborderEi
1330       0x0001A110    _ZN4DJVU7GBitmap9set_graysEi
1331       0x00017030    _ZN4DJVU7GBitmap9take_dataERj
1332       0x0001BB50    _ZN4DJVU7GBitmapC1ERKS0_
1333       0x0001AA90    _ZN4DJVU7GBitmapC1ERKS0_RKNS_5GRectEi
1334       0x0001B930    _ZN4DJVU7GBitmapC1ERKS0_i
1335       0x0001B310    _ZN4DJVU7GBitmapC1ERNS_10ByteStreamEi
1336       0x0001ACB0    _ZN4DJVU7GBitmapC1Eiii
1337       0x00016DB0    _ZN4DJVU7GBitmapC1Ev
1338       0x0001BB50    _ZN4DJVU7GBitmapC2ERKS0_
1339       0x0001AA90    _ZN4DJVU7GBitmapC2ERKS0_RKNS_5GRectEi
1340       0x0001B930    _ZN4DJVU7GBitmapC2ERKS0_i
1341       0x0001B310    _ZN4DJVU7GBitmapC2ERNS_10ByteStreamEi
1342       0x0001ACB0    _ZN4DJVU7GBitmapC2Eiii
1343       0x00016DB0    _ZN4DJVU7GBitmapC2Ev
1344       0x000165E0    _ZN4DJVU7GBitmapD0Ev
1345       0x00016480    _ZN4DJVU7GBitmapD1Ev
1346       0x00016480    _ZN4DJVU7GBitmapD2Ev
1347       0x00160DA0    _ZN4DJVU7GBitmapaSERKS0_
1348       0x00160DD0    _ZN4DJVU7GBitmapixEi
1349       0x00020AF0    _ZN4DJVU7GPixmap10downsampleEPKS0_iPKNS_5GRectE
1350       0x000236E0    _ZN4DJVU7GPixmap10upsample23EPKS0_PKNS_5GRectE
1351       0x00160E30    _ZN4DJVU7GPixmap11borrow_dataERNS_6GPixelEii
1352       0x0001EDF0    _ZN4DJVU7GPixmap11donate_dataEPNS_6GPixelEii
1353       0x00021320    _ZN4DJVU7GPixmap12downsample43EPKS0_PKNS_5GRectE
1354       0x00020060    _ZN4DJVU7GPixmap13color_correctEd
1355       0x00020130    _ZN4DJVU7GPixmap13color_correctEdPNS_6GPixelEi
1356       0x00020640    _ZN4DJVU7GPixmap18ordered_32k_ditherEii
1357       0x000201C0    _ZN4DJVU7GPixmap18ordered_666_ditherEii
1358       0x00025660    _ZN4DJVU7GPixmap4blitEPKNS_7GBitmapEiiPKNS_6GPixelE
1359       0x00025A60    _ZN4DJVU7GPixmap4blitEPKNS_7GBitmapEiiPKS0_
1360       0x0001E550    _ZN4DJVU7GPixmap4initERKNS_7GBitmapEPKNS_6GPixelE
1361       0x0001E780    _ZN4DJVU7GPixmap4initERKNS_7GBitmapERKNS_5GRectEPKNS_6GPixelE
1362       0x0001EA10    _ZN4DJVU7GPixmap4initERKS0_
1363       0x0001EBD0    _ZN4DJVU7GPixmap4initERKS0_RKNS_5GRectE
1364       0x0001EE60    _ZN4DJVU7GPixmap4initERNS_10ByteStreamE
1365       0x0001DD60    _ZN4DJVU7GPixmap4initEiiPKNS_6GPixelE
1366       0x00025FC0    _ZN4DJVU7GPixmap5blendEPKNS_7GBitmapEiiPKS0_
1367       0x00160E70    _ZN4DJVU7GPixmap6createERKNS_7GBitmapE
1368       0x00160F20    _ZN4DJVU7GPixmap6createERKNS_7GBitmapERKNS_5GRectE
1369       0x00160FE0    _ZN4DJVU7GPixmap6createERKS0_
1370       0x00161090    _ZN4DJVU7GPixmap6createERKS0_RKNS_5GRectE
1371       0x00161150    _ZN4DJVU7GPixmap6createERNS_10ByteStreamE
1372       0x00161200    _ZN4DJVU7GPixmap6createEiiPKNS_6GPixelE
1373       0x001612C0    _ZN4DJVU7GPixmap6createEv
1374       0x000269F0    _ZN4DJVU7GPixmap6rotateEi
1375       0x0001DCF0    _ZN4DJVU7GPixmap7destroyEv
1376       0x00026500    _ZN4DJVU7GPixmap7stencilEPKNS_7GBitmapEPKS0_iPKNS_5GRectEd
1377       0x00021030    _ZN4DJVU7GPixmap8upsampleEPKS0_iPKNS_5GRectE
1378       0x00025310    _ZN4DJVU7GPixmap9attenuateEPKNS_7GBitmapEii
1379       0x00161300    _ZN4DJVU7GPixmap9set_graysEi
1380       0x0001EE40    _ZN4DJVU7GPixmap9take_dataERj
1381       0x0001E100    _ZN4DJVU7GPixmapC1ERKNS_7GBitmapE
1382       0x0001E470    _ZN4DJVU7GPixmapC1ERKNS_7GBitmapERKNS_5GRectE
1383       0x0001EAE0    _ZN4DJVU7GPixmapC1ERKS0_
1384       0x0001ED00    _ZN4DJVU7GPixmapC1ERKS0_RKNS_5GRectE
1385       0x0001FC40    _ZN4DJVU7GPixmapC1ERNS_10ByteStreamE
1386       0x0001DDE0    _ZN4DJVU7GPixmapC1EiiPKNS_6GPixelE
1387       0x0001DD20    _ZN4DJVU7GPixmapC1Ev
1388       0x0001E100    _ZN4DJVU7GPixmapC2ERKNS_7GBitmapE
1389       0x0001E470    _ZN4DJVU7GPixmapC2ERKNS_7GBitmapERKNS_5GRectE
1390       0x0001EAE0    _ZN4DJVU7GPixmapC2ERKS0_
1391       0x0001ED00    _ZN4DJVU7GPixmapC2ERKS0_RKNS_5GRectE
1392       0x0001FC40    _ZN4DJVU7GPixmapC2ERNS_10ByteStreamE
1393       0x0001DDE0    _ZN4DJVU7GPixmapC2EiiPKNS_6GPixelE
1394       0x0001DD20    _ZN4DJVU7GPixmapC2Ev
1395       0x0001D530    _ZN4DJVU7GPixmapD0Ev
1396       0x0001D500    _ZN4DJVU7GPixmapD1Ev
1397       0x0001D500    _ZN4DJVU7GPixmapD2Ev
1398       0x00161310    _ZN4DJVU7GPixmapaSERKNS_7GBitmapE
1399       0x00161330    _ZN4DJVU7GPixmapaSERKS0_
1400       0x00161360    _ZN4DJVU7GPixmapixEi
1401       0x000281C0    _ZN4DJVU7GScaler14get_input_rectERKNS_5GRectERS1_
1402       0x00027B00    _ZN4DJVU7GScaler14set_horz_ratioEii
1403       0x00027A40    _ZN4DJVU7GScaler14set_input_sizeEii
1404       0x00027D50    _ZN4DJVU7GScaler14set_vert_ratioEii
1405       0x00027FA0    _ZN4DJVU7GScaler15make_rectanglesERKNS_5GRectERS1_S4_
1406       0x00027AA0    _ZN4DJVU7GScaler15set_output_sizeEii
1407       0x00027900    _ZN4DJVU7GScalerC1Ev
1408       0x00027900    _ZN4DJVU7GScalerC2Ev
1409       0x000270B0    _ZN4DJVU7GScalerD0Ev
1410       0x00026FD0    _ZN4DJVU7GScalerD1Ev
1411       0x00026FD0    _ZN4DJVU7GScalerD2Ev
1412       0x00012D20    _ZN4DJVU7GThread5yieldEv
1413       0x00012C70    _ZN4DJVU7GThread6createEPFvPvES1_
1414       0x00012D40    _ZN4DJVU7GThread7currentEv
1415       0x00012CE0    _ZN4DJVU7GThread9terminateEv
1416       0x00012C10    _ZN4DJVU7GThreadC1Ei
1417       0x00012C10    _ZN4DJVU7GThreadC2Ei
1418       0x00012C40    _ZN4DJVU7GThreadD1Ev
1419       0x00012C40    _ZN4DJVU7GThreadD2Ev
1420       0x000421D0    _ZN4DJVU7JB2Dict16get_bounding_boxEiRNS0_7LibRectE
1421       0x0003EF30    _ZN4DJVU7JB2Dict18set_inherited_dictERKNS_2GPIS0_EE
1422       0x0003EB90    _ZN4DJVU7JB2Dict4initEv
1423       0x000462B0    _ZN4DJVU7JB2Dict6createEv
1424       0x00045110    _ZN4DJVU7JB2Dict6decodeERKNS_2GPINS_10ByteStreamEEEPFNS1_IS0_EEPvES7_
1425       0x00041C10    _ZN4DJVU7JB2Dict7LibRect20compute_bounding_boxERKNS_7GBitmapE
1426       0x00041E70    _ZN4DJVU7JB2Dict8JB2Codec11add_libraryEiRNS_8JB2ShapeE
1427       0x000426E0    _ZN4DJVU7JB2Dict8JB2Codec11code_recordERiRKNS_2GPINS_8JB2ImageEEEPNS_8JB2ShapeEPNS_7JB2BlitE
1428       0x00044290    _ZN4DJVU7JB2Dict8JB2Codec11code_recordERiRKNS_2GPIS0_EEPNS_8JB2ShapeE
1429       0x00042340    _ZN4DJVU7JB2Dict8JB2Codec12init_libraryERS0_
1430       0x00040190    _ZN4DJVU7JB2Dict8JB2Codec14reset_numcoderEv
1431       0x0003DFE0    _ZN4DJVU7JB2Dict8JB2Codec15code_image_sizeERNS_8JB2ImageE
1432       0x0003DF80    _ZN4DJVU7JB2Dict8JB2Codec15code_image_sizeERS0_
1433       0x00041280    _ZN4DJVU7JB2Dict8JB2Codec17update_short_listEi
1434       0x00041640    _ZN4DJVU7JB2Dict8JB2Codec20code_bitmap_directlyERNS_7GBitmapE
1435       0x000412F0    _ZN4DJVU7JB2Dict8JB2Codec22code_relative_locationEPNS_7JB2BlitEii
1436       0x000417A0    _ZN4DJVU7JB2Dict8JB2Codec27code_bitmap_by_cross_codingERNS_7GBitmapERNS_2GPIS2_EEi
1437       0x000406C0    _ZN4DJVU7JB2Dict8JB2Codec6Decode12code_commentERNS_11GUTF8StringE
1438       0x00040B90    _ZN4DJVU7JB2Dict8JB2Codec6Decode15code_image_sizeERNS_8JB2ImageE
1439       0x00040D30    _ZN4DJVU7JB2Dict8JB2Codec6Decode15code_image_sizeERS0_
1440       0x00040EB0    _ZN4DJVU7JB2Dict8JB2Codec6Decode16code_match_indexERiRS0_
1441       0x00161390    _ZN4DJVU7JB2Dict8JB2Codec6Decode16code_record_typeERi
1442       0x00040290    _ZN4DJVU7JB2Dict8JB2Codec6Decode17set_dict_callbackEPFNS_2GPIS0_EEPvES5_
1443       0x0003E8F0    _ZN4DJVU7JB2Dict8JB2Codec6Decode20code_bitmap_directlyERNS_7GBitmapEiiPhS5_S5_
1444       0x00040A40    _ZN4DJVU7JB2Dict8JB2Codec6Decode22code_absolute_locationEPNS_7JB2BlitEii
1445       0x000408E0    _ZN4DJVU7JB2Dict8JB2Codec6Decode23code_absolute_mark_sizeERNS_7GBitmapEi
1446       0x00040780    _ZN4DJVU7JB2Dict8JB2Codec6Decode23code_relative_mark_sizeERNS_7GBitmapEiii
1447       0x00040FD0    _ZN4DJVU7JB2Dict8JB2Codec6Decode26code_inherited_shape_countERS0_
1448       0x0003E710    _ZN4DJVU7JB2Dict8JB2Codec6Decode27code_bitmap_by_cross_codingERNS_7GBitmapES4_iiiiPhS5_S5_S5_S5_
1449       0x00043C00    _ZN4DJVU7JB2Dict8JB2Codec6Decode4codeERKNS_2GPINS_8JB2ImageEEE
1450       0x00044C60    _ZN4DJVU7JB2Dict8JB2Codec6Decode4codeERKNS_2GPIS0_EE
1451       0x0003FC70    _ZN4DJVU7JB2Dict8JB2Codec6Decode4initERKNS_2GPINS_10ByteStreamEEE
1452       0x001613D0    _ZN4DJVU7JB2Dict8JB2Codec6Decode7CodeBitEbRh
1453       0x00040690    _ZN4DJVU7JB2Dict8JB2Codec6Decode7CodeNumEiiRj
1454       0x00161420    _ZN4DJVU7JB2Dict8JB2Codec6Decode8get_diffEiRj
1455       0x00040140    _ZN4DJVU7JB2Dict8JB2Codec6DecodeC1Ev
1456       0x00040140    _ZN4DJVU7JB2Dict8JB2Codec6DecodeC2Ev
1457       0x00161460    _ZN4DJVU7JB2Dict8JB2Codec6DecodeD0Ev
1458       0x00161510    _ZN4DJVU7JB2Dict8JB2Codec6DecodeD1Ev
1459       0x00046880    _ZN4DJVU7JB2Dict8JB2Codec6Encode12code_commentERNS_11GUTF8StringE
1460       0x00047040    _ZN4DJVU7JB2Dict8JB2Codec6Encode15code_image_sizeERNS_8JB2ImageE
1461       0x00046640    _ZN4DJVU7JB2Dict8JB2Codec6Encode15code_image_sizeERS0_
1462       0x000466C0    _ZN4DJVU7JB2Dict8JB2Codec6Encode16code_match_indexERiRS0_
1463       0x001615B0    _ZN4DJVU7JB2Dict8JB2Codec6Encode16code_record_typeERi
1464       0x00047830    _ZN4DJVU7JB2Dict8JB2Codec6Encode20code_bitmap_directlyERNS_7GBitmapEiiPhS5_S5_
1465       0x00048520    _ZN4DJVU7JB2Dict8JB2Codec6Encode20encode_libonly_shapeERKNS_2GPINS_8JB2ImageEEEi
1466       0x000463A0    _ZN4DJVU7JB2Dict8JB2Codec6Encode22code_absolute_locationEPNS_7JB2BlitEii
1467       0x00047440    _ZN4DJVU7JB2Dict8JB2Codec6Encode23code_absolute_mark_sizeERNS_7GBitmapEi
1468       0x00047250    _ZN4DJVU7JB2Dict8JB2Codec6Encode23code_relative_mark_sizeERNS_7GBitmapEiii
1469       0x00046F30    _ZN4DJVU7JB2Dict8JB2Codec6Encode26code_inherited_shape_countERS0_
1470       0x00047620    _ZN4DJVU7JB2Dict8JB2Codec6Encode27code_bitmap_by_cross_codingERNS_7GBitmapES4_iiiiPhS5_S5_S5_S5_
1471       0x000488E0    _ZN4DJVU7JB2Dict8JB2Codec6Encode4codeERKNS_2GPINS_8JB2ImageEEE
1472       0x000481F0    _ZN4DJVU7JB2Dict8JB2Codec6Encode4codeERKNS_2GPIS0_EE
1473       0x00047FE0    _ZN4DJVU7JB2Dict8JB2Codec6Encode4initERKNS_2GPINS_10ByteStreamEEE
1474       0x001616B0    _ZN4DJVU7JB2Dict8JB2Codec6Encode7CodeBitEbRh
1475       0x000480F0    _ZN4DJVU7JB2Dict8JB2Codec6Encode7CodeNumEiiiRj
1476       0x00161740    _ZN4DJVU7JB2Dict8JB2Codec6Encode8get_diffEiRj
1477       0x00047FA0    _ZN4DJVU7JB2Dict8JB2Codec6EncodeC1Ev
1478       0x00047FA0    _ZN4DJVU7JB2Dict8JB2Codec6EncodeC2Ev
1479       0x00161840    _ZN4DJVU7JB2Dict8JB2Codec6EncodeD0Ev
1480       0x001618F0    _ZN4DJVU7JB2Dict8JB2Codec6EncodeD1Ev
1481       0x000402B0    _ZN4DJVU7JB2Dict8JB2Codec7CodeNumEiiPji
1482       0x0003FD80    _ZN4DJVU7JB2Dict8JB2CodecC1Eb
1483       0x0003FD80    _ZN4DJVU7JB2Dict8JB2CodecC2Eb
1484       0x0003E1D0    _ZN4DJVU7JB2Dict8JB2CodecD0Ev
1485       0x0003E040    _ZN4DJVU7JB2Dict8JB2CodecD1Ev
1486       0x0003E040    _ZN4DJVU7JB2Dict8JB2CodecD2Ev
1487       0x0003F110    _ZN4DJVU7JB2Dict8compressEv
1488       0x0003F350    _ZN4DJVU7JB2Dict9add_shapeERKNS_8JB2ShapeE
1489       0x0003EBD0    _ZN4DJVU7JB2Dict9get_shapeEi
1490       0x0003EA70    _ZN4DJVU7JB2DictC1Ev
1491       0x0003EA70    _ZN4DJVU7JB2DictC2Ev
1492       0x00161990    _ZN4DJVU7JB2DictD0Ev
1493       0x00161B00    _ZN4DJVU7JB2DictD1Ev
1494       0x00161C60    _ZN4DJVU7JB2DictD2Ev
1495       0x0003CE30    _ZN4DJVU7ZPCodec10decode_subERhj
1496       0x0003D850    _ZN4DJVU7ZPCodec10encode_lpsERhj
1497       0x0003D7D0    _ZN4DJVU7ZPCodec10encode_mpsERhj
1498       0x0003CF90    _ZN4DJVU7ZPCodec17decode_sub_simpleEij
1499       0x0003D9D0    _ZN4DJVU7ZPCodec17encode_lps_simpleEj
1500       0x0003D980    _ZN4DJVU7ZPCodec17encode_mps_simpleEj
1501       0x0003D0C0    _ZN4DJVU7ZPCodec18decode_sub_nolearnEij
1502       0x0003DB40    _ZN4DJVU7ZPCodec18encode_lps_nolearnEj
1503       0x0003DAE0    _ZN4DJVU7ZPCodec18encode_mps_nolearnEj
1504       0x0003DCB0    _ZN4DJVU7ZPCodec5stateEf
1505       0x0003D3D0    _ZN4DJVU7ZPCodec5zemitEi
1506       0x0003C990    _ZN4DJVU7ZPCodec6Decode4initEv
1507       0x0003CA30    _ZN4DJVU7ZPCodec6DecodeC1ENS_2GPINS_10ByteStreamEEEb
1508       0x0003CA30    _ZN4DJVU7ZPCodec6DecodeC2ENS_2GPINS_10ByteStreamEEEb
1509       0x0003C490    _ZN4DJVU7ZPCodec6DecodeD0Ev
1510       0x0003C3F0    _ZN4DJVU7ZPCodec6DecodeD1Ev
1511       0x0003C3F0    _ZN4DJVU7ZPCodec6DecodeD2Ev
1512       0x0003D1F0    _ZN4DJVU7ZPCodec6Encode4initEv
1513       0x0003C580    _ZN4DJVU7ZPCodec6EncodeC1ENS_2GPINS_10ByteStreamEEEb
1514       0x0003C580    _ZN4DJVU7ZPCodec6EncodeC2ENS_2GPINS_10ByteStreamEEEb
1515       0x0003D6E0    _ZN4DJVU7ZPCodec6EncodeD0Ev
1516       0x0003D600    _ZN4DJVU7ZPCodec6EncodeD1Ev
1517       0x0003D600    _ZN4DJVU7ZPCodec6EncodeD2Ev
1518       0x0003CB30    _ZN4DJVU7ZPCodec6createENS_2GPINS_10ByteStreamEEEbb
1519       0x0003D490    _ZN4DJVU7ZPCodec6eflushEv
1520       0x0003D220    _ZN4DJVU7ZPCodec6outbitEi
1521       0x00161DC0    _ZN4DJVU7ZPCodec7decoderERh
1522       0x00161E00    _ZN4DJVU7ZPCodec7encoderEiRh
1523       0x0003C860    _ZN4DJVU7ZPCodec7preloadEv
1524       0x0003DC60    _ZN4DJVU7ZPCodec8newtableEPNS0_5TableE
1525       0x0003C670    _ZN4DJVU7ZPCodecC1ENS_2GPINS_10ByteStreamEEEbb
1526       0x0003C670    _ZN4DJVU7ZPCodecC2ENS_2GPINS_10ByteStreamEEEbb
1527       0x0003C340    _ZN4DJVU7ZPCodecD0Ev
1528       0x0003C2A0    _ZN4DJVU7ZPCodecD1Ev
1529       0x0003C2A0    _ZN4DJVU7ZPCodecD2Ev
1530       0x00015F20    _ZN4DJVU8ArrayRep3delEij
1531       0x00016060    _ZN4DJVU8ArrayRep3insEiPKvj
1532       0x00161E60    _ZN4DJVU8ArrayRep5emptyEv
1533       0x00015F00    _ZN4DJVU8ArrayRep5shiftEi
1534       0x00161E90    _ZN4DJVU8ArrayRep5touchEi
1535       0x00015520    _ZN4DJVU8ArrayRep6resizeEii
1536       0x00015990    _ZN4DJVU8ArrayRepC1ERKS0_
1537       0x000154C0    _ZN4DJVU8ArrayRepC1EiPFvPviiES3_PFvS1_iiPKviiES7_PFvS1_iiS5_iE
1538       0x00015B80    _ZN4DJVU8ArrayRepC1EiPFvPviiES3_PFvS1_iiPKviiES7_PFvS1_iiS5_iEi
1539       0x00015AB0    _ZN4DJVU8ArrayRepC1EiPFvPviiES3_PFvS1_iiPKviiES7_PFvS1_iiS5_iEii
1540       0x00015990    _ZN4DJVU8ArrayRepC2ERKS0_
1541       0x000154C0    _ZN4DJVU8ArrayRepC2EiPFvPviiES3_PFvS1_iiPKviiES7_PFvS1_iiS5_iE
1542       0x00015B80    _ZN4DJVU8ArrayRepC2EiPFvPviiES3_PFvS1_iiPKviiES7_PFvS1_iiS5_iEi
1543       0x00015AB0    _ZN4DJVU8ArrayRepC2EiPFvPviiES3_PFvS1_iiPKviiES7_PFvS1_iiS5_iEii
1544       0x00015480    _ZN4DJVU8ArrayRepD0Ev
1545       0x000153D0    _ZN4DJVU8ArrayRepD1Ev
1546       0x000153D0    _ZN4DJVU8ArrayRepD2Ev
1547       0x00015C50    _ZN4DJVU8ArrayRepaSERKS0_
1548       0x00064CB0    _ZN4DJVU8DataPool10added_dataEii
1549       0x00068770    _ZN4DJVU8DataPool10get_streamEv
1550       0x00068AF0    _ZN4DJVU8DataPool10trigger_cbEv
1551       0x000672A0    _ZN4DJVU8DataPool11add_triggerEiPFvPvES1_
1552       0x00066DE0    _ZN4DJVU8DataPool11add_triggerEiiPFvPvES1_
1553       0x00068970    _ZN4DJVU8DataPool11analyze_iffEv
1554       0x00067B40    _ZN4DJVU8DataPool11del_triggerEPFvPvES1_
1555       0x00061EB0    _ZN4DJVU8DataPool12clear_streamEb
1556       0x00063060    _ZN4DJVU8DataPool13wait_for_dataERKNS_2GPINS0_6ReaderEEE
1557       0x00062190    _ZN4DJVU8DataPool14OpenFiles_File12clear_streamEv
1558       0x0005F060    _ZN4DJVU8DataPool14OpenFiles_File8add_poolERNS_2GPIS0_EE
1559       0x0005F4A0    _ZN4DJVU8DataPool14OpenFiles_File8del_poolERNS_2GPIS0_EE
1560       0x0005F230    _ZN4DJVU8DataPool14OpenFiles_FileC1ERKNS_4GURLERNS_2GPIS0_EE
1561       0x0005F230    _ZN4DJVU8DataPool14OpenFiles_FileC2ERKNS_4GURLERNS_2GPIS0_EE
1562       0x00062D20    _ZN4DJVU8DataPool14OpenFiles_FileD0Ev
1563       0x00062B60    _ZN4DJVU8DataPool14OpenFiles_FileD1Ev
1564       0x00062B60    _ZN4DJVU8DataPool14OpenFiles_FileD2Ev
1565       0x00064770    _ZN4DJVU8DataPool14check_triggersEv
1566       0x00064490    _ZN4DJVU8DataPool15restart_readersEv
1567       0x00068D10    _ZN4DJVU8DataPool17static_trigger_cbEPv
1568       0x00064350    _ZN4DJVU8DataPool19wake_up_all_readersEv
1569       0x00171A60    _ZN4DJVU8DataPool4StopE
1570       0x000618C0    _ZN4DJVU8DataPool4initEv
1571       0x00064640    _ZN4DJVU8DataPool4stopEb
1572       0x00161EE0    _ZN4DJVU8DataPool6ReaderD0Ev
1573       0x00161F90    _ZN4DJVU8DataPool6ReaderD1Ev
1574       0x00067870    _ZN4DJVU8DataPool6createERKNS_2GPINS_10ByteStreamEEE
1575       0x00067760    _ZN4DJVU8DataPool6createERKNS_2GPIS0_EEii
1576       0x00066BD0    _ZN4DJVU8DataPool6createERKNS_4GURLEii
1577       0x00067A30    _ZN4DJVU8DataPool6createEv
1578       0x00162030    _ZN4DJVU8DataPool7TriggerD0Ev
1579       0x001620E0    _ZN4DJVU8DataPool7TriggerD1Ev
1580       0x00067300    _ZN4DJVU8DataPool7connectERKNS_2GPIS0_EEii
1581       0x00065ED0    _ZN4DJVU8DataPool7connectERKNS_4GURLEii
1582       0x00064BA0    _ZN4DJVU8DataPool7set_eofEv
1583       0x000651A0    _ZN4DJVU8DataPool8add_dataEPKvi
1584       0x00064F40    _ZN4DJVU8DataPool8add_dataEPKvii
1585       0x00064240    _ZN4DJVU8DataPool8get_dataEPvii
1586       0x000633A0    _ZN4DJVU8DataPool8get_dataEPviii
1587       0x00062FA0    _ZN4DJVU8DataPool8has_dataEii
1588       0x00060930    _ZN4DJVU8DataPool9BlockList5clearEv
1589       0x000609E0    _ZN4DJVU8DataPool9BlockList9add_rangeEii
1590       0x00190D74    _ZN4DJVU8DataPool9OpenFiles10global_ptrE
1591       0x00062400    _ZN4DJVU8DataPool9OpenFiles14request_streamERKNS_4GURLENS_2GPIS0_EE
1592       0x0005F620    _ZN4DJVU8DataPool9OpenFiles15stream_releasedERNS_2GPINS_10ByteStreamEEENS2_IS0_EE
1593       0x00162180    _ZN4DJVU8DataPool9OpenFiles3getEv
1594       0x000622F0    _ZN4DJVU8DataPool9OpenFiles5pruneEv
1595       0x0005F940    _ZN4DJVU8DataPool9OpenFiles9close_allEv
1596       0x001622C0    _ZN4DJVU8DataPool9OpenFilesD0Ev
1597       0x001623A0    _ZN4DJVU8DataPool9OpenFilesD1Ev
1598       0x000685C0    _ZN4DJVU8DataPool9close_allEv
1599       0x00065DB0    _ZN4DJVU8DataPool9load_fileERKNS_4GURLE
1600       0x000651E0    _ZN4DJVU8DataPool9load_fileEv
1601       0x00061B70    _ZN4DJVU8DataPoolC1Ev
1602       0x00061B70    _ZN4DJVU8DataPoolC2Ev
1603       0x000685A0    _ZN4DJVU8DataPoolD0Ev
1604       0x00067E20    _ZN4DJVU8DataPoolD1Ev
1605       0x00067E20    _ZN4DJVU8DataPoolD2Ev
1606       0x000E69F0    _ZN4DJVU8DjVmDir06decodeERNS_10ByteStreamE
1607       0x000E6350    _ZN4DJVU8DjVmDir06encodeERNS_10ByteStreamE
1608       0x00162480    _ZN4DJVU8DjVmDir07FileRecD0Ev
1609       0x00162530    _ZN4DJVU8DjVmDir07FileRecD1Ev
1610       0x000E6620    _ZN4DJVU8DjVmDir08add_fileERKNS_11GUTF8StringEbii
1611       0x000E6920    _ZN4DJVU8DjVmDir08get_fileERKNS_11GUTF8StringE
1612       0x000E6500    _ZN4DJVU8DjVmDir08get_fileEi
1613       0x001625D0    _ZN4DJVU8DjVmDir0D0Ev
1614       0x001626B0    _ZN4DJVU8DjVmDir0D1Ev
1615       0x00162790    _ZN4DJVU8DjVmInfoD1Ev
1616       0x00094570    _ZN4DJVU8DjVuAnno5mergeERKNS_2GPIS0_EE
1617       0x00162820    _ZN4DJVU8DjVuAnno6createEv
1618       0x00093EC0    _ZN4DJVU8DjVuAnno6decodeERKNS_2GPINS_10ByteStreamEEE
1619       0x000942A0    _ZN4DJVU8DjVuAnno6encodeERKNS_2GPINS_10ByteStreamEEE
1620       0x00162860    _ZN4DJVU8DjVuAnnoC1Ev
1621       0x00162890    _ZN4DJVU8DjVuAnnoC2Ev
1622       0x001628C0    _ZN4DJVU8DjVuAnnoD0Ev
1623       0x00162970    _ZN4DJVU8DjVuAnnoD1Ev
1624       0x000B4C30    _ZN4DJVU8DjVuFile10merge_annoERNS_10ByteStreamE
1625       0x000B32C0    _ZN4DJVU8DjVuFile10trigger_cbEv
1626       0x000B7360    _ZN4DJVU8DjVuFile11change_infoENS_2GPINS_8DjVuInfoEEEb
1627       0x000B75F0    _ZN4DJVU8DjVuFile11change_metaERKNS_11GUTF8StringEb
1628       0x000B73B0    _ZN4DJVU8DjVuFile11change_textENS_2GPINS_7DjVuTXTEEEb
1629       0x000B1AA0    _ZN4DJVU8DjVuFile11decode_funcEv
1630       0x000B4D40    _ZN4DJVU8DjVuFile11decode_ndirERNS_4GMapINS_4GURLEPvEE
1631       0x000B58F0    _ZN4DJVU8DjVuFile11decode_ndirEv
1632       0x000B2D20    _ZN4DJVU8DjVuFile11insert_fileERKNS_11GUTF8StringEi
1633       0x000A3D70    _ZN4DJVU8DjVuFile11progress_cbEiPv
1634       0x000AAB60    _ZN4DJVU8DjVuFile11remove_annoEv
1635       0x000AB550    _ZN4DJVU8DjVuFile11remove_metaEv
1636       0x000AB060    _ZN4DJVU8DjVuFile11remove_textEv
1637       0x000A7410    _ZN4DJVU8DjVuFile11stop_decodeEb
1638       0x000AC240    _ZN4DJVU8DjVuFile11unlink_fileERKNS_11GUTF8StringE
1639       0x000ABA40    _ZN4DJVU8DjVuFile11unlink_fileERKNS_2GPINS_8DataPoolEEERKNS_11GUTF8StringE
1640       0x000ADD10    _ZN4DJVU8DjVuFile12decode_chunkERKNS_11GUTF8StringERKNS_2GPINS_10ByteStreamEEEbbb
1641       0x000A4A40    _ZN4DJVU8DjVuFile12report_errorERKNS_10GExceptionEb
1642       0x00162A10    _ZN4DJVU8DjVuFile12set_modifiedEb
1643       0x000A6F80    _ZN4DJVU8DjVuFile12start_decodeEv
1644       0x000B5E90    _ZN4DJVU8DjVuFile13add_djvu_dataERNS_13IFFByteStreamERNS_4GMapINS_4GURLEPvEEbb
1645       0x000AA120    _ZN4DJVU8DjVuFile13contains_annoEv
1646       0x000AA680    _ZN4DJVU8DjVuFile13contains_metaEv
1647       0x000AA3E0    _ZN4DJVU8DjVuFile13contains_textEv
1648       0x000B70C0    _ZN4DJVU8DjVuFile13get_djvu_dataEbb
1649       0x000A7300    _ZN4DJVU8DjVuFile13resume_decodeEb
1650       0x000A9CC0    _ZN4DJVU8DjVuFile14contains_chunkERKNS_11GUTF8StringE
1651       0x000A9620    _ZN4DJVU8DjVuFile14get_chunk_nameEi
1652       0x00162A50    _ZN4DJVU8DjVuFile14get_safe_flagsEv
1653       0x000A6890    _ZN4DJVU8DjVuFile14wait_for_chunkEv
1654       0x000B4A60    _ZN4DJVU8DjVuFile15get_merged_annoEPi
1655       0x000B3CA0    _ZN4DJVU8DjVuFile15get_merged_annoERKNS_2GPIS0_EERKNS1_INS_10ByteStreamEEERKNS_5GListINS_4GURLEEEiRiRNS_4GMapISA_PvEE
1656       0x000B4870    _ZN4DJVU8DjVuFile15get_merged_annoERKNS_5GListINS_4GURLEEEPi
1657       0x00162A60    _ZN4DJVU8DjVuFile15set_verbose_eofEb
1658       0x000B3C70    _ZN4DJVU8DjVuFile15static_get_fgjdEPv
1659       0x000A68D0    _ZN4DJVU8DjVuFile15wait_for_finishEb
1660       0x00162A80    _ZN4DJVU8DjVuFile15wait_for_finishEv
1661       0x00162AB0    _ZN4DJVU8DjVuFile16set_can_compressEb
1662       0x000A6F70    _ZN4DJVU8DjVuFile16set_decode_codecEPFNS_2GPINS_7GPixmapEEERNS_10ByteStreamEE
1663       0x000A9230    _ZN4DJVU8DjVuFile17get_chunks_numberEv
1664       0x000A5810    _ZN4DJVU8DjVuFile17notify_chunk_doneEPKNS_8DjVuPortERKNS_11GUTF8StringE
1665       0x000B7270    _ZN4DJVU8DjVuFile17rebuild_data_poolEv
1666       0x000B3530    _ZN4DJVU8DjVuFile17static_trigger_cbEPv
1667       0x000B3790    _ZN4DJVU8DjVuFile18get_included_filesEb
1668       0x000ACD30    _ZN4DJVU8DjVuFile18process_incl_chunkERNS_10ByteStreamEi
1669       0x00162B00    _ZN4DJVU8DjVuFile18set_recover_errorsENS_8DjVuPort19ErrorRecoveryActionE
1670       0x000B2720    _ZN4DJVU8DjVuFile18static_decode_funcEPv
1671       0x000B6EF0    _ZN4DJVU8DjVuFile19get_djvu_bytestreamEbb
1672       0x000B2820    _ZN4DJVU8DjVuFile19process_incl_chunksEv
1673       0x00162B20    _ZN4DJVU8DjVuFile21disable_standard_portEv
1674       0x00162B40    _ZN4DJVU8DjVuFile21set_needs_compressionEb
1675       0x000A5850    _ZN4DJVU8DjVuFile25notify_file_flags_changedEPKS0_ll
1676       0x000A5AC0    _ZN4DJVU8DjVuFile4initERKNS_2GPINS_10ByteStreamEEE
1677       0x000A5F50    _ZN4DJVU8DjVuFile4initERKNS_4GURLENS_2GPINS_8DjVuPortEEE
1678       0x000A8FE0    _ZN4DJVU8DjVuFile4moveERKNS_4GURLE
1679       0x000A8B40    _ZN4DJVU8DjVuFile4moveERNS_4GMapINS_4GURLEPvEERKS2_
1680       0x000A7790    _ZN4DJVU8DjVuFile4stopEb
1681       0x000A66B0    _ZN4DJVU8DjVuFile5resetEv
1682       0x000A5E20    _ZN4DJVU8DjVuFile6createERKNS_2GPINS_10ByteStreamEEENS_8DjVuPort19ErrorRecoveryActionEb
1683       0x000A6520    _ZN4DJVU8DjVuFile6createERKNS_4GURLENS_2GPINS_8DjVuPortEEENS5_19ErrorRecoveryActionEb
1684       0x000B0CF0    _ZN4DJVU8DjVuFile6decodeERKNS_2GPINS_10ByteStreamEEE
1685       0x000A6BA0    _ZN4DJVU8DjVuFile7get_dpiEii
1686       0x000A7920    _ZN4DJVU8DjVuFile8get_annoERKNS_2GPIS0_EERKNS1_INS_10ByteStreamEEE
1687       0x000A8750    _ZN4DJVU8DjVuFile8get_annoEv
1688       0x000B3890    _ZN4DJVU8DjVuFile8get_fgjdEi
1689       0x000A82A0    _ZN4DJVU8DjVuFile8get_metaERKNS_2GPIS0_EERKNS1_INS_10ByteStreamEEE
1690       0x000AAA40    _ZN4DJVU8DjVuFile8get_metaERNS_10ByteStreamE
1691       0x000A89F0    _ZN4DJVU8DjVuFile8get_metaEv
1692       0x000A7DF0    _ZN4DJVU8DjVuFile8get_textERKNS_2GPIS0_EERKNS1_INS_10ByteStreamEEE
1693       0x000AA920    _ZN4DJVU8DjVuFile8get_textERNS_10ByteStreamE
1694       0x000A88A0    _ZN4DJVU8DjVuFile8get_textEv
1695       0x000A90C0    _ZN4DJVU8DjVuFile8set_nameERKNS_11GUTF8StringE
1696       0x000B59D0    _ZN4DJVU8DjVuFile9find_ndirERNS_4GMapINS_4GURLEPvEE
1697       0x000B5DB0    _ZN4DJVU8DjVuFile9find_ndirEv
1698       0x000A51F0    _ZN4DJVU8DjVuFileC1Ev
1699       0x000A51F0    _ZN4DJVU8DjVuFileC2Ev
1700       0x000A49E0    _ZN4DJVU8DjVuFileD0Ev
1701       0x000A4200    _ZN4DJVU8DjVuFileD1Ev
1702       0x000A4200    _ZN4DJVU8DjVuFileD2Ev
1703       0x00162B90    _ZN4DJVU8DjVuInfo6createEv
1704       0x000A33F0    _ZN4DJVU8DjVuInfo6decodeERNS_10ByteStreamE
1705       0x000A3700    _ZN4DJVU8DjVuInfo6encodeERNS_10ByteStreamE
1706       0x000A33A0    _ZN4DJVU8DjVuInfoC1Ev
1707       0x000A33A0    _ZN4DJVU8DjVuInfoC2Ev
1708       0x00162C40    _ZN4DJVU8DjVuInfoD0Ev
1709       0x00162C70    _ZN4DJVU8DjVuInfoD1Ev
1710       0x00190D80    _ZN4DJVU8DjVuPort10corpse_numE
1711       0x00077B00    _ZN4DJVU8DjVuPort10id_to_fileEPKS0_RKNS_11GUTF8StringE
1712       0x00190D88    _ZN4DJVU8DjVuPort11corpse_headE
1713       0x00190D8C    _ZN4DJVU8DjVuPort11corpse_lockE
1714       0x00190D84    _ZN4DJVU8DjVuPort11corpse_tailE
1715       0x000779E0    _ZN4DJVU8DjVuPort12notify_errorEPKS0_RKNS_11GUTF8StringE
1716       0x00077C00    _ZN4DJVU8DjVuPort12request_dataEPKS0_RKNS_4GURLE
1717       0x000779F0    _ZN4DJVU8DjVuPort13notify_statusEPKS0_RKNS_11GUTF8StringE
1718       0x000787D0    _ZN4DJVU8DjVuPort14get_portcasterEv
1719       0x00077A10    _ZN4DJVU8DjVuPort15notify_relayoutEPKNS_9DjVuImageE
1720       0x00077A00    _ZN4DJVU8DjVuPort16notify_redisplayEPKNS_9DjVuImageE
1721       0x00077A20    _ZN4DJVU8DjVuPort17notify_chunk_doneEPKS0_RKNS_11GUTF8StringE
1722       0x00077A50    _ZN4DJVU8DjVuPort22notify_decode_progressEPKS0_f
1723       0x00077A40    _ZN4DJVU8DjVuPort24notify_doc_flags_changedEPKNS_12DjVuDocumentEll
1724       0x00077A30    _ZN4DJVU8DjVuPort25notify_file_flags_changedEPKNS_8DjVuFileEll
1725       0x00077AA0    _ZN4DJVU8DjVuPort9id_to_urlEPKS0_RKNS_11GUTF8StringE
1726       0x0007A9C0    _ZN4DJVU8DjVuPortC1ERKS0_
1727       0x00078890    _ZN4DJVU8DjVuPortC1Ev
1728       0x0007A9C0    _ZN4DJVU8DjVuPortC2ERKS0_
1729       0x00078890    _ZN4DJVU8DjVuPortC2Ev
1730       0x00079D00    _ZN4DJVU8DjVuPortD0Ev
1731       0x00079C60    _ZN4DJVU8DjVuPortD1Ev
1732       0x00079C60    _ZN4DJVU8DjVuPortD2Ev
1733       0x0007A980    _ZN4DJVU8DjVuPortaSERKS0_
1734       0x00078510    _ZN4DJVU8DjVuPortdlEPv
1735       0x00078A70    _ZN4DJVU8DjVuPortnwEj
1736       0x00162C90    _ZN4DJVU8DjVuText6createEv
1737       0x000A20B0    _ZN4DJVU8DjVuText6decodeERKNS_2GPINS_10ByteStreamEEE
1738       0x000A2590    _ZN4DJVU8DjVuText6encodeERKNS_2GPINS_10ByteStreamEEE
1739       0x00162CD0    _ZN4DJVU8DjVuTextC1Ev
1740       0x00162D00    _ZN4DJVU8DjVuTextC2Ev
1741       0x00162D30    _ZN4DJVU8DjVuTextD0Ev
1742       0x00162DE0    _ZN4DJVU8DjVuTextD1Ev
1743       0x001035C0    _ZN4DJVU8DjVuToPS10DecodePort22notify_decode_progressEPKNS_8DjVuPortEd
1744       0x00103810    _ZN4DJVU8DjVuToPS10DecodePort25notify_file_flags_changedEPKNS_8DjVuFileEll
1745       0x0010BD70    _ZN4DJVU8DjVuToPS10DecodePort6createEv
1746       0x0010BC90    _ZN4DJVU8DjVuToPS10DecodePortC1Ev
1747       0x0010BC90    _ZN4DJVU8DjVuToPS10DecodePortC2Ev
1748       0x00162E80    _ZN4DJVU8DjVuToPS10DecodePortD0Ev
1749       0x00162F70    _ZN4DJVU8DjVuToPS10DecodePortD1Ev
1750       0x0010BF30    _ZN4DJVU8DjVuToPS11decode_pageENS_2GPINS_12DjVuDocumentEEEiii
1751       0x0010B600    _ZN4DJVU8DjVuToPS11parse_rangeENS_2GPINS_12DjVuDocumentEEENS_11GUTF8StringERNS_5GListIiEE
1752       0x0010A8F0    _ZN4DJVU8DjVuToPS11print_imageERNS_10ByteStreamENS_2GPINS_9DjVuImageEEERKNS_5GRectENS3_INS_7DjVuTXTEEE
1753       0x0010BF10    _ZN4DJVU8DjVuToPS11set_info_cbEPFviiiNS0_5StageEPvES2_
1754       0x0010BEB0    _ZN4DJVU8DjVuToPS14set_refresh_cbEPFvPvES1_
1755       0x00104870    _ZN4DJVU8DjVuToPS15make_gamma_rampENS_2GPINS_9DjVuImageEEE
1756       0x00104A40    _ZN4DJVU8DjVuToPS15print_fg_2layerERNS_10ByteStreamENS_2GPINS_9DjVuImageEEERKNS_5GRectEPh
1757       0x00104E00    _ZN4DJVU8DjVuToPS15print_fg_3layerERNS_10ByteStreamENS_2GPINS_9DjVuImageEEERKNS_5GRectEPh
1758       0x00104520    _ZN4DJVU8DjVuToPS15store_doc_setupERNS_10ByteStreamE
1759       0x00108240    _ZN4DJVU8DjVuToPS16print_image_lev1ERNS_10ByteStreamENS_2GPINS_9DjVuImageEEERKNS_5GRectE
1760       0x001090E0    _ZN4DJVU8DjVuToPS16print_image_lev2ERNS_10ByteStreamENS_2GPINS_9DjVuImageEEERKNS_5GRectE
1761       0x001042E0    _ZN4DJVU8DjVuToPS16store_doc_prologERNS_10ByteStreamEiiPNS_5GRectE
1762       0x001046C0    _ZN4DJVU8DjVuToPS16store_page_setupERNS_10ByteStreamEiRKNS_5GRectEi
1763       0x001046A0    _ZN4DJVU8DjVuToPS17store_doc_trailerERNS_10ByteStreamE
1764       0x001047F0    _ZN4DJVU8DjVuToPS18store_page_trailerERNS_10ByteStreamE
1765       0x0010D550    _ZN4DJVU8DjVuToPS19process_double_pageERNS_10ByteStreamENS_2GPINS_12DjVuDocumentEEEPvii
1766       0x0010D050    _ZN4DJVU8DjVuToPS19process_single_pageERNS_10ByteStreamENS_2GPINS_12DjVuDocumentEEEiiii
1767       0x0010BEF0    _ZN4DJVU8DjVuToPS19set_dec_progress_cbEPFvdPvES1_
1768       0x0010BED0    _ZN4DJVU8DjVuToPS19set_prn_progress_cbEPFvdPvES1_
1769       0x0010EA70    _ZN4DJVU8DjVuToPS5printERNS_10ByteStreamENS_2GPINS_12DjVuDocumentEEE
1770       0x0010D800    _ZN4DJVU8DjVuToPS5printERNS_10ByteStreamENS_2GPINS_12DjVuDocumentEEENS_11GUTF8StringE
1771       0x0010B0C0    _ZN4DJVU8DjVuToPS5printERNS_10ByteStreamENS_2GPINS_9DjVuImageEEERKNS_5GRectES8_i
1772       0x00104040    _ZN4DJVU8DjVuToPS7Options10set_copiesEi
1773       0x001039D0    _ZN4DJVU8DjVuToPS7Options10set_formatENS1_6FormatE
1774       0x00104120    _ZN4DJVU8DjVuToPS7Options13set_cropmarksEb
1775       0x00104150    _ZN4DJVU8DjVuToPS7Options14set_bookletmaxEi
1776       0x00104190    _ZN4DJVU8DjVuToPS7Options15set_bookletfoldEii
1777       0x00104140    _ZN4DJVU8DjVuToPS7Options15set_bookletmodeENS1_11BookletModeE
1778       0x00103CB0    _ZN4DJVU8DjVuToPS7Options15set_orientationENS1_11OrientationE
1779       0x00104180    _ZN4DJVU8DjVuToPS7Options16set_bookletalignEi
1780       0x00103D80    _ZN4DJVU8DjVuToPS7Options8set_modeENS1_4ModeE
1781       0x00103F40    _ZN4DJVU8DjVuToPS7Options8set_sRGBEb
1782       0x00104130    _ZN4DJVU8DjVuToPS7Options8set_textEb
1783       0x00103E50    _ZN4DJVU8DjVuToPS7Options8set_zoomEi
1784       0x00103F30    _ZN4DJVU8DjVuToPS7Options9set_colorEb
1785       0x00104110    _ZN4DJVU8DjVuToPS7Options9set_frameEb
1786       0x00103F50    _ZN4DJVU8DjVuToPS7Options9set_gammaEd
1787       0x00103AA0    _ZN4DJVU8DjVuToPS7Options9set_levelEi
1788       0x00103950    _ZN4DJVU8DjVuToPS7OptionsC1Ev
1789       0x00103950    _ZN4DJVU8DjVuToPS7OptionsC2Ev
1790       0x00106640    _ZN4DJVU8DjVuToPS8print_bgERNS_10ByteStreamENS_2GPINS_9DjVuImageEEERKNS_5GRectE
1791       0x00105C80    _ZN4DJVU8DjVuToPS8print_fgERNS_10ByteStreamENS_2GPINS_9DjVuImageEEERKNS_5GRectE
1792       0x001041B0    _ZN4DJVU8DjVuToPSC1Ev
1793       0x001041B0    _ZN4DJVU8DjVuToPSC2Ev
1794       0x0017B4C0    _ZN4DJVU8GLObject14GLObjectStringE
1795       0x0008C080    _ZN4DJVU8GLObject8get_listEv
1796       0x0008A5A0    _ZN4DJVU8GLObjectC1ENS0_12GLObjectTypeEPKc
1797       0x0008A7A0    _ZN4DJVU8GLObjectC1EPKcRKNS_6GPListIS0_EE
1798       0x0008A480    _ZN4DJVU8GLObjectC1Ei
1799       0x0008A5A0    _ZN4DJVU8GLObjectC2ENS0_12GLObjectTypeEPKc
1800       0x0008A7A0    _ZN4DJVU8GLObjectC2EPKcRKNS_6GPListIS0_EE
1801       0x0008A480    _ZN4DJVU8GLObjectC2Ei
1802       0x00163050    _ZN4DJVU8GLObjectD0Ev
1803       0x001631C0    _ZN4DJVU8GLObjectD1Ev
1804       0x0008DB20    _ZN4DJVU8GLParser10get_objectEPKcb
1805       0x0008D700    _ZN4DJVU8GLParser12check_compatEPKc
1806       0x0008C0B0    _ZN4DJVU8GLParser16skip_white_spaceERPKc
1807       0x0008D8D0    _ZN4DJVU8GLParser5parseEPKc
1808       0x0008CC00    _ZN4DJVU8GLParser5parseEPKcRNS_6GPListINS_8GLObjectEEERS2_
1809       0x0008DAA0    _ZN4DJVU8GLParser5printERNS_10ByteStreamEi
1810       0x0008A470    _ZN4DJVU8GLParser8get_listEv
1811       0x0008C1C0    _ZN4DJVU8GLParser9get_tokenERPKc
1812       0x0008D9E0    _ZN4DJVU8GLParserC1EPKc
1813       0x0008A410    _ZN4DJVU8GLParserC1Ev
1814       0x0008D9E0    _ZN4DJVU8GLParserC2EPKc
1815       0x0008A410    _ZN4DJVU8GLParserC2Ev
1816       0x0008A450    _ZN4DJVU8GLParserD1Ev
1817       0x0008A450    _ZN4DJVU8GLParserD2Ev
1818       0x0017AB76    _ZN4DJVU8GMapArea10HILITE_TAGE
1819       0x0017ABD4    _ZN4DJVU8GMapArea11MAPAREA_TAGE
1820       0x0017AB6C    _ZN4DJVU8GMapArea11TARGET_SELFE
1821       0x00083ED0    _ZN4DJVU8GMapArea12check_objectEv
1822       0x0017ABC0    _ZN4DJVU8GMapArea13NO_BORDER_TAGE
1823       0x0017ABBC    _ZN4DJVU8GMapArea14XOR_BORDER_TAGE
1824       0x0017AB7D    _ZN4DJVU8GMapArea15BORDER_AVIS_TAGE
1825       0x0017ABB5    _ZN4DJVU8GMapArea16SOLID_BORDER_TAGE
1826       0x00083620    _ZN4DJVU8GMapArea17initialize_boundsEv
1827       0x0017ABAB    _ZN4DJVU8GMapArea20SHADOW_IN_BORDER_TAGE
1828       0x0017AB95    _ZN4DJVU8GMapArea21SHADOW_EIN_BORDER_TAGE
1829       0x0017ABA0    _ZN4DJVU8GMapArea21SHADOW_OUT_BORDER_TAGE
1830       0x0017AB89    _ZN4DJVU8GMapArea22SHADOW_EOUT_BORDER_TAGE
1831       0x00083D70    _ZN4DJVU8GMapArea4moveEii
1832       0x00084000    _ZN4DJVU8GMapArea5printEv
1833       0x00083DB0    _ZN4DJVU8GMapArea6resizeEii
1834       0x0017AB72    _ZN4DJVU8GMapArea7URL_TAGE
1835       0x0017ABC5    _ZN4DJVU8GMapArea8OVAL_TAGE
1836       0x0017ABCA    _ZN4DJVU8GMapArea8POLY_TAGE
1837       0x0017ABCF    _ZN4DJVU8GMapArea8RECT_TAGE
1838       0x00083E40    _ZN4DJVU8GMapArea9transformERKNS_5GRectE
1839       0x00088D60    _ZN4DJVU8GMapAreaC1Ev
1840       0x00088D60    _ZN4DJVU8GMapAreaC2Ev
1841       0x0007DC90    _ZN4DJVU8GMapAreaD0Ev
1842       0x0007D9E0    _ZN4DJVU8GMapAreaD1Ev
1843       0x0007D9E0    _ZN4DJVU8GMapAreaD2Ev
1844       0x00163320    _ZN4DJVU8GMapImplINS_11GUTF8StringENS_2GPINS_10lt_XMLTagsEEEE13get_or_createERKS1_
1845       0x00163450    _ZN4DJVU8GMapImplINS_11GUTF8StringENS_2GPINS_8DjVmDir07FileRecEEEE13get_or_createERKS1_
1846       0x00163580    _ZN4DJVU8GMapImplINS_11GUTF8StringENS_2GPINS_8DjVuFileEEEE13get_or_createERKS1_
1847       0x001636B0    _ZN4DJVU8GMapImplINS_11GUTF8StringENS_6GPListINS_10lt_XMLTagsEEEE13get_or_createERKS1_
1848       0x001637E0    _ZN4DJVU8GMapImplINS_11GUTF8StringEPvE13get_or_createERKS1_
1849       0x00163910    _ZN4DJVU8GMapImplIiNS_6GPBaseEE13get_or_createERKi
1850       0x00088C00    _ZN4DJVU8GMapOval10gma_resizeEii
1851       0x000889C0    _ZN4DJVU8GMapOval10initializeEv
1852       0x00088BD0    _ZN4DJVU8GMapOval13gma_transformERKNS_5GRectE
1853       0x00088B50    _ZN4DJVU8GMapOval3mapERNS_11GRectMapperE
1854       0x00088AD0    _ZN4DJVU8GMapOval5unmapERNS_11GRectMapperE
1855       0x0007D910    _ZN4DJVU8GMapOval8gma_moveEii
1856       0x00080AE0    _ZN4DJVU8GMapOval9gma_printEv
1857       0x00088C30    _ZN4DJVU8GMapOvalC1ERKNS_5GRectE
1858       0x000893D0    _ZN4DJVU8GMapOvalC1Ev
1859       0x00088C30    _ZN4DJVU8GMapOvalC2ERKNS_5GRectE
1860       0x000893D0    _ZN4DJVU8GMapOvalC2Ev
1861       0x0007DEE0    _ZN4DJVU8GMapOvalD0Ev
1862       0x0007DDC0    _ZN4DJVU8GMapOvalD1Ev
1863       0x0007DDC0    _ZN4DJVU8GMapOvalD2Ev
1864       0x000887C0    _ZN4DJVU8GMapPoly10add_vertexEii
1865       0x00086CB0    _ZN4DJVU8GMapPoly10check_dataEv
1866       0x000889A0    _ZN4DJVU8GMapPoly10close_polyEv
1867       0x0007FEB0    _ZN4DJVU8GMapPoly10gma_resizeEii
1868       0x00089240    _ZN4DJVU8GMapPoly11move_vertexEiii
1869       0x00083300    _ZN4DJVU8GMapPoly13gma_transformERKNS_5GRectE
1870       0x000873E0    _ZN4DJVU8GMapPoly13optimize_dataEv
1871       0x00086740    _ZN4DJVU8GMapPoly20does_side_cross_rectERKNS_5GRectEi
1872       0x00086C80    _ZN4DJVU8GMapPoly21are_segments_parallelEiiiiiiii
1873       0x00086460    _ZN4DJVU8GMapPoly21do_segments_intersectEiiiiiiii
1874       0x000863D0    _ZN4DJVU8GMapPoly24is_projection_on_segmentEiiiiii
1875       0x00083B50    _ZN4DJVU8GMapPoly3mapERNS_11GRectMapperE
1876       0x00083930    _ZN4DJVU8GMapPoly5unmapERNS_11GRectMapperE
1877       0x0007F2B0    _ZN4DJVU8GMapPoly8gma_moveEii
1878       0x000803B0    _ZN4DJVU8GMapPoly9gma_printEv
1879       0x00088340    _ZN4DJVU8GMapPolyC1EPKiS2_ib
1880       0x000890B0    _ZN4DJVU8GMapPolyC1Ev
1881       0x00088340    _ZN4DJVU8GMapPolyC2EPKiS2_ib
1882       0x000890B0    _ZN4DJVU8GMapPolyC2Ev
1883       0x0007E3F0    _ZN4DJVU8GMapPolyD0Ev
1884       0x0007E260    _ZN4DJVU8GMapPolyD1Ev
1885       0x0007E260    _ZN4DJVU8GMapPolyD2Ev
1886       0x0007D7F0    _ZN4DJVU8GMapRect10gma_resizeEii
1887       0x0007D810    _ZN4DJVU8GMapRect13gma_transformERKNS_5GRectE
1888       0x000838B0    _ZN4DJVU8GMapRect3mapERNS_11GRectMapperE
1889       0x00083830    _ZN4DJVU8GMapRect5unmapERNS_11GRectMapperE
1890       0x0007D8C0    _ZN4DJVU8GMapRect8gma_moveEii
1891       0x00080BC0    _ZN4DJVU8GMapRect9gma_printEv
1892       0x00088F60    _ZN4DJVU8GMapRectC1ERKNS_5GRectE
1893       0x00088E50    _ZN4DJVU8GMapRectC1Ev
1894       0x00088F60    _ZN4DJVU8GMapRectC2ERKNS_5GRectE
1895       0x00088E50    _ZN4DJVU8GMapRectC2Ev
1896       0x0007E130    _ZN4DJVU8GMapRectD0Ev
1897       0x0007E010    _ZN4DJVU8GMapRectD1Ev
1898       0x0007E010    _ZN4DJVU8GMapRectD2Ev
1899       0x00089080    _ZN4DJVU8GMapRectaSERKNS_5GRectE
1900       0x000133E0    _ZN4DJVU8GMonitor4waitEm
1901       0x00013200    _ZN4DJVU8GMonitor4waitEv
1902       0x00012E10    _ZN4DJVU8GMonitor5enterEv
1903       0x00012E70    _ZN4DJVU8GMonitor5leaveEv
1904       0x00012F90    _ZN4DJVU8GMonitor6signalEv
1905       0x000130D0    _ZN4DJVU8GMonitor9broadcastEv
1906       0x00012D50    _ZN4DJVU8GMonitorC1Ev
1907       0x00012D50    _ZN4DJVU8GMonitorC2Ev
1908       0x00012DA0    _ZN4DJVU8GMonitorD1Ev
1909       0x00012DA0    _ZN4DJVU8GMonitorD2Ev
1910       0x000046A0    _ZN4DJVU8GSetBase10deletenodeEPNS_5GCont5HNodeE
1911       0x00004650    _ZN4DJVU8GSetBase10insertnodeEPNS_5GCont5HNodeE
1912       0x000047C0    _ZN4DJVU8GSetBase11installnodeEPNS_5GCont5HNodeE
1913       0x00004910    _ZN4DJVU8GSetBase3delERNS_9GPositionE
1914       0x00004950    _ZN4DJVU8GSetBase5emptyEv
1915       0x00004720    _ZN4DJVU8GSetBase6rehashEi
1916       0x00004810    _ZN4DJVU8GSetBaseC1ERKNS_5GCont6TraitsE
1917       0x00004B10    _ZN4DJVU8GSetBaseC1ERKS0_
1918       0x00004810    _ZN4DJVU8GSetBaseC2ERKNS_5GCont6TraitsE
1919       0x00004B10    _ZN4DJVU8GSetBaseC2ERKS0_
1920       0x000049C0    _ZN4DJVU8GSetBaseD1Ev
1921       0x000049C0    _ZN4DJVU8GSetBaseD2Ev
1922       0x00004A90    _ZN4DJVU8GSetBaseaSERKS0_
1923       0x0004B9E0    _ZN4DJVU8IWBitmap10decode_iffERNS_13IFFByteStreamEi
1924       0x0004DD40    _ZN4DJVU8IWBitmap10get_bitmapEiRKNS_5GRectE
1925       0x0004CD10    _ZN4DJVU8IWBitmap10get_bitmapEv
1926       0x0004A740    _ZN4DJVU8IWBitmap10get_serialEv
1927       0x0004A650    _ZN4DJVU8IWBitmap11close_codecEv
1928       0x0004A910    _ZN4DJVU8IWBitmap11parm_dbfracEf
1929       0x0004EBC0    _ZN4DJVU8IWBitmap12decode_chunkENS_2GPINS_10ByteStreamEEE
1930       0x00052750    _ZN4DJVU8IWBitmap6Encode10encode_iffERNS_13IFFByteStreamEiPKNS_14IWEncoderParmsE
1931       0x00051BF0    _ZN4DJVU8IWBitmap6Encode11close_codecEv
1932       0x000575D0    _ZN4DJVU8IWBitmap6Encode12encode_chunkENS_2GPINS_10ByteStreamEEERKNS_14IWEncoderParmsE
1933       0x00058160    _ZN4DJVU8IWBitmap6Encode4initERKNS_7GBitmapENS_2GPIS2_EE
1934       0x00058130    _ZN4DJVU8IWBitmap6EncodeC1Ev
1935       0x00058130    _ZN4DJVU8IWBitmap6EncodeC2Ev
1936       0x00051D80    _ZN4DJVU8IWBitmap6EncodeD0Ev
1937       0x00051CC0    _ZN4DJVU8IWBitmap6EncodeD1Ev
1938       0x00051CC0    _ZN4DJVU8IWBitmap6EncodeD2Ev
1939       0x00050B90    _ZN4DJVU8IWBitmapC1Ev
1940       0x00050B90    _ZN4DJVU8IWBitmapC2Ev
1941       0x0004AE30    _ZN4DJVU8IWBitmapD0Ev
1942       0x0004AD90    _ZN4DJVU8IWBitmapD1Ev
1943       0x0004AD90    _ZN4DJVU8IWBitmapD2Ev
1944       0x0004B6D0    _ZN4DJVU8IWPixmap10decode_iffERNS_13IFFByteStreamEi
1945       0x00050E70    _ZN4DJVU8IWPixmap10get_pixmapEiRKNS_5GRectE
1946       0x00051150    _ZN4DJVU8IWPixmap10get_pixmapEv
1947       0x0004A800    _ZN4DJVU8IWPixmap10get_serialEv
1948       0x0004A690    _ZN4DJVU8IWPixmap11close_codecEv
1949       0x0004A830    _ZN4DJVU8IWPixmap11parm_dbfracEf
1950       0x0004E140    _ZN4DJVU8IWPixmap12decode_chunkENS_2GPINS_10ByteStreamEEE
1951       0x0004A7E0    _ZN4DJVU8IWPixmap14parm_crcbdelayEi
1952       0x00052550    _ZN4DJVU8IWPixmap6Encode10encode_iffERNS_13IFFByteStreamEiPKNS_14IWEncoderParmsE
1953       0x00051B90    _ZN4DJVU8IWPixmap6Encode11close_codecEv
1954       0x00056B70    _ZN4DJVU8IWPixmap6Encode12encode_chunkENS_2GPINS_10ByteStreamEEERKNS_14IWEncoderParmsE
1955       0x00058CE0    _ZN4DJVU8IWPixmap6Encode4initERKNS_7GPixmapENS_2GPINS_7GBitmapEEENS1_8CRCBModeE
1956       0x00058CA0    _ZN4DJVU8IWPixmap6EncodeC1Ev
1957       0x00058CA0    _ZN4DJVU8IWPixmap6EncodeC2Ev
1958       0x00051E40    _ZN4DJVU8IWPixmap6EncodeD0Ev
1959       0x00051F50    _ZN4DJVU8IWPixmap6EncodeD1Ev
1960       0x00051F50    _ZN4DJVU8IWPixmap6EncodeD2Ev
1961       0x00050BE0    _ZN4DJVU8IWPixmapC1Ev
1962       0x00050BE0    _ZN4DJVU8IWPixmapC2Ev
1963       0x0004AD70    _ZN4DJVU8IWPixmapD0Ev
1964       0x0004ACD0    _ZN4DJVU8IWPixmapD1Ev
1965       0x0004ACD0    _ZN4DJVU8IWPixmapD2Ev
1966       0x0003F680    _ZN4DJVU8JB2Image13set_dimensionEii
1967       0x0003F610    _ZN4DJVU8JB2Image4initEv
1968       0x001639F0    _ZN4DJVU8JB2Image6createEv
1969       0x00043E30    _ZN4DJVU8JB2Image6decodeERKNS_2GPINS_10ByteStreamEEEPFNS1_INS_7JB2DictEEEPvES8_
1970       0x0003F6A0    _ZN4DJVU8JB2Image8add_blitERKNS_7JB2BlitE
1971       0x00163AA0    _ZN4DJVU8JB2Image8get_blitEi
1972       0x0003F550    _ZN4DJVU8JB2ImageC1Ev
1973       0x0003F550    _ZN4DJVU8JB2ImageC2Ev
1974       0x00163B80    _ZN4DJVU8JB2ImageD0Ev
1975       0x00163D20    _ZN4DJVU8JB2ImageD1Ev
1976       0x00163EB0    _ZN4DJVU9ArrayBase3delEij
1977       0x00163EF0    _ZN4DJVU9ArrayBase5checkEv
1978       0x00163F10    _ZN4DJVU9ArrayBase5emptyEv
1979       0x00163F40    _ZN4DJVU9ArrayBase5shiftEi
1980       0x00163F70    _ZN4DJVU9ArrayBase5touchEi
1981       0x00163FA0    _ZN4DJVU9ArrayBase6detachEv
1982       0x00164080    _ZN4DJVU9ArrayBase6resizeEi
1983       0x001640A0    _ZN4DJVU9ArrayBase6resizeEii
1984       0x001640E0    _ZN4DJVU9ArrayBaseC1Ev
1985       0x00164100    _ZN4DJVU9ArrayBaseC2Ev
1986       0x00164120    _ZN4DJVU9ArrayBaseD0Ev
1987       0x00164140    _ZN4DJVU9ArrayBaseD1Ev
1988       0x00164180    _ZN4DJVU9ArrayBaseD2Ev
1989       0x000C1B10    _ZN4DJVU9DjVuImage10set_rotateEi
1990       0x000B9B60    _ZN4DJVU9DjVuImage11init_rotateERKNS_8DjVuInfoE
1991       0x000C1B30    _ZN4DJVU9DjVuImage16get_decoded_annoEv
1992       0x000B7BF0    _ZN4DJVU9DjVuImage17notify_chunk_doneEPKNS_8DjVuPortERKNS_11GUTF8StringE
1993       0x000C23A0    _ZN4DJVU9DjVuImage24wait_for_complete_decodeEv
1994       0x001641C0    _ZN4DJVU9DjVuImage6createERKNS_2GPINS_8DjVuFileEEE
1995       0x00164260    _ZN4DJVU9DjVuImage6createEv
1996       0x000B93E0    _ZN4DJVU9DjVuImage6decodeERNS_10ByteStreamEPNS_13DjVuInterfaceE
1997       0x000B8450    _ZN4DJVU9DjVuImage7connectERKNS_2GPINS_8DjVuFileEEE
1998       0x000B8410    _ZN4DJVU9DjVuImageC1Ev
1999       0x000B8410    _ZN4DJVU9DjVuImageC2Ev
2000       0x00164310    _ZN4DJVU9DjVuImageD0Ev
2001       0x001643C0    _ZN4DJVU9DjVuImageD1Ev
2002       0x00095AD0    _ZN4DJVU9GIFFChunk10check_nameENS_11GUTF8StringE
2003       0x000966F0    _ZN4DJVU9GIFFChunk11decode_nameERKNS_11GUTF8StringERi
2004       0x00097550    _ZN4DJVU9GIFFChunk17get_chunks_numberERKNS_11GUTF8StringE
2005       0x00097540    _ZN4DJVU9GIFFChunk17get_chunks_numberEv
2006       0x00095E20    _ZN4DJVU9GIFFChunk4saveERNS_13IFFByteStreamEb
2007       0x00095700    _ZN4DJVU9GIFFChunk8set_nameENS_11GUTF8StringE
2008       0x00096480    _ZN4DJVU9GIFFChunk9add_chunkERKNS_2GPIS0_EEi
2009       0x00096E20    _ZN4DJVU9GIFFChunk9del_chunkERKNS_11GUTF8StringE
2010       0x000972E0    _ZN4DJVU9GIFFChunk9get_chunkERKNS_11GUTF8StringEPi
2011       0x00095590    _ZN4DJVU9GIFFChunkD0Ev
2012       0x00095470    _ZN4DJVU9GIFFChunkD1Ev
2013       0x00095470    _ZN4DJVU9GIFFChunkD2Ev
2014       0x00004200    _ZN4DJVU9GListBase12insert_afterENS_9GPositionEPNS_5GCont4NodeE
2015       0x00004270    _ZN4DJVU9GListBase13insert_beforeENS_9GPositionEPNS_5GCont4NodeE
2016       0x000042F0    _ZN4DJVU9GListBase13insert_beforeENS_9GPositionERS0_RS1_
2017       0x000043D0    _ZN4DJVU9GListBase3delERNS_9GPositionE
2018       0x000044A0    _ZN4DJVU9GListBase5emptyEv
2019       0x000041A0    _ZN4DJVU9GListBase6appendEPNS_5GCont4NodeE
2020       0x000041D0    _ZN4DJVU9GListBase7prependEPNS_5GCont4NodeE
2021       0x00004170    _ZN4DJVU9GListBaseC1ERKNS_5GCont6TraitsE
2022       0x000045F0    _ZN4DJVU9GListBaseC1ERKS0_
2023       0x00004170    _ZN4DJVU9GListBaseC2ERKNS_5GCont6TraitsE
2024       0x000045F0    _ZN4DJVU9GListBaseC2ERKS0_
2025       0x00004500    _ZN4DJVU9GListBaseD1Ev
2026       0x00004500    _ZN4DJVU9GListBaseD2Ev
2027       0x00004580    _ZN4DJVU9GListBaseaSERKS0_
2028       0x00164460    _ZN4DJVU9GPEnabled3refEv
2029       0x00164480    _ZN4DJVU9GPEnabled5unrefEv
2030       0x00015020    _ZN4DJVU9GPEnabled7destroyEv
2031       0x001644B0    _ZN4DJVU9GPEnabledC1ERKS0_
2032       0x001644D0    _ZN4DJVU9GPEnabledC1Ev
2033       0x001644F0    _ZN4DJVU9GPEnabledC2ERKS0_
2034       0x00164510    _ZN4DJVU9GPEnabledC2Ev
2035       0x00014F50    _ZN4DJVU9GPEnabledD0Ev
2036       0x00014E80    _ZN4DJVU9GPEnabledD1Ev
2037       0x00014E80    _ZN4DJVU9GPEnabledD2Ev
2038       0x00164530    _ZN4DJVU9GPEnabledaSERKS0_
2039       0x00164540    _ZN4DJVU9GPosition5checkEPv
2040       0x00164570    _ZN4DJVU9GPositionC1EPNS_5GCont4NodeEPv
2041       0x00164590    _ZN4DJVU9GPositionC1ERKS0_
2042       0x001645B0    _ZN4DJVU9GPositionC1Ev
2043       0x001645D0    _ZN4DJVU9GPositionC2EPNS_5GCont4NodeEPv
2044       0x001645F0    _ZN4DJVU9GPositionC2ERKS0_
2045       0x00164610    _ZN4DJVU9GPositionC2Ev
2046       0x00164630    _ZN4DJVU9GPositionmmEv
2047       0x00164650    _ZN4DJVU9GPositionppEv
2048       0x0004A9F0    _ZN4DJVU9IW44Image10encode_iffERNS_13IFFByteStreamEiPKNS_14IWEncoderParmsE
2049       0x00164670    _ZN4DJVU9IW44Image10get_bitmapEiRKNS_5GRectE
2050       0x001646A0    _ZN4DJVU9IW44Image10get_bitmapEv
2051       0x001646D0    _ZN4DJVU9IW44Image10get_pixmapEiRKNS_5GRectE
2052       0x00164700    _ZN4DJVU9IW44Image10get_pixmapEv
2053       0x0004AAA0    _ZN4DJVU9IW44Image12encode_chunkENS_2GPINS_10ByteStreamEEERKNS_14IWEncoderParmsE
2054       0x00050A10    _ZN4DJVU9IW44Image13PrimaryHeader6decodeENS_2GPINS_10ByteStreamEEE
2055       0x00057DB0    _ZN4DJVU9IW44Image13PrimaryHeader6encodeENS_2GPINS_10ByteStreamEEE
2056       0x00050C30    _ZN4DJVU9IW44Image13create_decodeENS0_9ImageTypeE
2057       0x00057EA0    _ZN4DJVU9IW44Image13create_encodeENS0_9ImageTypeE
2058       0x00057FE0    _ZN4DJVU9IW44Image13create_encodeERKNS_7GBitmapENS_2GPIS1_EE
2059       0x000584C0    _ZN4DJVU9IW44Image13create_encodeERKNS_7GPixmapENS_2GPINS_7GBitmapEEENS0_8CRCBModeE
2060       0x00050A90    _ZN4DJVU9IW44Image14TertiaryHeader6decodeENS_2GPINS_10ByteStreamEEEii
2061       0x00057E30    _ZN4DJVU9IW44Image14TertiaryHeader6encodeENS_2GPINS_10ByteStreamEEE
2062       0x00164730    _ZN4DJVU9IW44Image14parm_crcbdelayEi
2063       0x00050A50    _ZN4DJVU9IW44Image15SecondaryHeader6decodeENS_2GPINS_10ByteStreamEEE
2064       0x00057DF0    _ZN4DJVU9IW44Image15SecondaryHeader6encodeENS_2GPINS_10ByteStreamEEE
2065       0x0004C2F0    _ZN4DJVU9IW44Image3Map5allocEi
2066       0x0004C510    _ZN4DJVU9IW44Image3Map5imageEPaiii
2067       0x0004CF30    _ZN4DJVU9IW44Image3Map5imageEiRKNS_5GRectEPaiii
2068       0x00052EC0    _ZN4DJVU9IW44Image3Map6Encode6createEPKaiS4_i
2069       0x000546D0    _ZN4DJVU9IW44Image3Map6Encode8slashresEi
2070       0x0004C3B0    _ZN4DJVU9IW44Image3Map6allocpEi
2071       0x0004C1A0    _ZN4DJVU9IW44Image3MapC1Eii
2072       0x0004C1A0    _ZN4DJVU9IW44Image3MapC2Eii
2073       0x0004C240    _ZN4DJVU9IW44Image3MapD1Ev
2074       0x0004C240    _ZN4DJVU9IW44Image3MapD2Ev
2075       0x0004C280    _ZN4DJVU9IW44Image5AllocC1EPS1_
2076       0x0004C280    _ZN4DJVU9IW44Image5AllocC2EPS1_
2077       0x0004BD20    _ZN4DJVU9IW44Image5Block14read_liftblockEPKsPNS0_3MapE
2078       0x0004BCF0    _ZN4DJVU9IW44Image5Block4zeroEi
2079       0x0004BCC0    _ZN4DJVU9IW44Image5BlockC1Ev
2080       0x0004BCC0    _ZN4DJVU9IW44Image5BlockC2Ev
2081       0x0004F3B0    _ZN4DJVU9IW44Image5Codec13is_null_sliceEii
2082       0x0004FC60    _ZN4DJVU9IW44Image5Codec14decode_bucketsERNS_7ZPCodecEiiRNS0_5BlockEii
2083       0x0004F620    _ZN4DJVU9IW44Image5Codec14decode_prepareEiiRNS0_5BlockE
2084       0x0004F590    _ZN4DJVU9IW44Image5Codec17finish_code_sliceERNS_7ZPCodecE
2085       0x00050720    _ZN4DJVU9IW44Image5Codec6Decode10code_sliceERNS_7ZPCodecE
2086       0x00164740    _ZN4DJVU9IW44Image5Codec6DecodeD0Ev
2087       0x00164760    _ZN4DJVU9IW44Image5Codec6DecodeD1Ev
2088       0x00055F40    _ZN4DJVU9IW44Image5Codec6Encode10code_sliceERNS_7ZPCodecE
2089       0x00055720    _ZN4DJVU9IW44Image5Codec6Encode14encode_bucketsERNS_7ZPCodecEiiRNS0_5BlockES6_ii
2090       0x00054750    _ZN4DJVU9IW44Image5Codec6Encode14encode_prepareEiiiRNS0_5BlockES4_
2091       0x00055FF0    _ZN4DJVU9IW44Image5Codec6Encode16estimate_decibelEf
2092       0x00052950    _ZN4DJVU9IW44Image5Codec6EncodeC1ERNS0_3MapE
2093       0x00052950    _ZN4DJVU9IW44Image5Codec6EncodeC2ERNS0_3MapE
2094       0x00164770    _ZN4DJVU9IW44Image5Codec6EncodeD0Ev
2095       0x00164820    _ZN4DJVU9IW44Image5Codec6EncodeD1Ev
2096       0x0004DF80    _ZN4DJVU9IW44Image5CodecC1ERNS0_3MapE
2097       0x0004DF80    _ZN4DJVU9IW44Image5CodecC2ERNS0_3MapE
2098       0x0004A810    _ZN4DJVU9IW44Image5CodecD0Ev
2099       0x0004A640    _ZN4DJVU9IW44Image5CodecD1Ev
2100       0x0004A640    _ZN4DJVU9IW44Image5CodecD2Ev
2101       0x00050CF0    _ZN4DJVU9IW44Image9Transform10filter_endEv
2102       0x00050CD0    _ZN4DJVU9IW44Image9Transform12filter_beginEii
2103       0x00050D70    _ZN4DJVU9IW44Image9Transform6Decode12YCbCr_to_RGBEPNS_6GPixelEiii
2104       0x00050D00    _ZN4DJVU9IW44Image9Transform6Decode8backwardEPsiiiii
2105       0x00052A10    _ZN4DJVU9IW44Image9Transform6Encode7forwardEPsiiiii
2106       0x00052A80    _ZN4DJVU9IW44Image9Transform6Encode8RGB_to_YEPKNS_6GPixelEiiiPai
2107       0x00052BE0    _ZN4DJVU9IW44Image9Transform6Encode9RGB_to_CbEPKNS_6GPixelEiiiPai
2108       0x00052D50    _ZN4DJVU9IW44Image9Transform6Encode9RGB_to_CrEPKNS_6GPixelEiiiPai
2109       0x00050B00    _ZN4DJVU9IW44ImageC1Ev
2110       0x00050B00    _ZN4DJVU9IW44ImageC2Ev
2111       0x0004AE50    _ZN4DJVU9IW44ImageD0Ev
2112       0x0004ABF0    _ZN4DJVU9IW44ImageD1Ev
2113       0x0004ABF0    _ZN4DJVU9IW44ImageD2Ev
2114       0x001648C0    _ZN4DJVU9_ArrayRepD0Ev
2115       0x001648E0    _ZN4DJVU9_ArrayRepD1Ev
2116       0x00013CD0    _ZN4DJVUeqERKNS_5GRectES2_
2117       0x00011810    _ZN4DJVUplEPKcRKNS_11GUTF8StringE
2118       0x000118D0    _ZN4DJVUplEPKcRKNS_13GNativeStringE
2119       0x00130050    _ZN9miniobj_t4markEPFvPP9miniexp_sE
2120       0x00130060    _ZN9miniobj_t7destroyEv
2121       0x00187018    _ZN9miniobj_t9classnameE
2122       0x00130300    _ZN9miniobj_tD0Ev
2123       0x00130030    _ZN9miniobj_tD1Ev
2124       0x00130030    _ZN9miniobj_tD2Ev
2125       0x00131800    _ZN9minivar_t4markEPFvPP9miniexp_sE
2126       0x00191500    _ZN9minivar_t4varsE
2127       0x001317A0    _ZN9minivar_tC1EP9miniexp_s
2128       0x001317D0    _ZN9minivar_tC1ERKS_
2129       0x00131770    _ZN9minivar_tC1Ev
2130       0x001317A0    _ZN9minivar_tC2EP9miniexp_s
2131       0x001317D0    _ZN9minivar_tC2ERKS_
2132       0x00131770    _ZN9minivar_tC2Ev
2133       0x001648F0    _ZN9minivar_tD1Ev
2134       0x00164910    _ZN9minivar_tD2Ev
2135       0x00164930    _ZN9minivar_taSEP9miniexp_s
2136       0x00164940    _ZN9minivar_taSERKS_
2137       0x00164950    _ZN9minivar_tadEv
2138       0x00164960    _ZN9minivar_tcvRP9miniexp_sEv
2139       0x00164970    _ZNK4DJVU10ByteStream4sizeEv
2140       0x0002DA90    _ZNK4DJVU10ByteStream5Stdio4tellEv
2141       0x001649F0    _ZNK4DJVU10ByteStream6Memory4sizeEv
2142       0x0002CF20    _ZNK4DJVU10ByteStream6Memory4tellEv
2143       0x00164A00    _ZNK4DJVU10ByteStream6Static4sizeEv
2144       0x0002CF30    _ZNK4DJVU10ByteStream6Static4tellEv
2145       0x00164A10    _ZNK4DJVU10ByteStream7Wrapper4tellEv
2146       0x00164A30    _ZNK4DJVU10ByteStream7WrapperadEv
2147       0x000EAAA0    _ZNK4DJVU10DjVuNavDir11page_to_urlEi
2148       0x000EA5C0    _ZNK4DJVU10DjVuNavDir11url_to_pageERKNS_4GURLE
2149       0x000EA280    _ZNK4DJVU10DjVuNavDir12name_to_pageEPKc
2150       0x000EA7F0    _ZNK4DJVU10DjVuNavDir12page_to_nameEi
2151       0x000EA220    _ZNK4DJVU10DjVuNavDir13get_pages_numEv
2152       0x00164A40    _ZNK4DJVU10GException10get_sourceEv
2153       0x00164A50    _ZNK4DJVU10GException12get_functionEv
2154       0x00002BF0    _ZNK4DJVU10GException6perrorEv
2155       0x00164A60    _ZNK4DJVU10GException8get_fileEv
2156       0x00164A70    _ZNK4DJVU10GException8get_lineEv
2157       0x00002DF0    _ZNK4DJVU10GException9cmp_causeEPKc
2158       0x00002BD0    _ZNK4DJVU10GException9get_causeEv
2159       0x000137A0    _ZNK4DJVU10GSafeFlagscvlEv
2160       0x00006EA0    _ZNK4DJVU10GStringRep10isCharTypeEPFbmEPKcb
2161       0x00006FC0    _ZNK4DJVU10GStringRep12nextCharTypeEPFbmEiib
2162       0x0000B630    _ZNK4DJVU10GStringRep12nextNonSpaceEii
2163       0x0000B7A0    _ZNK4DJVU10GStringRep13firstEndSpaceEii
2164       0x000051D0    _ZNK4DJVU10GStringRep13get_remainderEv
2165       0x0000AA60    _ZNK4DJVU10GStringRep3cmpEPKci
2166       0x00008010    _ZNK4DJVU10GStringRep4UTF812UCS4toStringEjPhPi
2167       0x00007E30    _ZNK4DJVU10GStringRep4UTF812getValidUCS4ERPKc
2168       0x0000AA90    _ZNK4DJVU10GStringRep4UTF83cmpERKNS_2GPIS0_EEi
2169       0x0000A920    _ZNK4DJVU10GStringRep4UTF85blankEj
2170       0x0000B870    _ZNK4DJVU10GStringRep4UTF85ncopyEPwi
2171       0x00004C30    _ZNK4DJVU10GStringRep4UTF85toIntEv
2172       0x00006250    _ZNK4DJVU10GStringRep4UTF86appendERKNS_2GPIS0_EE
2173       0x00004BE0    _ZNK4DJVU10GStringRep4UTF86isUTF8Ev
2174       0x00010A70    _ZNK4DJVU10GStringRep4UTF86toLongEiRii
2175       0x00005250    _ZNK4DJVU10GStringRep4UTF86toThisERKNS_2GPIS0_EES5_
2176       0x00005000    _ZNK4DJVU10GStringRep4UTF86toUTF8Eb
2177       0x00010DB0    _ZNK4DJVU10GStringRep4UTF87toULongEiRii
2178       0x00007E50    _ZNK4DJVU10GStringRep4UTF88is_validEv
2179       0x000110F0    _ZNK4DJVU10GStringRep4UTF88toDoubleEiRi
2180       0x0000BA00    _ZNK4DJVU10GStringRep4UTF88toNativeENS0_10EscapeModeE
2181       0x000079E0    _ZNK4DJVU10GStringRep5setatEic
2182       0x0000B9D0    _ZNK4DJVU10GStringRep6Native12UCS4toStringEjPhPi
2183       0x0000BD90    _ZNK4DJVU10GStringRep6Native12getValidUCS4ERPKc
2184       0x0000AC60    _ZNK4DJVU10GStringRep6Native3cmpERKNS_2GPIS0_EEi
2185       0x00009CF0    _ZNK4DJVU10GStringRep6Native5blankEj
2186       0x000052A0    _ZNK4DJVU10GStringRep6Native5ncopyEPwi
2187       0x00004F30    _ZNK4DJVU10GStringRep6Native5toIntEv
2188       0x000067F0    _ZNK4DJVU10GStringRep6Native6appendERKNS_2GPIS0_EE
2189       0x00004D20    _ZNK4DJVU10GStringRep6Native6toLongEiRii
2190       0x00005200    _ZNK4DJVU10GStringRep6Native6toThisERKNS_2GPIS0_EES5_
2191       0x0000C270    _ZNK4DJVU10GStringRep6Native6toUTF8Eb
2192       0x00004CC0    _ZNK4DJVU10GStringRep6Native7toULongEiRii
2193       0x00004BF0    _ZNK4DJVU10GStringRep6Native8isNativeEv
2194       0x00004F50    _ZNK4DJVU10GStringRep6Native8is_validEv
2195       0x00004C60    _ZNK4DJVU10GStringRep6Native8toDoubleEiRi
2196       0x000050F0    _ZNK4DJVU10GStringRep6Native8toNativeENS0_10EscapeModeE
2197       0x00006400    _ZNK4DJVU10GStringRep6appendEPKc
2198       0x00008030    _ZNK4DJVU10GStringRep6concatEPKcRKNS_2GPIS0_EE
2199       0x000060C0    _ZNK4DJVU10GStringRep6concatEPKcS2_
2200       0x00008300    _ZNK4DJVU10GStringRep6concatERKNS_2GPIS0_EEPKc
2201       0x000085D0    _ZNK4DJVU10GStringRep6concatERKNS_2GPIS0_EES4_
2202       0x00006D40    _ZNK4DJVU10GStringRep6getbufEi
2203       0x00164A80    _ZNK4DJVU10GStringRep6isUTF8Ev
2204       0x00007460    _ZNK4DJVU10GStringRep6searchEPKci
2205       0x000073F0    _ZNK4DJVU10GStringRep6searchEci
2206       0x00005920    _ZNK4DJVU10GStringRep6strdupEPKc
2207       0x00005C70    _ZNK4DJVU10GStringRep6substrEPKcii
2208       0x00005EB0    _ZNK4DJVU10GStringRep6substrEPKjii
2209       0x0000BEA0    _ZNK4DJVU10GStringRep6substrEPKtii
2210       0x00007060    _ZNK4DJVU10GStringRep6tocaseEPFbmEPFmmE
2211       0x000073B0    _ZNK4DJVU10GStringRep6upcaseEv
2212       0x0011AA10    _ZNK4DJVU10GStringRep7Unicode13get_remainderEv
2213       0x0000B5C0    _ZNK4DJVU10GStringRep7getUCS4ERji
2214       0x00007680    _ZNK4DJVU10GStringRep7rsearchEPKci
2215       0x00007570    _ZNK4DJVU10GStringRep7rsearchEci
2216       0x0000F570    _ZNK4DJVU10GStringRep7vformatEPc
2217       0x00007780    _ZNK4DJVU10GStringRep8containsEPKci
2218       0x00007370    _ZNK4DJVU10GStringRep8downcaseEv
2219       0x00164A90    _ZNK4DJVU10GStringRep8isNativeEv
2220       0x0000B770    _ZNK4DJVU10GStringRep8nextCharEi
2221       0x0000B750    _ZNK4DJVU10GStringRep9nextSpaceEii
2222       0x000078A0    _ZNK4DJVU10GStringRep9rcontainsEPKci
2223       0x0000FDA0    _ZNK4DJVU10GStringRep9toEscapedEb
2224       0x00164AA0    _ZNK4DJVU10lt_XMLTags11get_allTagsEv
2225       0x00164AB0    _ZNK4DJVU10lt_XMLTags11get_contentEv
2226       0x0012F3F0    _ZNK4DJVU10lt_XMLTags5writeERNS_10ByteStreamEb
2227       0x00164AC0    _ZNK4DJVU10lt_XMLTags7get_rawEv
2228       0x00164AD0    _ZNK4DJVU10lt_XMLTags8containsENS_11GUTF8StringE
2229       0x00164B50    _ZNK4DJVU10lt_XMLTags8get_LineEv
2230       0x0012F220    _ZNK4DJVU10lt_XMLTags8get_TagsEPKc
2231       0x00164B60    _ZNK4DJVU10lt_XMLTags8get_argsEv
2232       0x00164B70    _ZNK4DJVU10lt_XMLTags8get_nameEv
2233       0x00164B80    _ZNK4DJVU10lt_XMLTagsixENS_11GUTF8StringE
2234       0x00164CB0    _ZNK4DJVU10lt_XMLTagsixERKNS_9GPositionE
2235       0x00164CD0    _ZNK4DJVU11DjVuPalette14index_to_colorEiPh
2236       0x00164DC0    _ZNK4DJVU11DjVuPalette14index_to_colorEiRNS_6GPixelE
2237       0x0002BD60    _ZNK4DJVU11DjVuPalette18encode_rgb_entriesERNS_10ByteStreamE
2238       0x00164DF0    _ZNK4DJVU11DjVuPalette4sizeEv
2239       0x0002BEA0    _ZNK4DJVU11DjVuPalette6encodeENS_2GPINS_10ByteStreamEEE
2240       0x00164E10    _ZNK4DJVU11DjVuPalette9get_colorEiRNS_6GPixelE
2241       0x0000AF70    _ZNK4DJVU11GBaseString12NativeToUTF8Ev
2242       0x0000B240    _ZNK4DJVU11GBaseString12UTF8ToNativeEbNS0_10EscapeModeE
2243       0x00164F10    _ZNK4DJVU11GBaseString12nextNonSpaceEii
2244       0x00164F40    _ZNK4DJVU11GBaseString13firstEndSpaceEii
2245       0x00164F70    _ZNK4DJVU11GBaseString14CheckSubscriptEi
2246       0x0000F200    _ZNK4DJVU11GBaseString14getNative2UTF8Ev
2247       0x0000B440    _ZNK4DJVU11GBaseString14getUTF82NativeENS0_10EscapeModeE
2248       0x00164FB0    _ZNK4DJVU11GBaseString3cmpEPKci
2249       0x00164FE0    _ZNK4DJVU11GBaseString3cmpERKS0_i
2250       0x00165010    _ZNK4DJVU11GBaseString3cmpEc
2251       0x00165040    _ZNK4DJVU11GBaseString5ncopyEPwi
2252       0x00165080    _ZNK4DJVU11GBaseString5toIntEv
2253       0x0000B6D0    _ZNK4DJVU11GBaseString6is_intEv
2254       0x001650A0    _ZNK4DJVU11GBaseString6lengthEv
2255       0x001650C0    _ZNK4DJVU11GBaseString6searchEPKci
2256       0x001650F0    _ZNK4DJVU11GBaseString6searchEci
2257       0x00165130    _ZNK4DJVU11GBaseString6toLongEiRii
2258       0x00165180    _ZNK4DJVU11GBaseString7rsearchEPKci
2259       0x001651B0    _ZNK4DJVU11GBaseString7rsearchEci
2260       0x001651F0    _ZNK4DJVU11GBaseString7toULongEiRii
2261       0x00165240    _ZNK4DJVU11GBaseString8containsEPKci
2262       0x0000B650    _ZNK4DJVU11GBaseString8is_floatEv
2263       0x00165270    _ZNK4DJVU11GBaseString8is_validEv
2264       0x00165290    _ZNK4DJVU11GBaseString8nextCharEi
2265       0x001652C0    _ZNK4DJVU11GBaseString8toDoubleEiRi
2266       0x00165300    _ZNK4DJVU11GBaseString9nextSpaceEii
2267       0x00165330    _ZNK4DJVU11GBaseString9rcontainsEPKci
2268       0x00165360    _ZNK4DJVU11GBaseStringcvPKcEv
2269       0x00165380    _ZNK4DJVU11GBaseStringeqEPKc
2270       0x001653A0    _ZNK4DJVU11GBaseStringeqERKS0_
2271       0x001653C0    _ZNK4DJVU11GBaseStringgeEPKc
2272       0x001653E0    _ZNK4DJVU11GBaseStringgeERKS0_
2273       0x00165400    _ZNK4DJVU11GBaseStringgeEc
2274       0x00165420    _ZNK4DJVU11GBaseStringgtEPKc
2275       0x00165440    _ZNK4DJVU11GBaseStringgtERKS0_
2276       0x00165460    _ZNK4DJVU11GBaseStringgtEc
2277       0x00165480    _ZNK4DJVU11GBaseStringixEi
2278       0x001654C0    _ZNK4DJVU11GBaseStringleEPKc
2279       0x001654E0    _ZNK4DJVU11GBaseStringleERKS0_
2280       0x00165500    _ZNK4DJVU11GBaseStringleEc
2281       0x00165520    _ZNK4DJVU11GBaseStringltEPKc
2282       0x00165540    _ZNK4DJVU11GBaseStringltERKS0_
2283       0x00165560    _ZNK4DJVU11GBaseStringltEc
2284       0x00165580    _ZNK4DJVU11GBaseStringneEPKc
2285       0x001655A0    _ZNK4DJVU11GBaseStringneERKS0_
2286       0x001655C0    _ZNK4DJVU11GBaseStringntEv
2287       0x00011420    _ZNK4DJVU11GBaseStringplERKNS_11GUTF8StringE
2288       0x00009180    _ZNK4DJVU11GBaseStringplERKNS_13GNativeStringE
2289       0x0000DB90    _ZNK4DJVU11GUTF8String11fromEscapedENS_4GMapIS0_S0_EE
2290       0x0000EF50    _ZNK4DJVU11GUTF8String11fromEscapedEv
2291       0x001655D0    _ZNK4DJVU11GUTF8String13get_remainderEv
2292       0x0000DB50    _ZNK4DJVU11GUTF8String6substrEii
2293       0x001656C0    _ZNK4DJVU11GUTF8String6upcaseEv
2294       0x00165790    _ZNK4DJVU11GUTF8String8downcaseEv
2295       0x00165860    _ZNK4DJVU11GUTF8String9toEscapedEb
2296       0x0000CE20    _ZNK4DJVU11GUTF8StringplEPKc
2297       0x0000CCA0    _ZNK4DJVU11GUTF8StringplERKNS_11GBaseStringE
2298       0x00011680    _ZNK4DJVU11GUTF8StringplERKNS_13GNativeStringE
2299       0x0000CD60    _ZNK4DJVU11GUTF8StringplERKS0_
2300       0x00035B10    _ZNK4DJVU12BSByteStream4tellEv
2301       0x00165940    _ZNK4DJVU12DjVuDocument10id_to_pageERKNS_11GUTF8StringE
2302       0x000CB480    _ZNK4DJVU12DjVuDocument10invent_urlERKNS_11GUTF8StringE
2303       0x00165A30    _ZNK4DJVU12DjVuDocument10is_bundledEv
2304       0x00165A50    _ZNK4DJVU12DjVuDocument10is_init_okEv
2305       0x00165A70    _ZNK4DJVU12DjVuDocument10page_to_idEi
2306       0x00165B50    _ZNK4DJVU12DjVuDocument11get_nav_dirEv
2307       0x000C8DA0    _ZNK4DJVU12DjVuDocument11page_to_urlEi
2308       0x000C86D0    _ZNK4DJVU12DjVuDocument11url_to_fileERKNS_4GURLEb
2309       0x000C95E0    _ZNK4DJVU12DjVuDocument11url_to_pageERKNS_4GURLE
2310       0x00165B80    _ZNK4DJVU12DjVuDocument12can_compressEv
2311       0x00165B90    _ZNK4DJVU12DjVuDocument12get_djvm_dirEv
2312       0x00165D00    _ZNK4DJVU12DjVuDocument12get_djvm_navEv
2313       0x00165D50    _ZNK4DJVU12DjVuDocument12get_doc_typeEv
2314       0x00165D60    _ZNK4DJVU12DjVuDocument12get_init_urlEv
2315       0x00165D90    _ZNK4DJVU12DjVuDocument12needs_renameEv
2316       0x000D4F50    _ZNK4DJVU12DjVuDocument12writeDjVuXMLERKNS_2GPINS_10ByteStreamEEEi
2317       0x00165DA0    _ZNK4DJVU12DjVuDocument13get_djvm_dir0Ev
2318       0x000CBD50    _ZNK4DJVU12DjVuDocument13get_djvu_fileEib
2319       0x00165E90    _ZNK4DJVU12DjVuDocument13get_doc_flagsEv
2320       0x000C8C90    _ZNK4DJVU12DjVuDocument13get_pages_numEv
2321       0x000C72E0    _ZNK4DJVU12DjVuDocument14get_int_prefixEv
2322       0x00165EB0    _ZNK4DJVU12DjVuDocument14is_init_failedEv
2323       0x00165ED0    _ZNK4DJVU12DjVuDocument16is_init_completeEv
2324       0x00165EF0    _ZNK4DJVU12DjVuDocument17needs_compressionEv
2325       0x00165F00    _ZNK4DJVU12DjVuDocument18get_init_data_poolEv
2326       0x000C8D30    _ZNK4DJVU12DjVuDocument18wait_get_pages_numEv
2327       0x00165F30    _ZNK4DJVU12DjVuDocument20get_thumbnails_gammaEv
2328       0x000C5B20    _ZNK4DJVU12DjVuDocument5checkEv
2329       0x000D1160    _ZNK4DJVU12DjVuDocument8get_pageEibPNS_8DjVuPortE
2330       0x00165F40    _ZNK4DJVU12DjVuDocument8inheritsERKNS_11GUTF8StringE
2331       0x00166020    _ZNK4DJVU12DjVuDocument9get_cacheEv
2332       0x000C9BE0    _ZNK4DJVU12DjVuDocument9id_to_urlERKNS_11GUTF8StringE
2333       0x00166030    _ZNK4DJVU12DjVuDocument9url_to_idERKNS_4GURLE
2334       0x00166060    _ZNK4DJVU12GPBufferBasecviEv
2335       0x000F1340    _ZNK4DJVU13DjVuDocEditor10page_to_idEi
2336       0x00101760    _ZNK4DJVU13DjVuDocEditor11get_doc_urlEv
2337       0x000F09A0    _ZNK4DJVU13DjVuDocEditor11url_to_fileERKNS_4GURLEb
2338       0x00101500    _ZNK4DJVU13DjVuDocEditor12can_be_savedEv
2339       0x001014F0    _ZNK4DJVU13DjVuDocEditor17get_orig_doc_typeEv
2340       0x00101700    _ZNK4DJVU13DjVuDocEditor17get_save_doc_typeEv
2341       0x000FBEB0    _ZNK4DJVU13DjVuDocEditor18get_thumbnails_numEv
2342       0x000FC080    _ZNK4DJVU13DjVuDocEditor19get_thumbnails_sizeEv
2343       0x000EE810    _ZNK4DJVU13DjVuDocEditor8inheritsERKNS_11GUTF8StringE
2344       0x00166080    _ZNK4DJVU13GNativeString6substrEii
2345       0x001660C0    _ZNK4DJVU13GNativeString6upcaseEv
2346       0x00166190    _ZNK4DJVU13GNativeString8downcaseEv
2347       0x00166260    _ZNK4DJVU13GNativeString9toEscapedEb
2348       0x00011FD0    _ZNK4DJVU13GNativeStringplEPKc
2349       0x00011D90    _ZNK4DJVU13GNativeStringplERKNS_11GBaseStringE
2350       0x000114E0    _ZNK4DJVU13GNativeStringplERKNS_11GUTF8StringE
2351       0x00011EB0    _ZNK4DJVU13GNativeStringplERKS0_
2352       0x000329D0    _ZNK4DJVU13IFFByteStream4tellEv
2353       0x00166340    _ZNK4DJVU14DjVuMemoryPort8inheritsERKNS_11GUTF8StringE
2354       0x00166380    _ZNK4DJVU14DjVuSimplePort8inheritsERKNS_11GUTF8StringE
2355       0x0005E3A0    _ZNK4DJVU14PoolByteStream4tellEv
2356       0x0012FB80    _ZNK4DJVU14lt_XMLContents5writeERNS_10ByteStreamE
2357       0x00113DE0    _ZNK4DJVU15DjVuMessageLite12LookUpSingleERKNS_11GUTF8StringE
2358       0x00112E50    _ZNK4DJVU15DjVuMessageLite6LookUpERKNS_11GUTF8StringE
2359       0x00111F70    _ZNK4DJVU15DjVuMessageLite8LookUpIDERKNS_11GUTF8StringERS1_S4_
2360       0x00114490    _ZNK4DJVU15DjVuMessageLite9InsertArgERNS_11GUTF8StringEiRKS1_
2361       0x0011D4E0    _ZNK4DJVU17UnicodeByteStream4tellEv
2362       0x001663C0    _ZNK4DJVU18ProgressByteStream4tellEv
2363       0x000703F0    _ZNK4DJVU4GURL10cgi_valuesEv
2364       0x0006E820    _ZNK4DJVU4GURL10deletefileEv
2365       0x0006F2D0    _ZNK4DJVU4GURL10get_stringERKNS_11GUTF8StringE
2366       0x0006CDC0    _ZNK4DJVU4GURL10get_stringEb
2367       0x0006D750    _ZNK4DJVU4GURL12UTF8FilenameEv
2368       0x000710F0    _ZNK4DJVU4GURL13cgi_argumentsEv
2369       0x000709D0    _ZNK4DJVU4GURL13djvu_cgi_nameEi
2370       0x0006D3B0    _ZNK4DJVU4GURL13hash_argumentEv
2371       0x0006E990    _ZNK4DJVU4GURL13is_local_pathEv
2372       0x0006DCD0    _ZNK4DJVU4GURL14NativeFilenameEv
2373       0x0006FE20    _ZNK4DJVU4GURL14djvu_cgi_namesEv
2374       0x000704F0    _ZNK4DJVU4GURL14djvu_cgi_valueEi
2375       0x0006F840    _ZNK4DJVU4GURL15djvu_cgi_valuesEv
2376       0x00074F30    _ZNK4DJVU4GURL15follow_symlinksEv
2377       0x0006E1C0    _ZNK4DJVU4GURL17is_local_file_urlEv
2378       0x00070EB0    _ZNK4DJVU4GURL18djvu_cgi_argumentsEv
2379       0x00074F60    _ZNK4DJVU4GURL4baseEv
2380       0x0006DD90    _ZNK4DJVU4GURL4nameEv
2381       0x0006E0E0    _ZNK4DJVU4GURL5fnameEv
2382       0x00075360    _ZNK4DJVU4GURL5mkdirEv
2383       0x0006E480    _ZNK4DJVU4GURL6is_dirEv
2384       0x0006ED30    _ZNK4DJVU4GURL7is_fileEv
2385       0x000755E0    _ZNK4DJVU4GURL7listdirEv
2386       0x00070D20    _ZNK4DJVU4GURL8cgi_nameEi
2387       0x00075BD0    _ZNK4DJVU4GURL8cleardirEi
2388       0x001663E0    _ZNK4DJVU4GURL8is_emptyEv
2389       0x00166460    _ZNK4DJVU4GURL8is_validEv
2390       0x0006F0C0    _ZNK4DJVU4GURL8pathnameEv
2391       0x00166490    _ZNK4DJVU4GURL8protocolEv
2392       0x0006E320    _ZNK4DJVU4GURL8renametoERKS0_
2393       0x00070470    _ZNK4DJVU4GURL9cgi_namesEv
2394       0x00070840    _ZNK4DJVU4GURL9cgi_valueEi
2395       0x0006DFA0    _ZNK4DJVU4GURL9extensionEv
2396       0x00166550    _ZNK4DJVU4GURLcvPKcEv
2397       0x0006CE10    _ZNK4DJVU4GURLeqERKS0_
2398       0x00166570    _ZNK4DJVU4GURLneERKS0_
2399       0x00166590    _ZNK4DJVU5GRect4areaEv
2400       0x001665C0    _ZNK4DJVU5GRect5widthEv
2401       0x001665D0    _ZNK4DJVU5GRect6heightEv
2402       0x001665E0    _ZNK4DJVU5GRect7isemptyEv
2403       0x00013F50    _ZNK4DJVU5GRect8containsERKS0_
2404       0x00166600    _ZNK4DJVU5GRect8containsEii
2405       0x00166630    _ZNK4DJVU6GPBase3getEv
2406       0x00166640    _ZNK4DJVU6GPBaseeqERKS0_
2407       0x000D9710    _ZNK4DJVU7DjVmDir10id_to_fileERKNS_11GUTF8StringE
2408       0x00166660    _ZNK4DJVU7DjVmDir10is_bundledEv
2409       0x00166680    _ZNK4DJVU7DjVmDir11is_indirectEv
2410       0x000D9A60    _ZNK4DJVU7DjVmDir11pos_to_fileEiPi
2411       0x000D9D90    _ZNK4DJVU7DjVmDir12get_file_posEPKNS0_4FileE
2412       0x000D9EF0    _ZNK4DJVU7DjVmDir12get_page_posEi
2413       0x000D9570    _ZNK4DJVU7DjVmDir12name_to_fileERKNS_11GUTF8StringE
2414       0x000D9400    _ZNK4DJVU7DjVmDir12page_to_fileEi
2415       0x000D9CE0    _ZNK4DJVU7DjVmDir13get_files_numEv
2416       0x000D9D30    _ZNK4DJVU7DjVmDir13get_pages_numEv
2417       0x000D98B0    _ZNK4DJVU7DjVmDir13title_to_fileERKNS_11GUTF8StringE
2418       0x000D9C20    _ZNK4DJVU7DjVmDir14get_files_listEv
2419       0x000DA010    _ZNK4DJVU7DjVmDir20get_shared_anno_fileEv
2420       0x001667A0    _ZNK4DJVU7DjVmDir4File10is_includeEv
2421       0x001667B0    _ZNK4DJVU7DjVmDir4File12get_page_numEv
2422       0x000D6650    _ZNK4DJVU7DjVmDir4File12get_str_typeEv
2423       0x001667C0    _ZNK4DJVU7DjVmDir4File13get_load_nameEv
2424       0x000D5DA0    _ZNK4DJVU7DjVmDir4File13get_save_nameEv
2425       0x001667D0    _ZNK4DJVU7DjVmDir4File13is_thumbnailsEv
2426       0x001667F0    _ZNK4DJVU7DjVmDir4File14is_shared_annoEv
2427       0x00166810    _ZNK4DJVU7DjVmDir4File7is_pageEv
2428       0x00166830    _ZNK4DJVU7DjVmDir4File9get_titleEv
2429       0x000D91E0    _ZNK4DJVU7DjVmDir6encodeERKNS_2GPINS_10ByteStreamEEEb
2430       0x000D8590    _ZNK4DJVU7DjVmDir6encodeERKNS_2GPINS_10ByteStreamEEEbb
2431       0x000E15C0    _ZNK4DJVU7DjVmDoc8get_dataERKNS_11GUTF8StringE
2432       0x000E58E0    _ZNK4DJVU7DjVmDoc9save_fileERKNS_4GURLERKNS_7DjVmDir4FileE
2433       0x000E5450    _ZNK4DJVU7DjVmDoc9save_fileERKNS_4GURLERKNS_7DjVmDir4FileEPNS_4GMapINS_11GUTF8StringES9_EE
2434       0x000E5130    _ZNK4DJVU7DjVmDoc9save_fileERKNS_4GURLERKNS_7DjVmDir4FileERNS_4GMapINS_11GUTF8StringES9_EERKNS_2GPINS_8DataPoolEEE
2435       0x000E5940    _ZNK4DJVU7DjVmDoc9save_pageERKNS_4GURLERKNS_7DjVmDir4FileE
2436       0x000E5910    _ZNK4DJVU7DjVmDoc9save_pageERKNS_4GURLERKNS_7DjVmDir4FileERNS_4GMapINS_11GUTF8StringES9_EE
2437       0x00092580    _ZNK4DJVU7DjVuANT10encode_rawEv
2438       0x0008E8C0    _ZNK4DJVU7DjVuANT10get_xmlmapERKNS_11GUTF8StringEi
2439       0x0008E810    _ZNK4DJVU7DjVuANT10writeParamERNS_10ByteStreamE
2440       0x0008DF10    _ZNK4DJVU7DjVuANT13get_paramtagsEv
2441       0x0008EF20    _ZNK4DJVU7DjVuANT16get_memory_usageEv
2442       0x00093870    _ZNK4DJVU7DjVuANT4copyEv
2443       0x00093750    _ZNK4DJVU7DjVuANT8is_emptyEv
2444       0x0008EB20    _ZNK4DJVU7DjVuANT8writeMapERNS_10ByteStreamERKNS_11GUTF8StringEi
2445       0x000A2B60    _ZNK4DJVU7DjVuTXT11get_xmlTextEi
2446       0x0009FE30    _ZNK4DJVU7DjVuTXT15has_valid_zonesEv
2447       0x000A2070    _ZNK4DJVU7DjVuTXT16get_memory_usageEv
2448       0x000A1240    _ZNK4DJVU7DjVuTXT17find_text_in_rectENS_5GRectERNS_11GUTF8StringE
2449       0x000A0F40    _ZNK4DJVU7DjVuTXT19find_text_with_rectERKNS_5GRectERNS_11GUTF8StringEi
2450       0x000A07A0    _ZNK4DJVU7DjVuTXT4Zone10find_zonesERNS_5GListIPS1_EEii
2451       0x00166860    _ZNK4DJVU7DjVuTXT4Zone10get_parentEv
2452       0x000A0910    _ZNK4DJVU7DjVuTXT4Zone12get_smallestERNS_5GListINS_5GRectEEE
2453       0x000A0A20    _ZNK4DJVU7DjVuTXT4Zone12get_smallestERNS_5GListINS_5GRectEEEi
2454       0x000A0600    _ZNK4DJVU7DjVuTXT4Zone18get_text_with_rectERKNS_5GRectERiS5_
2455       0x0009F470    _ZNK4DJVU7DjVuTXT4Zone6encodeERKNS_2GPINS_10ByteStreamEEEPKS1_S8_
2456       0x0009F3F0    _ZNK4DJVU7DjVuTXT4Zone6memuseEv
2457       0x000A0480    _ZNK4DJVU7DjVuTXT4copyEv
2458       0x0009FFD0    _ZNK4DJVU7DjVuTXT6encodeERKNS_2GPINS_10ByteStreamEEE
2459       0x000A0D60    _ZNK4DJVU7DjVuTXT9get_zonesEiPKNS0_4ZoneERNS_5GListIPS1_EE
2460       0x000A2860    _ZNK4DJVU7DjVuTXT9writeTextERNS_10ByteStreamEi
2461       0x00018350    _ZNK4DJVU7GBitmap12rle_get_bitsEiPh
2462       0x00018790    _ZNK4DJVU7GBitmap12rle_get_rectERNS_5GRectE
2463       0x000185D0    _ZNK4DJVU7GBitmap12rle_get_runsEiPi
2464       0x00017090    _ZNK4DJVU7GBitmap16get_memory_usageEv
2465       0x00166870    _ZNK4DJVU7GBitmap4rowsEv
2466       0x0001BFD0    _ZNK4DJVU7GBitmap6encodeERPhRNS_8GPBufferIhEE
2467       0x00166880    _ZNK4DJVU7GBitmap7columnsEv
2468       0x00166890    _ZNK4DJVU7GBitmap7monitorEv
2469       0x001668A0    _ZNK4DJVU7GBitmap7rowsizeEv
2470       0x001668B0    _ZNK4DJVU7GBitmap9get_graysEv
2471       0x001668C0    _ZNK4DJVU7GBitmapixEi
2472       0x00166920    _ZNK4DJVU7GPixmap16get_memory_usageEv
2473       0x00166940    _ZNK4DJVU7GPixmap4rowsEv
2474       0x00166950    _ZNK4DJVU7GPixmap7columnsEv
2475       0x00166960    _ZNK4DJVU7GPixmap7rowsizeEv
2476       0x0001FD30    _ZNK4DJVU7GPixmap8save_ppmERNS_10ByteStreamEi
2477       0x00166970    _ZNK4DJVU7GPixmap9get_graysEv
2478       0x00166980    _ZNK4DJVU7GPixmapixEi
2479       0x001669B0    _ZNK4DJVU7JB2Dict15get_shape_countEv
2480       0x0003F220    _ZNK4DJVU7JB2Dict16get_memory_usageEv
2481       0x001669D0    _ZNK4DJVU7JB2Dict18get_inherited_dictEv
2482       0x00166A00    _ZNK4DJVU7JB2Dict25get_inherited_shape_countEv
2483       0x000479E0    _ZNK4DJVU7JB2Dict6encodeERKNS_2GPINS_10ByteStreamEEE
2484       0x0003ED80    _ZNK4DJVU7JB2Dict9get_shapeEi
2485       0x00166A10    _ZNK4DJVU8ArrayRep4sizeEv
2486       0x00166A30    _ZNK4DJVU8ArrayRep6hboundEv
2487       0x00166A40    _ZNK4DJVU8ArrayRep6lboundEv
2488       0x00062D40    _ZNK4DJVU8DataPool10get_lengthEv
2489       0x00166A50    _ZNK4DJVU8DataPool12is_connectedEv
2490       0x00166A80    _ZNK4DJVU8DataPool14simple_compareERS0_
2491       0x00166B10    _ZNK4DJVU8DataPool6is_eofEv
2492       0x00062D90    _ZNK4DJVU8DataPool8get_sizeEii
2493       0x00166B20    _ZNK4DJVU8DataPool8get_sizeEv
2494       0x000613C0    _ZNK4DJVU8DataPool9BlockList9get_bytesEii
2495       0x000615D0    _ZNK4DJVU8DataPool9BlockList9get_rangeEii
2496       0x000E6210    _ZNK4DJVU8DjVmDir08get_sizeEv
2497       0x00093B50    _ZNK4DJVU8DjVuAnno10get_xmlmapERKNS_11GUTF8StringEi
2498       0x00093E10    _ZNK4DJVU8DjVuAnno10writeParamERNS_10ByteStreamE
2499       0x00093DC0    _ZNK4DJVU8DjVuAnno13get_paramtagsEv
2500       0x00166B50    _ZNK4DJVU8DjVuAnno16get_memory_usageEv
2501       0x00094440    _ZNK4DJVU8DjVuAnno4copyEv
2502       0x00093CC0    _ZNK4DJVU8DjVuAnno8writeMapERNS_10ByteStreamERKNS_11GUTF8StringEi
2503       0x00166B70    _ZNK4DJVU8DjVuFile11is_decodingEv
2504       0x00166B90    _ZNK4DJVU8DjVuFile11is_modifiedEv
2505       0x00166BB0    _ZNK4DJVU8DjVuFile12can_compressEv
2506       0x00166BD0    _ZNK4DJVU8DjVuFile12is_decode_okEv
2507       0x00166BF0    _ZNK4DJVU8DjVuFile15is_data_presentEv
2508       0x000A67E0    _ZNK4DJVU8DjVuFile16get_memory_usageEv
2509       0x00166C10    _ZNK4DJVU8DjVuFile16is_decode_failedEv
2510       0x00166C30    _ZNK4DJVU8DjVuFile17is_decode_stoppedEv
2511       0x00166C50    _ZNK4DJVU8DjVuFile17needs_compressionEv
2512       0x00166C70    _ZNK4DJVU8DjVuFile18get_init_data_poolEv
2513       0x00166CA0    _ZNK4DJVU8DjVuFile19is_all_data_presentEv
2514       0x00166CC0    _ZNK4DJVU8DjVuFile22are_incl_files_createdEv
2515       0x000A5740    _ZNK4DJVU8DjVuFile5checkEv
2516       0x00166CE0    _ZNK4DJVU8DjVuFile7get_urlEv
2517       0x00166D10    _ZNK4DJVU8DjVuFile8inheritsERKNS_11GUTF8StringE
2518       0x00166DF0    _ZNK4DJVU8DjVuFile9get_flagsEv
2519       0x000A3CC0    _ZNK4DJVU8DjVuInfo10writeParamERNS_10ByteStreamE
2520       0x000A37E0    _ZNK4DJVU8DjVuInfo13get_paramtagsEv
2521       0x000A37D0    _ZNK4DJVU8DjVuInfo16get_memory_usageEv
2522       0x00166E10    _ZNK4DJVU8DjVuPort8inheritsERKNS_11GUTF8StringE
2523       0x000A2C50    _ZNK4DJVU8DjVuText11get_xmlTextEi
2524       0x00166E30    _ZNK4DJVU8DjVuText16get_memory_usageEv
2525       0x000A2730    _ZNK4DJVU8DjVuText4copyEv
2526       0x000A29C0    _ZNK4DJVU8DjVuText9writeTextERNS_10ByteStreamEi
2527       0x0008BE20    _ZNK4DJVU8GLObject10get_numberEv
2528       0x0008BDA0    _ZNK4DJVU8GLObject10get_stringEv
2529       0x0008BDE0    _ZNK4DJVU8GLObject10get_symbolEv
2530       0x0008B100    _ZNK4DJVU8GLObject24throw_can_not_convert_toENS0_12GLObjectTypeE
2531       0x0008A8C0    _ZNK4DJVU8GLObject5printERNS_10ByteStreamEiiPi
2532       0x0008BE50    _ZNK4DJVU8GLObject8get_nameEv
2533       0x0008BE90    _ZNK4DJVU8GLObjectixEi
2534       0x0007F490    _ZNK4DJVU8GMapArea10get_coordsERNS_5GListIiEE
2535       0x000837B0    _ZNK4DJVU8GMapArea14get_bound_rectEv
2536       0x00166E50    _ZNK4DJVU8GMapArea14get_shape_typeEv
2537       0x00083F70    _ZNK4DJVU8GMapArea15is_point_insideEii
2538       0x00083700    _ZNK4DJVU8GMapArea8get_xmaxEv
2539       0x00083660    _ZNK4DJVU8GMapArea8get_xminEv
2540       0x00083750    _ZNK4DJVU8GMapArea8get_ymaxEv
2541       0x000836B0    _ZNK4DJVU8GMapArea8get_yminEv
2542       0x000825B0    _ZNK4DJVU8GMapOval10get_xmltagEi
2543       0x00166E60    _ZNK4DJVU8GMapOval12gma_get_xmaxEv
2544       0x00166E70    _ZNK4DJVU8GMapOval12gma_get_xminEv
2545       0x00166E80    _ZNK4DJVU8GMapOval12gma_get_ymaxEv
2546       0x00166E90    _ZNK4DJVU8GMapOval12gma_get_yminEv
2547       0x00166EA0    _ZNK4DJVU8GMapOval14get_shape_nameEv
2548       0x00166EB0    _ZNK4DJVU8GMapOval14get_shape_typeEv
2549       0x0007D880    _ZNK4DJVU8GMapOval16gma_check_objectEv
2550       0x0007DB00    _ZNK4DJVU8GMapOval19gma_is_point_insideEii
2551       0x00082E00    _ZNK4DJVU8GMapOval8get_copyEv
2552       0x0007F030    _ZNK4DJVU8GMapPoly10get_coordsERNS_5GListIiEE
2553       0x00081B20    _ZNK4DJVU8GMapPoly10get_xmltagEi
2554       0x0007EAE0    _ZNK4DJVU8GMapPoly12gma_get_xmaxEv
2555       0x0007ED90    _ZNK4DJVU8GMapPoly12gma_get_xminEv
2556       0x0007E590    _ZNK4DJVU8GMapPoly12gma_get_ymaxEv
2557       0x0007E840    _ZNK4DJVU8GMapPoly12gma_get_yminEv
2558       0x00166EC0    _ZNK4DJVU8GMapPoly14get_shape_nameEv
2559       0x00166ED0    _ZNK4DJVU8GMapPoly14get_shape_typeEv
2560       0x0007D840    _ZNK4DJVU8GMapPoly16gma_check_objectEv
2561       0x0007F660    _ZNK4DJVU8GMapPoly19gma_is_point_insideEii
2562       0x00080840    _ZNK4DJVU8GMapPoly8get_copyEv
2563       0x00081F90    _ZNK4DJVU8GMapRect10get_xmltagEi
2564       0x00166EE0    _ZNK4DJVU8GMapRect12gma_get_xmaxEv
2565       0x00166EF0    _ZNK4DJVU8GMapRect12gma_get_xminEv
2566       0x00166F00    _ZNK4DJVU8GMapRect12gma_get_ymaxEv
2567       0x00166F10    _ZNK4DJVU8GMapRect12gma_get_yminEv
2568       0x00166F20    _ZNK4DJVU8GMapRect14get_shape_nameEv
2569       0x00166F30    _ZNK4DJVU8GMapRect14get_shape_typeEv
2570       0x00166F40    _ZNK4DJVU8GMapRect16gma_check_objectEv
2571       0x0007D8E0    _ZNK4DJVU8GMapRect19gma_is_point_insideEii
2572       0x00082BD0    _ZNK4DJVU8GMapRect8get_copyEv
2573       0x000048E0    _ZNK4DJVU8GSetBase8firstposEv
2574       0x00004630    _ZNK4DJVU8GSetBase8hashnodeEj
2575       0x0004A700    _ZNK4DJVU8IWBitmap16get_memory_usageEv
2576       0x0004AFB0    _ZNK4DJVU8IWBitmap18get_percent_memoryEv
2577       0x0004A750    _ZNK4DJVU8IWPixmap16get_memory_usageEv
2578       0x0004AE70    _ZNK4DJVU8IWPixmap18get_percent_memoryEv
2579       0x0003FA60    _ZNK4DJVU8JB2Image10get_bitmapERKNS_5GRectEiii
2580       0x0003F860    _ZNK4DJVU8JB2Image10get_bitmapEii
2581       0x00166F50    _ZNK4DJVU8JB2Image10get_heightEv
2582       0x00166F60    _ZNK4DJVU8JB2Image14get_blit_countEv
2583       0x0003F650    _ZNK4DJVU8JB2Image16get_memory_usageEv
2584       0x00049250    _ZNK4DJVU8JB2Image6encodeERKNS_2GPINS_10ByteStreamEEE
2585       0x00166F80    _ZNK4DJVU8JB2Image8get_blitEi
2586       0x00167060    _ZNK4DJVU8JB2Image9get_widthEv
2587       0x00167070    _ZNK4DJVU9ArrayBase4sizeEv
2588       0x00167090    _ZNK4DJVU9ArrayBase6hboundEv
2589       0x001670A0    _ZNK4DJVU9ArrayBase6lboundEv
2590       0x000BD460    _ZNK4DJVU9DjVuImage10get_bitmapERKNS_5GRectES3_i
2591       0x000BB320    _ZNK4DJVU9DjVuImage10get_bitmapERKNS_5GRectEii
2592       0x000BEA80    _ZNK4DJVU9DjVuImage10get_heightEv
2593       0x000BC1A0    _ZNK4DJVU9DjVuImage10get_pixmapERKNS_5GRectES3_d
2594       0x000C0600    _ZNK4DJVU9DjVuImage10get_pixmapERKNS_5GRectEid
2595       0x000B9B40    _ZNK4DJVU9DjVuImage10get_rotateEv
2596       0x000BB230    _ZNK4DJVU9DjVuImage11get_versionEv
2597       0x000B9270    _ZNK4DJVU9DjVuImage12get_mimetypeEv
2598       0x000BC150    _ZNK4DJVU9DjVuImage13get_bg_pixmapERKNS_5GRectES3_d
2599       0x000BD4B0    _ZNK4DJVU9DjVuImage13get_bg_pixmapERKNS_5GRectEid
2600       0x001670B0    _ZNK4DJVU9DjVuImage13get_djvu_fileEv
2601       0x000BC100    _ZNK4DJVU9DjVuImage13get_fg_pixmapERKNS_5GRectES3_d
2602       0x000C0750    _ZNK4DJVU9DjVuImage13get_fg_pixmapERKNS_5GRectEid
2603       0x000BB2D0    _ZNK4DJVU9DjVuImage14get_real_widthEv
2604       0x000BAC40    _ZNK4DJVU9DjVuImage14is_legal_photoEv
2605       0x000BB280    _ZNK4DJVU9DjVuImage15get_real_heightEv
2606       0x000BB200    _ZNK4DJVU9DjVuImage15get_rounded_dpiEv
2607       0x000BAEF0    _ZNK4DJVU9DjVuImage16is_legal_bilevelEv
2608       0x000B9DD0    _ZNK4DJVU9DjVuImage17is_legal_compoundEv
2609       0x000B92C0    _ZNK4DJVU9DjVuImage20get_long_descriptionEv
2610       0x000BEB40    _ZNK4DJVU9DjVuImage21get_short_descriptionEv
2611       0x000C1F60    _ZNK4DJVU9DjVuImage3mapERNS_5GRectE
2612       0x000C2180    _ZNK4DJVU9DjVuImage3mapERiS1_
2613       0x000C2070    _ZNK4DJVU9DjVuImage5unmapERNS_5GRectE
2614       0x000C2290    _ZNK4DJVU9DjVuImage5unmapERiS1_
2615       0x000C35B0    _ZNK4DJVU9DjVuImage7get_XMLERKNS_4GURLEi
2616       0x000C36B0    _ZNK4DJVU9DjVuImage7get_XMLEv
2617       0x000BB1B0    _ZNK4DJVU9DjVuImage7get_dpiEv
2618       0x000BEC60    _ZNK4DJVU9DjVuImage7stencilEPNS_7GPixmapERKNS_5GRectEid
2619       0x000B8DB0    _ZNK4DJVU9DjVuImage8get_annoEv
2620       0x000B84A0    _ZNK4DJVU9DjVuImage8get_bg44ERKNS_2GPINS_8DjVuFileEEE
2621       0x000B90E0    _ZNK4DJVU9DjVuImage8get_bg44Ev
2622       0x000B8670    _ZNK4DJVU9DjVuImage8get_bgpmERKNS_2GPINS_8DjVuFileEEE
2623       0x000B9130    _ZNK4DJVU9DjVuImage8get_bgpmEv
2624       0x000B8BE0    _ZNK4DJVU9DjVuImage8get_fgbcERKNS_2GPINS_8DjVuFileEEE
2625       0x000B9220    _ZNK4DJVU9DjVuImage8get_fgbcEv
2626       0x000B8840    _ZNK4DJVU9DjVuImage8get_fgjbERKNS_2GPINS_8DjVuFileEEE
2627       0x000B9180    _ZNK4DJVU9DjVuImage8get_fgjbEv
2628       0x000B8A10    _ZNK4DJVU9DjVuImage8get_fgpmERKNS_2GPINS_8DjVuFileEEE
2629       0x000B91D0    _ZNK4DJVU9DjVuImage8get_fgpmEv
2630       0x000B9B80    _ZNK4DJVU9DjVuImage8get_infoERKNS_2GPINS_8DjVuFileEEE
2631       0x000B9D80    _ZNK4DJVU9DjVuImage8get_infoEv
2632       0x000B8FD0    _ZNK4DJVU9DjVuImage8get_metaEv
2633       0x000B8EC0    _ZNK4DJVU9DjVuImage8get_textEv
2634       0x000C34E0    _ZNK4DJVU9DjVuImage8writeXMLERNS_10ByteStreamE
2635       0x000C23E0    _ZNK4DJVU9DjVuImage8writeXMLERNS_10ByteStreamERKNS_4GURLEi
2636       0x000BB160    _ZNK4DJVU9DjVuImage9get_gammaEv
2637       0x000BEAE0    _ZNK4DJVU9DjVuImage9get_widthEv
2638       0x00004450    _ZNK4DJVU9GListBase3nthEj
2639       0x001670E0    _ZNK4DJVU9GListBase7isemptyEv
2640       0x001670F0    _ZNK4DJVU9GListBase7lastposEv
2641       0x00167120    _ZNK4DJVU9GListBase8firstposEv
2642       0x00167150    _ZNK4DJVU9GPEnabled9get_countEv
2643       0x00003F90    _ZNK4DJVU9GPosition13throw_invalidEPv
2644       0x00167160    _ZNK4DJVU9GPosition5checkEPv
2645       0x00167190    _ZNK4DJVU9GPositioncviEv
2646       0x001671B0    _ZNK4DJVU9GPositionntEv
2647       0x00050B70    _ZNK4DJVU9IW44Image10get_heightEv
2648       0x0004C480    _ZNK4DJVU9IW44Image3Map16get_bucket_countEv
2649       0x0004C4E0    _ZNK4DJVU9IW44Image3Map16get_memory_usageEv
2650       0x0004C030    _ZNK4DJVU9IW44Image5Block15write_liftblockEPsii
2651       0x00050B50    _ZNK4DJVU9IW44Image9get_widthEv
2652       0x00130040    _ZNK9miniobj_t3isaEP9miniexp_s
2653       0x001313E0    _ZNK9miniobj_t5pnameEv
2654       0x00188DA0    _ZTI9miniobj_t
2655       0x00188DA8    _ZTIN4DJVU10ArrayBaseTINS_11GUTF8StringEEE
2656       0x00188DB4    _ZTIN4DJVU10ArrayBaseTIcEE
2657       0x00188DC0    _ZTIN4DJVU10ByteStream5StdioE
2658       0x00188DCC    _ZTIN4DJVU10ByteStream6MemoryE
2659       0x00188DD8    _ZTIN4DJVU10ByteStream6StaticE
2660       0x00188DE4    _ZTIN4DJVU10ByteStream7WrapperE
2661       0x00188DF0    _ZTIN4DJVU10ByteStreamE
2662       0x00188DFC    _ZTIN4DJVU10DjVuNavDirE
2663       0x00188E08    _ZTIN4DJVU10GExceptionE
2664       0x00188E10    _ZTIN4DJVU10GStringRep4UTF8E
2665       0x00188E1C    _ZTIN4DJVU10GStringRep6NativeE
2666       0x00188E28    _ZTIN4DJVU10GStringRep7UnicodeE
2667       0x00188E34    _ZTIN4DJVU10GStringRepE
2668       0x00188E40    _ZTIN4DJVU10MMRDecoder7VLTableE
2669       0x00188E4C    _ZTIN4DJVU10MMRDecoder8VLSourceE
2670       0x00188E58    _ZTIN4DJVU10MMRDecoderE
2671       0x00188E64    _ZTIN4DJVU10_ArrayBaseE
2672       0x00188E6C    _ZTIN4DJVU10lt_XMLTagsE
2673       0x00188E78    _ZTIN4DJVU11DjVuMessageE
2674       0x00188E84    _ZTIN4DJVU11DjVuPaletteE
2675       0x00188E90    _ZTIN4DJVU11GIFFManagerE
2676       0x00188E9C    _ZTIN4DJVU11ddjvu_job_sE
2677       0x00188EA8    _ZTIN4DJVU12BSByteStream6DecodeE
2678       0x00188EB4    _ZTIN4DJVU12BSByteStream6EncodeE
2679       0x00188EC0    _ZTIN4DJVU12BSByteStreamE
2680       0x00188ECC    _ZTIN4DJVU12DjVuDocument11UnnamedFileE
2681       0x00188ED8    _ZTIN4DJVU12DjVuDocument8ThumbReqE
2682       0x00188EE4    _ZTIN4DJVU12DjVuDocumentE
2683       0x00188EF0    _ZTIN4DJVU12ddjvu_page_sE
2684       0x00188EFC    _ZTIN4DJVU12lt_XMLParser4ImplE
2685       0x00188F08    _ZTIN4DJVU12lt_XMLParserE
2686       0x00188F14    _ZTIN4DJVU13DjVuDocEditor4FileE
2687       0x00188F20    _ZTIN4DJVU13DjVuDocEditorE
2688       0x00188F2C    _ZTIN4DJVU13DjVuErrorListE
2689       0x00188F38    _ZTIN4DJVU13DjVuFileCache4ItemE
2690       0x00188F44    _ZTIN4DJVU13DjVuFileCacheE
2691       0x00188F50    _ZTIN4DJVU13DjVuInterfaceE
2692       0x00188F58    _ZTIN4DJVU13GBitmapScalerE
2693       0x00188F64    _ZTIN4DJVU13GPixmapScalerE
2694       0x00188F70    _ZTIN4DJVU13IFFByteStreamE
2695       0x00188F88    _ZTIN4DJVU13XMLByteStreamE
2696       0x00188F94    _ZTIN4DJVU14DjVuMemoryPortE
2697       0x00188FA0    _ZTIN4DJVU14DjVuPortcasterE
2698       0x00188FA8    _ZTIN4DJVU14DjVuSimplePortE
2699       0x00188FB4    _ZTIN4DJVU14PoolByteStreamE
2700       0x00188FC0    _ZTIN4DJVU15DjVuMessageLiteE
2701       0x00188FCC    _ZTIN4DJVU15ddjvu_context_sE
2702       0x00188FD8    _ZTIN4DJVU15ddjvu_message_pE
2703       0x00188FE4    _ZTIN4DJVU15ddjvu_savejob_sE
2704       0x00188FF0    _ZTIN4DJVU16ddjvu_document_sE
2705       0x00188FFC    _ZTIN4DJVU16ddjvu_printjob_sE
2706       0x00189008    _ZTIN4DJVU17DjVuImageNotifierE
2707       0x00189014    _ZTIN4DJVU17UnicodeByteStreamE
2708       0x00189020    _ZTIN4DJVU17ddjvu_thumbnail_pE
2709       0x0018902C    _ZTIN4DJVU18ProgressByteStreamE
2710       0x00189038    _ZTIN4DJVU19ddjvu_runnablejob_sE
2711       0x00189044    _ZTIN4DJVU4GURL4UTF8E
2712       0x00189050    _ZTIN4DJVU4GURL6NativeE
2713       0x0018905C    _ZTIN4DJVU4GURL8Filename4UTF8E
2714       0x00189068    _ZTIN4DJVU4GURL8Filename6NativeE
2715       0x00189074    _ZTIN4DJVU4GURL8FilenameE
2716       0x00189080    _ZTIN4DJVU4GURLE
2717       0x00189088    _ZTIN4DJVU6DArrayINS_11GUTF8StringEEE
2718       0x00189094    _ZTIN4DJVU6TArrayIcEE
2719       0x001890A0    _ZTIN4DJVU7DjVmDir4FileE
2720       0x001890AC    _ZTIN4DJVU7DjVmDirE
2721       0x001890B8    _ZTIN4DJVU7DjVmDocE
2722       0x001890C4    _ZTIN4DJVU7DjVmNav12DjVuBookMarkE
2723       0x001890D0    _ZTIN4DJVU7DjVmNavE
2724       0x001890DC    _ZTIN4DJVU7DjVuANTE
2725       0x001890E8    _ZTIN4DJVU7DjVuTXTE
2726       0x001890F4    _ZTIN4DJVU7GBitmap10ZeroBufferE
2727       0x00189100    _ZTIN4DJVU7GBitmapE
2728       0x0018910C    _ZTIN4DJVU7GPixmapE
2729       0x00189118    _ZTIN4DJVU7GScalerE
2730       0x00189124    _ZTIN4DJVU7JB2Dict8JB2Codec6DecodeE
2731       0x00189130    _ZTIN4DJVU7JB2Dict8JB2Codec6EncodeE
2732       0x0018913C    _ZTIN4DJVU7JB2Dict8JB2CodecE
2733       0x00189144    _ZTIN4DJVU7JB2DictE
2734       0x00189150    _ZTIN4DJVU7ZPCodec6DecodeE
2735       0x0018915C    _ZTIN4DJVU7ZPCodec6EncodeE
2736       0x00189168    _ZTIN4DJVU7ZPCodecE
2737       0x00189174    _ZTIN4DJVU8ArrayRepE
2738       0x00189180    _ZTIN4DJVU8DataPool14OpenFiles_FileE
2739       0x0018918C    _ZTIN4DJVU8DataPool6ReaderE
2740       0x00189198    _ZTIN4DJVU8DataPool7TriggerE
2741       0x001891A4    _ZTIN4DJVU8DataPool9OpenFilesE
2742       0x001891B0    _ZTIN4DJVU8DataPoolE
2743       0x001891BC    _ZTIN4DJVU8DjVmDir07FileRecE
2744       0x001891C8    _ZTIN4DJVU8DjVmDir0E
2745       0x001891D4    _ZTIN4DJVU8DjVuAnnoE
2746       0x001891E0    _ZTIN4DJVU8DjVuFileE
2747       0x001891EC    _ZTIN4DJVU8DjVuInfoE
2748       0x001891F8    _ZTIN4DJVU8DjVuPortE
2749       0x00189204    _ZTIN4DJVU8DjVuTextE
2750       0x00189210    _ZTIN4DJVU8DjVuToPS10DecodePortE
2751       0x0018921C    _ZTIN4DJVU8GLObjectE
2752       0x00189228    _ZTIN4DJVU8GMapAreaE
2753       0x00189234    _ZTIN4DJVU8GMapOvalE
2754       0x00189240    _ZTIN4DJVU8GMapPolyE
2755       0x0018924C    _ZTIN4DJVU8GMapRectE
2756       0x00189258    _ZTIN4DJVU8IWBitmap6EncodeE
2757       0x00189264    _ZTIN4DJVU8IWBitmapE
2758       0x00189270    _ZTIN4DJVU8IWPixmap6EncodeE
2759       0x0018927C    _ZTIN4DJVU8IWPixmapE
2760       0x00189288    _ZTIN4DJVU8JB2ImageE
2761       0x00189294    _ZTIN4DJVU9ArrayBaseE
2762       0x001892AC    _ZTIN4DJVU9DjVuImageE
2763       0x001892B8    _ZTIN4DJVU9GIFFChunkE
2764       0x001892C4    _ZTIN4DJVU9GPEnabledE
2765       0x001892CC    _ZTIN4DJVU9IW44Image5Codec6DecodeE
2766       0x001892D8    _ZTIN4DJVU9IW44Image5Codec6EncodeE
2767       0x001892E4    _ZTIN4DJVU9IW44Image5CodecE
2768       0x001892EC    _ZTIN4DJVU9IW44ImageE
2769       0x001892F8    _ZTIN4DJVU9_ArrayRepE
2770       0x00189300    _ZTS9miniobj_t
2771       0x00189320    _ZTSN4DJVU10ArrayBaseTINS_11GUTF8StringEEE
2772       0x00189360    _ZTSN4DJVU10ArrayBaseTIcEE
2773       0x00189378    _ZTSN4DJVU10ByteStream5StdioE
2774       0x00189394    _ZTSN4DJVU10ByteStream6MemoryE
2775       0x001893B0    _ZTSN4DJVU10ByteStream6StaticE
2776       0x001893CC    _ZTSN4DJVU10ByteStream7WrapperE
2777       0x001893E8    _ZTSN4DJVU10ByteStreamE
2778       0x001893FC    _ZTSN4DJVU10DjVuNavDirE
2779       0x00189410    _ZTSN4DJVU10GExceptionE
2780       0x00189424    _ZTSN4DJVU10GStringRep4UTF8E
2781       0x00189440    _ZTSN4DJVU10GStringRep6NativeE
2782       0x0018945C    _ZTSN4DJVU10GStringRep7UnicodeE
2783       0x00189478    _ZTSN4DJVU10GStringRepE
2784       0x0018948C    _ZTSN4DJVU10MMRDecoder7VLTableE
2785       0x001894A8    _ZTSN4DJVU10MMRDecoder8VLSourceE
2786       0x001894C8    _ZTSN4DJVU10MMRDecoderE
2787       0x001894DC    _ZTSN4DJVU10_ArrayBaseE
2788       0x001894F0    _ZTSN4DJVU10lt_XMLTagsE
2789       0x00189504    _ZTSN4DJVU11DjVuMessageE
2790       0x0018951C    _ZTSN4DJVU11DjVuPaletteE
2791       0x00189534    _ZTSN4DJVU11GIFFManagerE
2792       0x0018954C    _ZTSN4DJVU11ddjvu_job_sE
2793       0x00189564    _ZTSN4DJVU12BSByteStream6DecodeE
2794       0x00189584    _ZTSN4DJVU12BSByteStream6EncodeE
2795       0x001895A4    _ZTSN4DJVU12BSByteStreamE
2796       0x001895C0    _ZTSN4DJVU12DjVuDocument11UnnamedFileE
2797       0x00189600    _ZTSN4DJVU12DjVuDocument8ThumbReqE
2798       0x00189620    _ZTSN4DJVU12DjVuDocumentE
2799       0x00189638    _ZTSN4DJVU12ddjvu_page_sE
2800       0x00189650    _ZTSN4DJVU12lt_XMLParser4ImplE
2801       0x0018966C    _ZTSN4DJVU12lt_XMLParserE
2802       0x00189684    _ZTSN4DJVU13DjVuDocEditor4FileE
2803       0x001896A0    _ZTSN4DJVU13DjVuDocEditorE
2804       0x001896B8    _ZTSN4DJVU13DjVuErrorListE
2805       0x001896D0    _ZTSN4DJVU13DjVuFileCache4ItemE
2806       0x001896EC    _ZTSN4DJVU13DjVuFileCacheE
2807       0x00189704    _ZTSN4DJVU13DjVuInterfaceE
2808       0x0018971C    _ZTSN4DJVU13GBitmapScalerE
2809       0x00189734    _ZTSN4DJVU13GPixmapScalerE
2810       0x0018974C    _ZTSN4DJVU13IFFByteStreamE
2811       0x00189764    _ZTSN4DJVU13XMLByteStreamE
2812       0x0018977C    _ZTSN4DJVU14DjVuMemoryPortE
2813       0x00189794    _ZTSN4DJVU14DjVuPortcasterE
2814       0x001897AC    _ZTSN4DJVU14DjVuSimplePortE
2815       0x001897C4    _ZTSN4DJVU14PoolByteStreamE
2816       0x001897DC    _ZTSN4DJVU15DjVuMessageLiteE
2817       0x001897F8    _ZTSN4DJVU15ddjvu_context_sE
2818       0x00189814    _ZTSN4DJVU15ddjvu_message_pE
2819       0x00189830    _ZTSN4DJVU15ddjvu_savejob_sE
2820       0x0018984C    _ZTSN4DJVU16ddjvu_document_sE
2821       0x00189868    _ZTSN4DJVU16ddjvu_printjob_sE
2822       0x00189884    _ZTSN4DJVU17DjVuImageNotifierE
2823       0x001898A0    _ZTSN4DJVU17UnicodeByteStreamE
2824       0x001898BC    _ZTSN4DJVU17ddjvu_thumbnail_pE
2825       0x001898D8    _ZTSN4DJVU18ProgressByteStreamE
2826       0x001898F4    _ZTSN4DJVU19ddjvu_runnablejob_sE
2827       0x00189914    _ZTSN4DJVU4GURL4UTF8E
2828       0x00189928    _ZTSN4DJVU4GURL6NativeE
2829       0x0018993C    _ZTSN4DJVU4GURL8Filename4UTF8E
2830       0x00189958    _ZTSN4DJVU4GURL8Filename6NativeE
2831       0x00189978    _ZTSN4DJVU4GURL8FilenameE
2832       0x00189990    _ZTSN4DJVU4GURLE
2833       0x001899A0    _ZTSN4DJVU6DArrayINS_11GUTF8StringEEE
2834       0x001899E0    _ZTSN4DJVU6TArrayIcEE
2835       0x001899F4    _ZTSN4DJVU7DjVmDir4FileE
2836       0x00189A0C    _ZTSN4DJVU7DjVmDirE
2837       0x00189A1C    _ZTSN4DJVU7DjVmDocE
2838       0x00189A2C    _ZTSN4DJVU7DjVmNav12DjVuBookMarkE
2839       0x00189A4C    _ZTSN4DJVU7DjVmNavE
2840       0x00189A5C    _ZTSN4DJVU7DjVuANTE
2841       0x00189A6C    _ZTSN4DJVU7DjVuTXTE
2842       0x00189A7C    _ZTSN4DJVU7GBitmap10ZeroBufferE
2843       0x00189A98    _ZTSN4DJVU7GBitmapE
2844       0x00189AA8    _ZTSN4DJVU7GPixmapE
2845       0x00189AB8    _ZTSN4DJVU7GScalerE
2846       0x00189AE0    _ZTSN4DJVU7JB2Dict8JB2Codec6DecodeE
2847       0x00189B00    _ZTSN4DJVU7JB2Dict8JB2Codec6EncodeE
2848       0x00189B20    _ZTSN4DJVU7JB2Dict8JB2CodecE
2849       0x00189B3C    _ZTSN4DJVU7JB2DictE
2850       0x00189B4C    _ZTSN4DJVU7ZPCodec6DecodeE
2851       0x00189B64    _ZTSN4DJVU7ZPCodec6EncodeE
2852       0x00189B7C    _ZTSN4DJVU7ZPCodecE
2853       0x00189B8C    _ZTSN4DJVU8ArrayRepE
2854       0x00189BA0    _ZTSN4DJVU8DataPool14OpenFiles_FileE
2855       0x00189BE0    _ZTSN4DJVU8DataPool6ReaderE
2856       0x00189BF8    _ZTSN4DJVU8DataPool7TriggerE
2857       0x00189C14    _ZTSN4DJVU8DataPool9OpenFilesE
2858       0x00189C30    _ZTSN4DJVU8DataPoolE
2859       0x00189C44    _ZTSN4DJVU8DjVmDir07FileRecE
2860       0x00189C60    _ZTSN4DJVU8DjVmDir0E
2861       0x00189C74    _ZTSN4DJVU8DjVuAnnoE
2862       0x00189C88    _ZTSN4DJVU8DjVuFileE
2863       0x00189C9C    _ZTSN4DJVU8DjVuInfoE
2864       0x00189CB0    _ZTSN4DJVU8DjVuPortE
2865       0x00189CC4    _ZTSN4DJVU8DjVuTextE
2866       0x00189CD8    _ZTSN4DJVU8DjVuToPS10DecodePortE
2867       0x00189CF8    _ZTSN4DJVU8GLObjectE
2868       0x00189D0C    _ZTSN4DJVU8GMapAreaE
2869       0x00189D20    _ZTSN4DJVU8GMapOvalE
2870       0x00189D34    _ZTSN4DJVU8GMapPolyE
2871       0x00189D48    _ZTSN4DJVU8GMapRectE
2872       0x00189D5C    _ZTSN4DJVU8IWBitmap6EncodeE
2873       0x00189D74    _ZTSN4DJVU8IWBitmapE
2874       0x00189D88    _ZTSN4DJVU8IWPixmap6EncodeE
2875       0x00189DA0    _ZTSN4DJVU8IWPixmapE
2876       0x00189DB4    _ZTSN4DJVU8JB2ImageE
2877       0x00189DC8    _ZTSN4DJVU9ArrayBaseE
2878       0x00189DDC    _ZTSN4DJVU9DjVuImageE
2879       0x00189DF0    _ZTSN4DJVU9GIFFChunkE
2880       0x00189E04    _ZTSN4DJVU9GPEnabledE
2881       0x00189E18    _ZTSN4DJVU9IW44Image5Codec6DecodeE
2882       0x00189E38    _ZTSN4DJVU9IW44Image5Codec6EncodeE
2883       0x00189E58    _ZTSN4DJVU9IW44Image5CodecE
2884       0x00189E70    _ZTSN4DJVU9IW44ImageE
2885       0x00189E84    _ZTSN4DJVU9_ArrayRepE
2886       0x00189EA0    _ZTV9miniobj_t
2887       0x00189EE0    _ZTVN4DJVU10ArrayBaseTINS_11GUTF8StringEEE
2888       0x00189EF0    _ZTVN4DJVU10ArrayBaseTIcEE
2889       0x00189F00    _ZTVN4DJVU10ByteStream5StdioE
2890       0x00189F40    _ZTVN4DJVU10ByteStream6MemoryE
2891       0x00189F80    _ZTVN4DJVU10ByteStream6StaticE
2892       0x00189FC0    _ZTVN4DJVU10ByteStream7WrapperE
2893       0x0018A000    _ZTVN4DJVU10ByteStreamE
2894       0x0018A040    _ZTVN4DJVU10DjVuNavDirE
2895       0x0018A050    _ZTVN4DJVU10GExceptionE
2896       0x0018A060    _ZTVN4DJVU10GStringRep4UTF8E
2897       0x0018A0C0    _ZTVN4DJVU10GStringRep6NativeE
2898       0x0018A120    _ZTVN4DJVU10GStringRep7UnicodeE
2899       0x0018A180    _ZTVN4DJVU10GStringRepE
2900       0x0018A1E0    _ZTVN4DJVU10MMRDecoder7VLTableE
2901       0x0018A1F0    _ZTVN4DJVU10MMRDecoder8VLSourceE
2902       0x0018A200    _ZTVN4DJVU10MMRDecoderE
2903       0x0018A210    _ZTVN4DJVU10_ArrayBaseE
2904       0x0018A220    _ZTVN4DJVU10lt_XMLTagsE
2905       0x0018A230    _ZTVN4DJVU11DjVuMessageE
2906       0x0018A240    _ZTVN4DJVU11DjVuPaletteE
2907       0x0018A250    _ZTVN4DJVU11GIFFManagerE
2908       0x0018A260    _ZTVN4DJVU11ddjvu_job_sE
2909       0x0018A2C0    _ZTVN4DJVU12BSByteStream6DecodeE
2910       0x0018A300    _ZTVN4DJVU12BSByteStream6EncodeE
2911       0x0018A340    _ZTVN4DJVU12BSByteStreamE
2912       0x0018A380    _ZTVN4DJVU12DjVuDocument11UnnamedFileE
2913       0x0018A390    _ZTVN4DJVU12DjVuDocument8ThumbReqE
2914       0x0018A3A0    _ZTVN4DJVU12DjVuDocumentE
2915       0x0018A400    _ZTVN4DJVU12ddjvu_page_sE
2916       0x0018A460    _ZTVN4DJVU12lt_XMLParser4ImplE
2917       0x0018A480    _ZTVN4DJVU12lt_XMLParserE
2918       0x0018A4A0    _ZTVN4DJVU13DjVuDocEditor4FileE
2919       0x0018A4C0    _ZTVN4DJVU13DjVuDocEditorE
2920       0x0018A520    _ZTVN4DJVU13DjVuErrorListE
2921       0x0018A560    _ZTVN4DJVU13DjVuFileCache4ItemE
2922       0x0018A570    _ZTVN4DJVU13DjVuFileCacheE
2923       0x0018A590    _ZTVN4DJVU13DjVuInterfaceE
2924       0x0018A5B0    _ZTVN4DJVU13GBitmapScalerE
2925       0x0018A5C0    _ZTVN4DJVU13GPixmapScalerE
2926       0x0018A5E0    _ZTVN4DJVU13IFFByteStreamE
2927       0x0018A620    _ZTVN4DJVU13XMLByteStreamE
2928       0x0018A660    _ZTVN4DJVU14DjVuMemoryPortE
2929       0x0018A6A0    _ZTVN4DJVU14DjVuPortcasterE
2930       0x0018A6E0    _ZTVN4DJVU14DjVuSimplePortE
2931       0x0018A720    _ZTVN4DJVU14PoolByteStreamE
2932       0x0018A760    _ZTVN4DJVU15DjVuMessageLiteE
2933       0x0018A770    _ZTVN4DJVU15ddjvu_context_sE
2934       0x0018A780    _ZTVN4DJVU15ddjvu_message_pE
2935       0x0018A7A0    _ZTVN4DJVU15ddjvu_savejob_sE
2936       0x0018A800    _ZTVN4DJVU16ddjvu_document_sE
2937       0x0018A860    _ZTVN4DJVU16ddjvu_printjob_sE
2938       0x0018A8C0    _ZTVN4DJVU17DjVuImageNotifierE
2939       0x0018A900    _ZTVN4DJVU17UnicodeByteStreamE
2940       0x0018A940    _ZTVN4DJVU17ddjvu_thumbnail_pE
2941       0x0018A960    _ZTVN4DJVU18ProgressByteStreamE
2942       0x0018A9A0    _ZTVN4DJVU19ddjvu_runnablejob_sE
2943       0x0018AA00    _ZTVN4DJVU4GURL4UTF8E
2944       0x0018AA10    _ZTVN4DJVU4GURL6NativeE
2945       0x0018AA20    _ZTVN4DJVU4GURL8Filename4UTF8E
2946       0x0018AA30    _ZTVN4DJVU4GURL8Filename6NativeE
2947       0x0018AA40    _ZTVN4DJVU4GURL8FilenameE
2948       0x0018AA50    _ZTVN4DJVU4GURLE
2949       0x0018AA60    _ZTVN4DJVU6DArrayINS_11GUTF8StringEEE
2950       0x0018AA70    _ZTVN4DJVU6TArrayIcEE
2951       0x0018AA80    _ZTVN4DJVU7DjVmDir4FileE
2952       0x0018AA90    _ZTVN4DJVU7DjVmDirE
2953       0x0018AAA0    _ZTVN4DJVU7DjVmDocE
2954       0x0018AAB0    _ZTVN4DJVU7DjVmNav12DjVuBookMarkE
2955       0x0018AAC0    _ZTVN4DJVU7DjVmNavE
2956       0x0018AAD0    _ZTVN4DJVU7DjVuANTE
2957       0x0018AAE0    _ZTVN4DJVU7DjVuTXTE
2958       0x0018AAF0    _ZTVN4DJVU7GBitmap10ZeroBufferE
2959       0x0018AB00    _ZTVN4DJVU7GBitmapE
2960       0x0018AB10    _ZTVN4DJVU7GPixmapE
2961       0x0018AB20    _ZTVN4DJVU7GScalerE
2962       0x0018AB40    _ZTVN4DJVU7JB2Dict8JB2Codec6DecodeE
2963       0x0018ABA0    _ZTVN4DJVU7JB2Dict8JB2Codec6EncodeE
2964       0x0018AC00    _ZTVN4DJVU7JB2Dict8JB2CodecE
2965       0x0018AC60    _ZTVN4DJVU7JB2DictE
2966       0x0018AC70    _ZTVN4DJVU7ZPCodec6DecodeE
2967       0x0018AC80    _ZTVN4DJVU7ZPCodec6EncodeE
2968       0x0018AC90    _ZTVN4DJVU7ZPCodecE
2969       0x0018ACA0    _ZTVN4DJVU8ArrayRepE
2970       0x0018ACB0    _ZTVN4DJVU8DataPool14OpenFiles_FileE
2971       0x0018ACC0    _ZTVN4DJVU8DataPool6ReaderE
2972       0x0018ACD0    _ZTVN4DJVU8DataPool7TriggerE
2973       0x0018ACE0    _ZTVN4DJVU8DataPool9OpenFilesE
2974       0x0018ACF0    _ZTVN4DJVU8DataPoolE
2975       0x0018AD00    _ZTVN4DJVU8DjVmDir07FileRecE
2976       0x0018AD10    _ZTVN4DJVU8DjVmDir0E
2977       0x0018AD20    _ZTVN4DJVU8DjVuAnnoE
2978       0x0018AD40    _ZTVN4DJVU8DjVuFileE
2979       0x0018ADA0    _ZTVN4DJVU8DjVuInfoE
2980       0x0018ADC0    _ZTVN4DJVU8DjVuPortE
2981       0x0018AE00    _ZTVN4DJVU8DjVuTextE
2982       0x0018AE20    _ZTVN4DJVU8DjVuToPS10DecodePortE
2983       0x0018AE80    _ZTVN4DJVU8GLObjectE
2984       0x0018AEA0    _ZTVN4DJVU8GMapAreaE
2985       0x0018AF00    _ZTVN4DJVU8GMapOvalE
2986       0x0018AF60    _ZTVN4DJVU8GMapPolyE
2987       0x0018AFC0    _ZTVN4DJVU8GMapRectE
2988       0x0018B020    _ZTVN4DJVU8IWBitmap6EncodeE
2989       0x0018B080    _ZTVN4DJVU8IWBitmapE
2990       0x0018B0E0    _ZTVN4DJVU8IWPixmap6EncodeE
2991       0x0018B140    _ZTVN4DJVU8IWPixmapE
2992       0x0018B1A0    _ZTVN4DJVU8JB2ImageE
2993       0x0018B1B0    _ZTVN4DJVU9ArrayBaseE
2994       0x0018B1C0    _ZTVN4DJVU9DjVuImageE
2995       0x0018B200    _ZTVN4DJVU9GIFFChunkE
2996       0x0018B210    _ZTVN4DJVU9GPEnabledE
2997       0x0018B220    _ZTVN4DJVU9IW44Image5Codec6DecodeE
2998       0x0018B238    _ZTVN4DJVU9IW44Image5Codec6EncodeE
2999       0x0018B250    _ZTVN4DJVU9IW44Image5CodecE
3000       0x0018B280    _ZTVN4DJVU9IW44ImageE
3001       0x0018B2E0    _ZTVN4DJVU9_ArrayRepE
3002       0x0018B2F0    _ZZN4DJVU5GCont10NormTraitsINS0_7MapNodeINS_11GUTF8StringENS_2GPINS_10lt_XMLTagsEEEEEE6traitsEvE9theTraits
3003       0x0018B304    _ZZN4DJVU5GCont10NormTraitsINS0_7MapNodeINS_11GUTF8StringENS_2GPINS_12DjVuDocumentEEEEEE6traitsEvE9theTraits
3004       0x0018B318    _ZZN4DJVU5GCont10NormTraitsINS0_7MapNodeINS_11GUTF8StringENS_2GPINS_8DjVmDir07FileRecEEEEEE6traitsEvE9theTraits
3005       0x0018B32C    _ZZN4DJVU5GCont10NormTraitsINS0_7MapNodeINS_11GUTF8StringENS_2GPINS_8DjVuFileEEEEEE6traitsEvE9theTraits
3006       0x0018B340    _ZZN4DJVU5GCont10NormTraitsINS0_7MapNodeINS_11GUTF8StringENS_6GPBaseEEEE6traitsEvE9theTraits
3007       0x0018B354    _ZZN4DJVU5GCont10NormTraitsINS0_7MapNodeINS_11GUTF8StringENS_6GPListINS_10lt_XMLTagsEEEEEE6traitsEvE9theTraits
3008       0x0018B368    _ZZN4DJVU5GCont10NormTraitsINS0_7MapNodeINS_11GUTF8StringENS_6GPListINS_7DjVmDir4FileEEEEEE6traitsEvE9theTraits
3009       0x0018B37C    _ZZN4DJVU5GCont10NormTraitsINS0_7MapNodeINS_11GUTF8StringENS_8GMapArea10BorderTypeEEEE6traitsEvE9theTraits
3010       0x0018B390    _ZZN4DJVU5GCont10NormTraitsINS0_7MapNodeINS_11GUTF8StringEPKvEEE6traitsEvE9theTraits
3011       0x0018B3A4    _ZZN4DJVU5GCont10NormTraitsINS0_7MapNodeINS_11GUTF8StringEPvEEE6traitsEvE9theTraits
3012       0x0018B3B8    _ZZN4DJVU5GCont10NormTraitsINS0_7MapNodeINS_11GUTF8StringES3_EEE6traitsEvE9theTraits
3013       0x0018B3CC    _ZZN4DJVU5GCont10NormTraitsINS0_7MapNodeINS_11GUTF8StringEiEEE6traitsEvE9theTraits
3014       0x0018B3E0    _ZZN4DJVU5GCont10NormTraitsINS0_7MapNodeINS_4GURLENS_6GPListINS_8DataPoolEEEEEE6traitsEvE9theTraits
3015       0x0018B3F4    _ZZN4DJVU5GCont10NormTraitsINS0_7MapNodeINS_4GURLEPvEEE6traitsEvE9theTraits
3016       0x0018B408    _ZZN4DJVU5GCont10NormTraitsINS0_7MapNodeINS_4GURLEiEEE6traitsEvE9theTraits
3017       0x0018B41C    _ZZN4DJVU5GCont10NormTraitsINS0_7MapNodeIP9miniexp_sS4_EEE6traitsEvE9theTraits
3018       0x0018B430    _ZZN4DJVU5GCont10NormTraitsINS0_7MapNodeIPKvPvEEE6traitsEvE9theTraits
3019       0x0018B444    _ZZN4DJVU5GCont10NormTraitsINS0_7MapNodeIiNS_6GPBaseEEEE6traitsEvE9theTraits
3020       0x0018B458    _ZZN4DJVU5GCont10NormTraitsINS0_7MapNodeIiiEEE6traitsEvE9theTraits
3021       0x0018B46C    _ZZN4DJVU5GCont10NormTraitsINS0_8ListNodeINS_11GUTF8StringEEEE6traitsEvE9theTraits
3022       0x0018B480    _ZZN4DJVU5GCont10NormTraitsINS0_8ListNodeINS_14lt_XMLContentsEEEE6traitsEvE9theTraits
3023       0x0018B494    _ZZN4DJVU5GCont10NormTraitsINS0_8ListNodeINS_4GMapINS_11GUTF8StringENS_2GPINS_10lt_XMLTagsEEEEEEEE6traitsEvE9theTraits
3024       0x0018B4A8    _ZZN4DJVU5GCont10NormTraitsINS0_8ListNodeINS_4GURLEEEE6traitsEvE9theTraits
3025       0x0018B4BC    _ZZN4DJVU5GCont10NormTraitsINS0_8ListNodeINS_4PBoxEEEE6traitsEvE9theTraits
3026       0x0018B4D0    _ZZN4DJVU5GCont10NormTraitsINS0_8ListNodeINS_5GRectEEEE6traitsEvE9theTraits
3027       0x0018B4E4    _ZZN4DJVU5GCont10NormTraitsINS0_8ListNodeINS_6GPBaseEEEE6traitsEvE9theTraits
3028       0x0018B4F8    _ZZN4DJVU5GCont10NormTraitsINS0_8ListNodeINS_7DjVuTXT4ZoneEEEE6traitsEvE9theTraits
3029       0x0018B50C    _ZZN4DJVU5GCont10NormTraitsINS0_8ListNodeIPKvEEE6traitsEvE9theTraits
3030       0x0018B520    _ZZN4DJVU5GCont10NormTraitsINS0_8ListNodeIPNS_7DjVuTXT4ZoneEEEE6traitsEvE9theTraits
3031       0x0018B534    _ZZN4DJVU5GCont10NormTraitsINS0_8ListNodeIPvEEE6traitsEvE9theTraits
3032       0x0018B548    _ZZN4DJVU5GCont10NormTraitsINS0_8ListNodeIiEEE6traitsEvE9theTraits
3033       0x0018B55C    _ZZN4DJVU5GCont10NormTraitsINS_11GUTF8StringEE6traitsEvE9theTraits
3034       0x0018B570    _ZZN4DJVU5GCont10NormTraitsINS_5GListIPKvEEE6traitsEvE9theTraits
3035       0x0018B584    _ZZN4DJVU5GCont10NormTraitsINS_6GPBaseEE6traitsEvE9theTraits
3036       0x0018B598    _ZZN4DJVU5GCont10NormTraitsINS_8JB2ShapeEE6traitsEvE9theTraits
3037       0x0018B5AC    _ZZN4DJVU5GCont10NormTraitsIiE6traitsEvE9theTraits
3038       0x0018B5C0    _ZZN4DJVU5GCont10TrivTraitsILi16EE6traitsEvE9theTraits
3039       0x0018B5D4    _ZZN4DJVU5GCont10TrivTraitsILi1EE6traitsEvE9theTraits
3040       0x0018B5E8    _ZZN4DJVU5GCont10TrivTraitsILi2EE6traitsEvE9theTraits
3041       0x0018B5FC    _ZZN4DJVU5GCont10TrivTraitsILi3EE6traitsEvE9theTraits
3042       0x0018B610    _ZZN4DJVU5GCont10TrivTraitsILi4EE6traitsEvE9theTraits
3043       0x0018B624    _ZZN4DJVU5GCont10TrivTraitsILi8EE6traitsEvE9theTraits
3044       0x00014B70    atomicAcquire
3045       0x00014B90    atomicAcquireOrSpin
3046       0x00014E60    atomicCompareAndSwap
3047       0x00014E40    atomicDecrement
3048       0x00014E20    atomicIncrement
3049       0x00014D60    atomicRelease
3050       0x0014C5E0    ddjvu_anno_get_bgcolor
3051       0x0014C670    ddjvu_anno_get_horizalign
3052       0x0014C6D0    ddjvu_anno_get_hyperlinks
3053       0x0014C940    ddjvu_anno_get_metadata
3054       0x0014C7B0    ddjvu_anno_get_metadata_keys
3055       0x0014C640    ddjvu_anno_get_mode
3056       0x0014C6A0    ddjvu_anno_get_vertalign
3057       0x0014C610    ddjvu_anno_get_zoom
3058       0x0013B400    ddjvu_cache_clear
3059       0x0013B240    ddjvu_cache_get_size
3060       0x0013B060    ddjvu_cache_set_size
3061       0x00142080    ddjvu_code_get_version
3062       0x0013ABE0    ddjvu_context_create
3063       0x0013AF80    ddjvu_context_release
3064       0x00140400    ddjvu_document_check_pagedata
3065       0x0013DA10    ddjvu_document_create
3066       0x0013E5C0    ddjvu_document_create_by_filename
3067       0x0013E5E0    ddjvu_document_create_by_filename_utf8
3068       0x0014C0C0    ddjvu_document_get_anno
3069       0x00141460    ddjvu_document_get_filedump
3070       0x0013F190    ddjvu_document_get_fileinfo
3071       0x0013F1B0    ddjvu_document_get_fileinfo_imp
3072       0x0013EEF0    ddjvu_document_get_filenum
3073       0x0014B520    ddjvu_document_get_outline
3074       0x0014BE00    ddjvu_document_get_pageanno
3075       0x00141250    ddjvu_document_get_pagedump
3076       0x00140950    ddjvu_document_get_pageinfo
3077       0x00140970    ddjvu_document_get_pageinfo_imp
3078       0x0013ED80    ddjvu_document_get_pagenum
3079       0x0014B860    ddjvu_document_get_pagetext
3080       0x0013ED20    ddjvu_document_get_type
3081       0x0013E600    ddjvu_document_job
3082       0x00145B50    ddjvu_document_print
3083       0x0014A850    ddjvu_document_save
3084       0x0013FCA0    ddjvu_document_search_pageno
3085       0x00143260    ddjvu_format_create
3086       0x001435D0    ddjvu_format_release
3087       0x00143570    ddjvu_format_set_ditherbits
3088       0x00143590    ddjvu_format_set_gamma
3089       0x00143530    ddjvu_format_set_row_order
3090       0x00143550    ddjvu_format_set_y_direction
3091       0x0013BC70    ddjvu_job_get_user_data
3092       0x0013B690    ddjvu_job_release
3093       0x0013BC50    ddjvu_job_set_user_data
3094       0x0013B970    ddjvu_job_status
3095       0x0013BAF0    ddjvu_job_stop
3096       0x001430A0    ddjvu_map_point
3097       0x001430D0    ddjvu_map_rect
3098       0x0013BC90    ddjvu_message_peek
3099       0x0013BFC0    ddjvu_message_pop
3100       0x0013C0B0    ddjvu_message_set_callback
3101       0x0013BE30    ddjvu_message_wait
3102       0x0014B470    ddjvu_miniexp_release
3103       0x001418C0    ddjvu_page_create_by_pageid
3104       0x001418A0    ddjvu_page_create_by_pageno
3105       0x00141D70    ddjvu_page_get_gamma
3106       0x00141A70    ddjvu_page_get_height
3107       0x00142CE0    ddjvu_page_get_initial_rotation
3108       0x001425A0    ddjvu_page_get_long_description
3109       0x00141BF0    ddjvu_page_get_resolution
3110       0x00142B60    ddjvu_page_get_rotation
3111       0x00142260    ddjvu_page_get_short_description
3112       0x00142090    ddjvu_page_get_type
3113       0x00141F00    ddjvu_page_get_version
3114       0x001418F0    ddjvu_page_get_width
3115       0x001418E0    ddjvu_page_job
3116       0x001435F0    ddjvu_page_render
3117       0x001428E0    ddjvu_page_set_rotation
3118       0x00142F00    ddjvu_rectmapper_create
3119       0x00143030    ddjvu_rectmapper_modify
3120       0x00143080    ddjvu_rectmapper_release
3121       0x0013E990    ddjvu_stream_close
3122       0x0013E610    ddjvu_stream_write
3123       0x00144900    ddjvu_thumbnail_render
3124       0x00144270    ddjvu_thumbnail_status
3125       0x00143180    ddjvu_unmap_point
3126       0x001431B0    ddjvu_unmap_rect
3127       0x0011A7F0    djvu_programname
3128       0x00001490    djvu_set_progress_callback
3129       0x000014A0    djvu_supports_progress_callback
3130       0x0018C058    dummy
3131       0x00132200    miniexp_caar
3132       0x001322C0    miniexp_caddr
3133       0x00132230    miniexp_cadr
3134       0x00132260    miniexp_cdar
3135       0x001322F0    miniexp_cdddr
3136       0x00132290    miniexp_cddr
3137       0x001325D0    miniexp_classof
3138       0x00133240    miniexp_concat
3139       0x00132370    miniexp_cons
3140       0x00132600    miniexp_isa
3141       0x001321B0    miniexp_length
3142       0x00132320    miniexp_nth
3143       0x001335F0    miniexp_pname
3144       0x00133480    miniexp_pprin
3145       0x001335C0    miniexp_pprint
3146       0x00133330    miniexp_prin
3147       0x001333E0    miniexp_print
3148       0x001337C0    miniexp_read
3149       0x00132500    miniexp_reverse
3150       0x001324C0    miniexp_rplaca
3151       0x001324E0    miniexp_rplacd
3152       0x001326D0    miniexp_string
3153       0x00132660    miniexp_stringp
3154       0x001331D0    miniexp_substring
3155       0x00131440    miniexp_symbol
3156       0x00130CE0    miniexp_to_name
3157       0x00132690    miniexp_to_str
3158       0x00131660    minilisp_acquire_gc_lock
3159       0x00131670    minilisp_debug
3160       0x001337F0    minilisp_finish
3161       0x00131FB0    minilisp_gc
3162       0x00171A74    minilisp_getc
3163       0x00131680    minilisp_info
3164       0x00191300    minilisp_macrochar_parser
3165       0x00171A78    minilisp_print_7bits
3166       0x00171A7C    minilisp_puts
3167       0x00132070    minilisp_release_gc_lock
3168       0x00133790    minilisp_set_input
3169       0x00133310    minilisp_set_output
3170       0x00171A70    minilisp_ungetc
3171       0x00132130    minivar_alloc
3172       0x00132160    minivar_free
3173       0x00132190    minivar_pointer
3174       0x0018C05C    nwaiters

----------Imported symbols----------

[IMAGE_IMPORT_DESCRIPTOR]
0x7CA00    0x0   OriginalFirstThunk:            0x0       
0x7CA00    0x0   Characteristics:               0x0       
0x7CA04    0x4   TimeDateStamp:                 0x0        [Thu Jan  1 00:00:00 1970 UTC]
0x7CA08    0x8   ForwarderChain:                0x0       
0x7CA0C    0xC   Name:                          0x1EE0CC  
0x7CA10    0x10  FirstThunk:                    0x1EE08C  

KERNEL32.DLL.LoadLibraryA Hint[0]
KERNEL32.DLL.GetProcAddress Hint[0]
KERNEL32.DLL.VirtualProtect Hint[0]
KERNEL32.DLL.VirtualAlloc Hint[0]
KERNEL32.DLL.VirtualFree Hint[0]

[IMAGE_IMPORT_DESCRIPTOR]
0x7CA14    0x0   OriginalFirstThunk:            0x0       
0x7CA14    0x0   Characteristics:               0x0       
0x7CA18    0x4   TimeDateStamp:                 0x0        [Thu Jan  1 00:00:00 1970 UTC]
0x7CA1C    0x8   ForwarderChain:                0x0       
0x7CA20    0xC   Name:                          0x1EE0D9  
0x7CA24    0x10  FirstThunk:                    0x1EE0A4  

ADVAPI32.DLL.RegCloseKey Hint[0]

[IMAGE_IMPORT_DESCRIPTOR]
0x7CA28    0x0   OriginalFirstThunk:            0x0       
0x7CA28    0x0   Characteristics:               0x0       
0x7CA2C    0x4   TimeDateStamp:                 0x0        [Thu Jan  1 00:00:00 1970 UTC]
0x7CA30    0x8   ForwarderChain:                0x0       
0x7CA34    0xC   Name:                          0x1EE0E6  
0x7CA38    0x10  FirstThunk:                    0x1EE0AC  

libgcc_s_sjlj-1.dll.__divdi3 Hint[0]

[IMAGE_IMPORT_DESCRIPTOR]
0x7CA3C    0x0   OriginalFirstThunk:            0x0       
0x7CA3C    0x0   Characteristics:               0x0       
0x7CA40    0x4   TimeDateStamp:                 0x0        [Thu Jan  1 00:00:00 1970 UTC]
0x7CA44    0x8   ForwarderChain:                0x0       
0x7CA48    0xC   Name:                          0x1EE0FA  
0x7CA4C    0x10  FirstThunk:                    0x1EE0B4  

libjpeg-8.dll.jpeg_std_error Hint[0]

[IMAGE_IMPORT_DESCRIPTOR]
0x7CA50    0x0   OriginalFirstThunk:            0x0       
0x7CA50    0x0   Characteristics:               0x0       
0x7CA54    0x4   TimeDateStamp:                 0x0        [Thu Jan  1 00:00:00 1970 UTC]
0x7CA58    0x8   ForwarderChain:                0x0       
0x7CA5C    0xC   Name:                          0x1EE108  
0x7CA60    0x10  FirstThunk:                    0x1EE0BC  

libstdc++-6.dll._Znaj Hint[0]

[IMAGE_IMPORT_DESCRIPTOR]
0x7CA64    0x0   OriginalFirstThunk:            0x0       
0x7CA64    0x0   Characteristics:               0x0       
0x7CA68    0x4   TimeDateStamp:                 0x0        [Thu Jan  1 00:00:00 1970 UTC]
0x7CA6C    0x8   ForwarderChain:                0x0       
0x7CA70    0xC   Name:                          0x1EE118  
0x7CA74    0x10  FirstThunk:                    0x1EE0C4  

msvcrt.dll.log Hint[0]

----------TLS----------

[IMAGE_TLS_DIRECTORY]
0x7C988    0x0   StartAddressOfRawData:         0x614ED7A0
0x7C98C    0x4   EndAddressOfRawData:           0x614ED7A3
0x7C990    0x8   AddressOfIndex:                0x61491604
0x7C994    0xC   AddressOfCallBacks:            0x614ED7A3
0x7C998    0x10  SizeOfZeroFill:                0x0       
0x7C99C    0x14  Characteristics:               0x0       

----------Base relocations----------

[IMAGE_BASE_RELOCATION]
0xA32C0    0x0   VirtualAddress:                0x1ED000  
0xA32C4    0x4   SizeOfBlock:                   0x18      
    001ED56Dh HIGHLOW
    001ED76Dh HIGHLOW
    001ED788h HIGHLOW
    001ED78Ch HIGHLOW
    001ED790h HIGHLOW
    001ED794h HIGHLOW
    001ED7A3h HIGHLOW
    001ED000h ABSOLUTE

