----------Parsing Warnings----------

Suspicious flags set for section 0. Both IMAGE_SCN_MEM_WRITE and IMAGE_SCN_MEM_EXECUTE are set. This might indicate a packed executable.

Suspicious flags set for section 1. Both IMAGE_SCN_MEM_WRITE and IMAGE_SCN_MEM_EXECUTE are set. This might indicate a packed executable.

Imported symbols contain entries typical of packed executables.

----------DOS_HEADER----------

[IMAGE_DOS_HEADER]
0x0        0x0   e_magic:                       0x5A4D    
0x2        0x2   e_cblp:                        0x90      
0x4        0x4   e_cp:                          0x3       
0x6        0x6   e_crlc:                        0x0       
0x8        0x8   e_cparhdr:                     0x4       
0xA        0xA   e_minalloc:                    0x0       
0xC        0xC   e_maxalloc:                    0xFFFF    
0xE        0xE   e_ss:                          0x0       
0x10       0x10  e_sp:                          0xB8      
0x12       0x12  e_csum:                        0x0       
0x14       0x14  e_ip:                          0x0       
0x16       0x16  e_cs:                          0x0       
0x18       0x18  e_lfarlc:                      0x40      
0x1A       0x1A  e_ovno:                        0x0       
0x1C       0x1C  e_res:                         
0x24       0x24  e_oemid:                       0x0       
0x26       0x26  e_oeminfo:                     0x0       
0x28       0x28  e_res2:                        
0x3C       0x3C  e_lfanew:                      0x80      

----------NT_HEADERS----------

[IMAGE_NT_HEADERS]
0x80       0x0   Signature:                     0x4550    

----------FILE_HEADER----------

[IMAGE_FILE_HEADER]
0x84       0x0   Machine:                       0x14C     
0x86       0x2   NumberOfSections:              0x3       
0x88       0x4   TimeDateStamp:                 0x4E8F40BF [Fri Oct  7 18:11:11 2011 UTC]
0x8C       0x8   PointerToSymbolTable:          0xC9E00   
0x90       0xC   NumberOfSymbols:               0x82      
0x94       0x10  SizeOfOptionalHeader:          0xE0      
0x96       0x12  Characteristics:               0x2106    
Flags: IMAGE_FILE_32BIT_MACHINE, IMAGE_FILE_DLL, IMAGE_FILE_EXECUTABLE_IMAGE, IMAGE_FILE_LINE_NUMS_STRIPPED

----------OPTIONAL_HEADER----------

[IMAGE_OPTIONAL_HEADER]
0x98       0x0   Magic:                         0x10B     
0x9A       0x2   MajorLinkerVersion:            0x2       
0x9B       0x3   MinorLinkerVersion:            0x15      
0x9C       0x4   SizeOfCode:                    0x28000   
0xA0       0x8   SizeOfInitializedData:         0x2E000   
0xA4       0xC   SizeOfUninitializedData:       0xAD000   
0xA8       0x10  AddressOfEntryPoint:           0xD54A0   
0xAC       0x14  BaseOfCode:                    0xAE000   
0xB0       0x18  BaseOfData:                    0xD6000   
0xB4       0x1C  ImageBase:                     0x6FC40000
0xB8       0x20  SectionAlignment:              0x1000    
0xBC       0x24  FileAlignment:                 0x200     
0xC0       0x28  MajorOperatingSystemVersion:   0x4       
0xC2       0x2A  MinorOperatingSystemVersion:   0x0       
0xC4       0x2C  MajorImageVersion:             0x1       
0xC6       0x2E  MinorImageVersion:             0x0       
0xC8       0x30  MajorSubsystemVersion:         0x4       
0xCA       0x32  MinorSubsystemVersion:         0x0       
0xCC       0x34  Reserved1:                     0x0       
0xD0       0x38  SizeOfImage:                   0x104000  
0xD4       0x3C  SizeOfHeaders:                 0x1000    
0xD8       0x40  CheckSum:                      0x0       
0xDC       0x44  Subsystem:                     0x3       
0xDE       0x46  DllCharacteristics:            0x0       
0xE0       0x48  SizeOfStackReserve:            0x200000  
0xE4       0x4C  SizeOfStackCommit:             0x1000    
0xE8       0x50  SizeOfHeapReserve:             0x100000  
0xEC       0x54  SizeOfHeapCommit:              0x1000    
0xF0       0x58  LoaderFlags:                   0x0       
0xF4       0x5C  NumberOfRvaAndSizes:           0x10      
DllCharacteristics: 

----------PE Sections----------

[IMAGE_SECTION_HEADER]
0x178      0x0   Name:                          UPX0
0x180      0x8   Misc:                          0xAD000   
0x180      0x8   Misc_PhysicalAddress:          0xAD000   
0x180      0x8   Misc_VirtualSize:              0xAD000   
0x184      0xC   VirtualAddress:                0x1000    
0x188      0x10  SizeOfRawData:                 0x0       
0x18C      0x14  PointerToRawData:              0x200     
0x190      0x18  PointerToRelocations:          0x0       
0x194      0x1C  PointerToLinenumbers:          0x0       
0x198      0x20  NumberOfRelocations:           0x0       
0x19A      0x22  NumberOfLinenumbers:           0x0       
0x19C      0x24  Characteristics:               0xE0000080
Flags: IMAGE_SCN_CNT_UNINITIALIZED_DATA, IMAGE_SCN_MEM_EXECUTE, IMAGE_SCN_MEM_READ, IMAGE_SCN_MEM_WRITE
Entropy: 0.000000 (Min=0.0, Max=8.0)
MD5     hash: d41d8cd98f00b204e9800998ecf8427e
SHA-1   hash: da39a3ee5e6b4b0d3255bfef95601890afd80709
SHA-256 hash: e3b0c44298fc1c149afbf4c8996fb92427ae41e4649b934ca495991b7852b855
SHA-512 hash: cf83e1357eefb8bdf1542850d66d8007d620e4050b5715dc83f4a921d36ce9ce47d0d13c5d85f2b0ff8318d2877eec2f63b931bd47417a81a538327af927da3e

[IMAGE_SECTION_HEADER]
0x1A0      0x0   Name:                          UPX1
0x1A8      0x8   Misc:                          0x28000   
0x1A8      0x8   Misc_PhysicalAddress:          0x28000   
0x1A8      0x8   Misc_VirtualSize:              0x28000   
0x1AC      0xC   VirtualAddress:                0xAE000   
0x1B0      0x10  SizeOfRawData:                 0x27800   
0x1B4      0x14  PointerToRawData:              0x200     
0x1B8      0x18  PointerToRelocations:          0x0       
0x1BC      0x1C  PointerToLinenumbers:          0x0       
0x1C0      0x20  NumberOfRelocations:           0x0       
0x1C2      0x22  NumberOfLinenumbers:           0x0       
0x1C4      0x24  Characteristics:               0xE0000040
Flags: IMAGE_SCN_CNT_INITIALIZED_DATA, IMAGE_SCN_MEM_EXECUTE, IMAGE_SCN_MEM_READ, IMAGE_SCN_MEM_WRITE
Entropy: 7.913343 (Min=0.0, Max=8.0)
MD5     hash: 8a434299e23290e486dfdb9822af62a4
SHA-1   hash: bfcafb9d21c34226d9d86dfecb408d9510758541
SHA-256 hash: d0f27f3211d9c56cd5521257b9790849cd3082f2804a3efcbf547d5151f4d394
SHA-512 hash: 2f3fec9db53b47513290b8e2259ebea0d1d9ff738ca26d4637b3ca4651c74523355b281bcc3cbf40b0a83fe2a2cdff3d01d1b2808177345c995992b0bcefd010

[IMAGE_SECTION_HEADER]
0x1C8      0x0   Name:                          UPX2
0x1D0      0x8   Misc:                          0x2E000   
0x1D0      0x8   Misc_PhysicalAddress:          0x2E000   
0x1D0      0x8   Misc_VirtualSize:              0x2E000   
0x1D4      0xC   VirtualAddress:                0xD6000   
0x1D8      0x10  SizeOfRawData:                 0x2DC00   
0x1DC      0x14  PointerToRawData:              0x27A00   
0x1E0      0x18  PointerToRelocations:          0x0       
0x1E4      0x1C  PointerToLinenumbers:          0x0       
0x1E8      0x20  NumberOfRelocations:           0x0       
0x1EA      0x22  NumberOfLinenumbers:           0x0       
0x1EC      0x24  Characteristics:               0xC0000040
Flags: IMAGE_SCN_CNT_INITIALIZED_DATA, IMAGE_SCN_MEM_READ, IMAGE_SCN_MEM_WRITE
Entropy: 5.759349 (Min=0.0, Max=8.0)
MD5     hash: c6155569f168a908e58f130f7d5b88d0
SHA-1   hash: 0b896fe3c9868dc17a3e46eadcc83d396c6143d2
SHA-256 hash: 1612fe8e2620ed670f00194f6756104e1b7a0f5126dd01ac6870ecbcbdb4ca1a
SHA-512 hash: cc3b602d0d378633035b5bff5ad56815bf5a60f50197e8626f4832879079e46a5cf124be6bf6ca42aae9e2238f54c3d0af673cbfd466a99f7c910bd1f56785be

----------Directories----------

[IMAGE_DIRECTORY_ENTRY_EXPORT]
0xF8       0x0   VirtualAddress:                0xD6104   
0xFC       0x4   Size:                          0x2D900   
[IMAGE_DIRECTORY_ENTRY_IMPORT]
0x100      0x0   VirtualAddress:                0xD6000   
0x104      0x4   Size:                          0x104     
[IMAGE_DIRECTORY_ENTRY_RESOURCE]
0x108      0x0   VirtualAddress:                0x0       
0x10C      0x4   Size:                          0x0       
[IMAGE_DIRECTORY_ENTRY_EXCEPTION]
0x110      0x0   VirtualAddress:                0x0       
0x114      0x4   Size:                          0x0       
[IMAGE_DIRECTORY_ENTRY_SECURITY]
0x118      0x0   VirtualAddress:                0x0       
0x11C      0x4   Size:                          0x0       
[IMAGE_DIRECTORY_ENTRY_BASERELOC]
0x120      0x0   VirtualAddress:                0x103A04  
0x124      0x4   Size:                          0x18      
[IMAGE_DIRECTORY_ENTRY_DEBUG]
0x128      0x0   VirtualAddress:                0x0       
0x12C      0x4   Size:                          0x0       
[IMAGE_DIRECTORY_ENTRY_COPYRIGHT]
0x130      0x0   VirtualAddress:                0x0       
0x134      0x4   Size:                          0x0       
[IMAGE_DIRECTORY_ENTRY_GLOBALPTR]
0x138      0x0   VirtualAddress:                0x0       
0x13C      0x4   Size:                          0x0       
[IMAGE_DIRECTORY_ENTRY_TLS]
0x140      0x0   VirtualAddress:                0xD56C0   
0x144      0x4   Size:                          0x18      
[IMAGE_DIRECTORY_ENTRY_LOAD_CONFIG]
0x148      0x0   VirtualAddress:                0x0       
0x14C      0x4   Size:                          0x0       
[IMAGE_DIRECTORY_ENTRY_BOUND_IMPORT]
0x150      0x0   VirtualAddress:                0x0       
0x154      0x4   Size:                          0x0       
[IMAGE_DIRECTORY_ENTRY_IAT]
0x158      0x0   VirtualAddress:                0x0       
0x15C      0x4   Size:                          0x0       
[IMAGE_DIRECTORY_ENTRY_DELAY_IMPORT]
0x160      0x0   VirtualAddress:                0x0       
0x164      0x4   Size:                          0x0       
[IMAGE_DIRECTORY_ENTRY_COM_DESCRIPTOR]
0x168      0x0   VirtualAddress:                0x0       
0x16C      0x4   Size:                          0x0       
[IMAGE_DIRECTORY_ENTRY_RESERVED]
0x170      0x0   VirtualAddress:                0x0       
0x174      0x4   Size:                          0x0       

----------Exported symbols----------

[IMAGE_EXPORT_DIRECTORY]
0x27B04    0x0   Characteristics:               0x0       
0x27B08    0x4   TimeDateStamp:                 0x4E8F383B [Fri Oct  7 17:34:51 2011 UTC]
0x27B0C    0x8   MajorVersion:                  0x0       
0x27B0E    0xA   MinorVersion:                  0x0       
0x27B10    0xC   Name:                          0xDE9F8   
0x27B14    0x10  Base:                          0x1       
0x27B18    0x14  NumberOfFunctions:             0xDAE     
0x27B1C    0x18  NumberOfNames:                 0xDAE     
0x27B20    0x1C  AddressOfFunctions:            0xD612C   
0x27B24    0x20  AddressOfNames:                0xD97E4   
0x27B28    0x24  AddressOfNameOrdinals:         0xDCE9C   

Ordinal      RVA         Name
1          0x00087058    _ZGVNSt10moneypunctIcLb0EE2idE
2          0x00087060    _ZGVNSt10moneypunctIcLb1EE2idE
3          0x00087068    _ZGVNSt10moneypunctIwLb0EE2idE
4          0x00087070    _ZGVNSt10moneypunctIwLb1EE2idE
5          0x00087078    _ZGVNSt11__timepunctIcE2idE
6          0x00087080    _ZGVNSt11__timepunctIwE2idE
7          0x00087088    _ZGVNSt7collateIcE2idE
8          0x00087090    _ZGVNSt7collateIwE2idE
9          0x00087098    _ZGVNSt7num_getIcSt19istreambuf_iteratorIcSt11char_traitsIcEEE2idE
10         0x000870A0    _ZGVNSt7num_getIwSt19istreambuf_iteratorIwSt11char_traitsIwEEE2idE
11         0x000870A8    _ZGVNSt7num_putIcSt19ostreambuf_iteratorIcSt11char_traitsIcEEE2idE
12         0x000870B0    _ZGVNSt7num_putIwSt19ostreambuf_iteratorIwSt11char_traitsIwEEE2idE
13         0x000870B8    _ZGVNSt8messagesIcE2idE
14         0x000870C0    _ZGVNSt8messagesIwE2idE
15         0x000870C8    _ZGVNSt8numpunctIcE2idE
16         0x000870D0    _ZGVNSt8numpunctIwE2idE
17         0x000870D8    _ZGVNSt8time_getIcSt19istreambuf_iteratorIcSt11char_traitsIcEEE2idE
18         0x000870E0    _ZGVNSt8time_getIwSt19istreambuf_iteratorIwSt11char_traitsIwEEE2idE
19         0x000870E8    _ZGVNSt8time_putIcSt19ostreambuf_iteratorIcSt11char_traitsIcEEE2idE
20         0x000870F0    _ZGVNSt8time_putIwSt19ostreambuf_iteratorIwSt11char_traitsIwEEE2idE
21         0x000870F8    _ZGVNSt9money_getIcSt19istreambuf_iteratorIcSt11char_traitsIcEEE2idE
22         0x00087100    _ZGVNSt9money_getIwSt19istreambuf_iteratorIwSt11char_traitsIwEEE2idE
23         0x00087108    _ZGVNSt9money_putIcSt19ostreambuf_iteratorIcSt11char_traitsIcEEE2idE
24         0x00087110    _ZGVNSt9money_putIwSt19ostreambuf_iteratorIwSt11char_traitsIwEEE2idE
25         0x0000FEA0    _ZN10__cxxabiv116__enum_type_infoD0Ev
26         0x0000FED0    _ZN10__cxxabiv116__enum_type_infoD1Ev
27         0x0000FED0    _ZN10__cxxabiv116__enum_type_infoD2Ev
28         0x0000FEF0    _ZN10__cxxabiv117__array_type_infoD0Ev
29         0x0000FF20    _ZN10__cxxabiv117__array_type_infoD1Ev
30         0x0000FF20    _ZN10__cxxabiv117__array_type_infoD2Ev
31         0x0000FF40    _ZN10__cxxabiv117__class_type_infoD0Ev
32         0x0000FF70    _ZN10__cxxabiv117__class_type_infoD1Ev
33         0x0000FF70    _ZN10__cxxabiv117__class_type_infoD2Ev
34         0x0000FF90    _ZN10__cxxabiv117__pbase_type_infoD0Ev
35         0x0000FFC0    _ZN10__cxxabiv117__pbase_type_infoD1Ev
36         0x0000FFC0    _ZN10__cxxabiv117__pbase_type_infoD2Ev
37         0x00010010    _ZN10__cxxabiv119__pointer_type_infoD0Ev
38         0x00010040    _ZN10__cxxabiv119__pointer_type_infoD1Ev
39         0x00010040    _ZN10__cxxabiv119__pointer_type_infoD2Ev
40         0x00010060    _ZN10__cxxabiv120__function_type_infoD0Ev
41         0x00010090    _ZN10__cxxabiv120__function_type_infoD1Ev
42         0x00010090    _ZN10__cxxabiv120__function_type_infoD2Ev
43         0x000100B0    _ZN10__cxxabiv120__si_class_type_infoD0Ev
44         0x000100E0    _ZN10__cxxabiv120__si_class_type_infoD1Ev
45         0x000100E0    _ZN10__cxxabiv120__si_class_type_infoD2Ev
46         0x00010100    _ZN10__cxxabiv121__vmi_class_type_infoD0Ev
47         0x00010130    _ZN10__cxxabiv121__vmi_class_type_infoD1Ev
48         0x00010130    _ZN10__cxxabiv121__vmi_class_type_infoD2Ev
49         0x00010150    _ZN10__cxxabiv123__fundamental_type_infoD0Ev
50         0x00010180    _ZN10__cxxabiv123__fundamental_type_infoD1Ev
51         0x00010180    _ZN10__cxxabiv123__fundamental_type_infoD2Ev
52         0x000101A0    _ZN10__cxxabiv129__pointer_to_member_type_infoD0Ev
53         0x000101D0    _ZN10__cxxabiv129__pointer_to_member_type_infoD1Ev
54         0x000101D0    _ZN10__cxxabiv129__pointer_to_member_type_infoD2Ev
55         0x000101F0    _ZN11__gnu_debug19_Safe_iterator_base12_M_get_mutexEv
56         0x00010270    _ZN11__gnu_debug19_Safe_iterator_base16_M_attach_singleEPNS_19_Safe_sequence_baseEb
57         0x000102D0    _ZN11__gnu_debug19_Safe_iterator_base16_M_detach_singleEv
58         0x00010340    _ZN11__gnu_debug19_Safe_iterator_base9_M_attachEPNS_19_Safe_sequence_baseEb
59         0x00010390    _ZN11__gnu_debug19_Safe_iterator_base9_M_detachEv
60         0x000103D0    _ZN11__gnu_debug19_Safe_sequence_base12_M_get_mutexEv
61         0x00010450    _ZN11__gnu_debug19_Safe_sequence_base13_M_detach_allEv
62         0x00010630    _ZN11__gnu_debug19_Safe_sequence_base18_M_detach_singularEv
63         0x00010780    _ZN11__gnu_debug19_Safe_sequence_base22_M_revalidate_singularEv
64         0x000108A0    _ZN11__gnu_debug19_Safe_sequence_base7_M_swapERS0_
65         0x00011E30    _ZN9__gnu_cxx12__atomic_addEPVii
66         0x00015700    _ZN9__gnu_cxx17__pool_alloc_base12_M_get_mutexEv
67         0x000157D0    _ZN9__gnu_cxx17__pool_alloc_base16_M_get_free_listEj
68         0x000159F0    _ZN9__gnu_cxx17__pool_alloc_base9_M_refillEj
69         0x00015B40    _ZN9__gnu_cxx18__exchange_and_addEPVii
70         0x00015B50    _ZN9__gnu_cxx18stdio_sync_filebufIcSt11char_traitsIcEE4fileEv
71         0x00015B60    _ZN9__gnu_cxx18stdio_sync_filebufIcSt11char_traitsIcEE4syncEv
72         0x00015B80    _ZN9__gnu_cxx18stdio_sync_filebufIcSt11char_traitsIcEE5uflowEv
73         0x00015BA0    _ZN9__gnu_cxx18stdio_sync_filebufIcSt11char_traitsIcEE6xsgetnEPci
74         0x00015C00    _ZN9__gnu_cxx18stdio_sync_filebufIcSt11char_traitsIcEE6xsputnEPKci
75         0x00015C30    _ZN9__gnu_cxx18stdio_sync_filebufIcSt11char_traitsIcEE7seekoffExSt12_Ios_SeekdirSt13_Ios_Openmode
76         0x00015CC0    _ZN9__gnu_cxx18stdio_sync_filebufIcSt11char_traitsIcEE7seekposESt4fposIiESt13_Ios_Openmode
77         0x00015D30    _ZN9__gnu_cxx18stdio_sync_filebufIcSt11char_traitsIcEE8overflowEi
78         0x00015D70    _ZN9__gnu_cxx18stdio_sync_filebufIcSt11char_traitsIcEE9pbackfailEi
79         0x00015DD0    _ZN9__gnu_cxx18stdio_sync_filebufIcSt11char_traitsIcEE9underflowEv
80         0x00015E00    _ZN9__gnu_cxx18stdio_sync_filebufIcSt11char_traitsIcEEC1EP6_iobuf
81         0x00015E60    _ZN9__gnu_cxx18stdio_sync_filebufIcSt11char_traitsIcEEC2EP6_iobuf
82         0x00015EC0    _ZN9__gnu_cxx18stdio_sync_filebufIcSt11char_traitsIcEED0Ev
83         0x00015EF0    _ZN9__gnu_cxx18stdio_sync_filebufIcSt11char_traitsIcEED1Ev
84         0x00015F10    _ZN9__gnu_cxx18stdio_sync_filebufIwSt11char_traitsIwEE4fileEv
85         0x00015F20    _ZN9__gnu_cxx18stdio_sync_filebufIwSt11char_traitsIwEE4syncEv
86         0x00015F40    _ZN9__gnu_cxx18stdio_sync_filebufIwSt11char_traitsIwEE5uflowEv
87         0x00015F60    _ZN9__gnu_cxx18stdio_sync_filebufIwSt11char_traitsIwEE6xsgetnEPwi
88         0x00015FD0    _ZN9__gnu_cxx18stdio_sync_filebufIwSt11char_traitsIwEE6xsputnEPKwi
89         0x00016020    _ZN9__gnu_cxx18stdio_sync_filebufIwSt11char_traitsIwEE7seekoffExSt12_Ios_SeekdirSt13_Ios_Openmode
90         0x000160B0    _ZN9__gnu_cxx18stdio_sync_filebufIwSt11char_traitsIwEE7seekposESt4fposIiESt13_Ios_Openmode
91         0x00016120    _ZN9__gnu_cxx18stdio_sync_filebufIwSt11char_traitsIwEE8overflowEt
92         0x00016160    _ZN9__gnu_cxx18stdio_sync_filebufIwSt11char_traitsIwEE9pbackfailEt
93         0x000161C0    _ZN9__gnu_cxx18stdio_sync_filebufIwSt11char_traitsIwEE9underflowEv
94         0x000161F0    _ZN9__gnu_cxx18stdio_sync_filebufIwSt11char_traitsIwEEC1EP6_iobuf
95         0x00016250    _ZN9__gnu_cxx18stdio_sync_filebufIwSt11char_traitsIwEEC2EP6_iobuf
96         0x000162B0    _ZN9__gnu_cxx18stdio_sync_filebufIwSt11char_traitsIwEED0Ev
97         0x000162E0    _ZN9__gnu_cxx18stdio_sync_filebufIwSt11char_traitsIwEED1Ev
98         0x00016550    _ZN9__gnu_cxx27__verbose_terminate_handlerEv
99         0x000168B0    _ZN9__gnu_cxx6__poolILb0EE10_M_destroyEv
100        0x00016940    _ZN9__gnu_cxx6__poolILb0EE13_M_initializeEv
101        0x00016A10    _ZN9__gnu_cxx6__poolILb0EE16_M_reclaim_blockEPcj
102        0x00016A40    _ZN9__gnu_cxx6__poolILb0EE16_M_reserve_blockEjj
103        0x00016AF0    _ZN9__gnu_cxx6__poolILb1EE10_M_destroyEv
104        0x00016C10    _ZN9__gnu_cxx6__poolILb1EE13_M_initializeEPFvPvE
105        0x000170B0    _ZN9__gnu_cxx6__poolILb1EE13_M_initializeEv
106        0x00017550    _ZN9__gnu_cxx6__poolILb1EE16_M_get_thread_idEv
107        0x000176C0    _ZN9__gnu_cxx6__poolILb1EE16_M_reclaim_blockEPcj
108        0x000178F0    _ZN9__gnu_cxx6__poolILb1EE16_M_reserve_blockEjj
109        0x00017B70    _ZN9__gnu_cxx6__poolILb1EE21_M_destroy_thread_keyEPv
110        0x000183B0    _ZN9__gnu_cxx9free_list6_M_getEj
111        0x00018770    _ZN9__gnu_cxx9free_list8_M_clearEv
112        0x00018CE0    _ZNK10__cxxabiv117__class_type_info10__do_catchEPKSt9type_infoPPvj
113        0x00018D50    _ZNK10__cxxabiv117__class_type_info11__do_upcastEPKS0_PKvRNS0_15__upcast_resultE
114        0x00018DA0    _ZNK10__cxxabiv117__class_type_info11__do_upcastEPKS0_PPv
115        0x00018E10    _ZNK10__cxxabiv117__class_type_info12__do_dyncastEiNS0_10__sub_kindEPKS0_PKvS3_S5_RNS0_16__dyncast_resultE
116        0x00018E80    _ZNK10__cxxabiv117__class_type_info20__do_find_public_srcEiPKvPKS0_S2_
117        0x00018EA0    _ZNK10__cxxabiv117__pbase_type_info10__do_catchEPKSt9type_infoPPvj
118        0x00018F50    _ZNK10__cxxabiv117__pbase_type_info15__pointer_catchEPKS0_PPvj
119        0x00018F90    _ZNK10__cxxabiv119__pointer_type_info14__is_pointer_pEv
120        0x00018FA0    _ZNK10__cxxabiv119__pointer_type_info15__pointer_catchEPKNS_17__pbase_type_infoEPPvj
121        0x00019020    _ZNK10__cxxabiv120__function_type_info15__is_function_pEv
122        0x00019030    _ZNK10__cxxabiv120__si_class_type_info11__do_upcastEPKNS_17__class_type_infoEPKvRNS1_15__upcast_resultE
123        0x000190A0    _ZNK10__cxxabiv120__si_class_type_info12__do_dyncastEiNS_17__class_type_info10__sub_kindEPKS1_PKvS4_S6_RNS1_16__dyncast_resultE
124        0x00019180    _ZNK10__cxxabiv120__si_class_type_info20__do_find_public_srcEiPKvPKNS_17__class_type_infoES2_
125        0x000191F0    _ZNK10__cxxabiv121__vmi_class_type_info11__do_upcastEPKNS_17__class_type_infoEPKvRNS1_15__upcast_resultE
126        0x000193E0    _ZNK10__cxxabiv121__vmi_class_type_info12__do_dyncastEiNS_17__class_type_info10__sub_kindEPKS1_PKvS4_S6_RNS1_16__dyncast_resultE
127        0x000198F0    _ZNK10__cxxabiv121__vmi_class_type_info20__do_find_public_srcEiPKvPKNS_17__class_type_infoES2_
128        0x000199B0    _ZNK10__cxxabiv129__pointer_to_member_type_info15__pointer_catchEPKNS_17__pbase_type_infoEPPvj
129        0x00019A10    _ZNK11__gnu_debug16_Error_formatter10_M_messageENS_13_Debug_msg_idE
130        0x00019A30    _ZNK11__gnu_debug16_Error_formatter10_Parameter14_M_print_fieldEPKS0_PKc
131        0x00019E50    _ZNK11__gnu_debug16_Error_formatter10_Parameter20_M_print_descriptionEPKS0_
132        0x0001A120    _ZNK11__gnu_debug16_Error_formatter13_M_print_wordEPKc
133        0x0001A490    _ZNK11__gnu_debug16_Error_formatter15_M_print_stringEPKc
134        0x0001A7C0    _ZNK11__gnu_debug16_Error_formatter17_M_get_max_lengthEv
135        0x0001A810    _ZNK11__gnu_debug16_Error_formatter8_M_errorEv
136        0x0001A9F0    _ZNK11__gnu_debug19_Safe_iterator_base11_M_singularEv
137        0x0001AA10    _ZNK11__gnu_debug19_Safe_iterator_base14_M_can_compareERKS0_
138        0x0001AEB0    _ZNKSbIwSt11char_traitsIwESaIwEE11_M_disjunctEPKw
139        0x0001AEE0    _ZNKSbIwSt11char_traitsIwESaIwEE12find_last_ofEPKwj
140        0x0001AF20    _ZNKSbIwSt11char_traitsIwESaIwEE12find_last_ofEPKwjj
141        0x0001AF90    _ZNKSbIwSt11char_traitsIwESaIwEE12find_last_ofERKS2_j
142        0x0001AFC0    _ZNKSbIwSt11char_traitsIwESaIwEE12find_last_ofEwj
143        0x0001AFF0    _ZNKSbIwSt11char_traitsIwESaIwEE13find_first_ofEPKwj
144        0x0001B030    _ZNKSbIwSt11char_traitsIwESaIwEE13find_first_ofEPKwjj
145        0x0001B0A0    _ZNKSbIwSt11char_traitsIwESaIwEE13find_first_ofERKS2_j
146        0x0001B0D0    _ZNKSbIwSt11char_traitsIwESaIwEE13find_first_ofEwj
147        0x0001B100    _ZNKSbIwSt11char_traitsIwESaIwEE13get_allocatorEv
148        0x0001B110    _ZNKSbIwSt11char_traitsIwESaIwEE15_M_check_lengthEjjPKc
149        0x0001B140    _ZNKSbIwSt11char_traitsIwESaIwEE16find_last_not_ofEPKwj
150        0x0001B180    _ZNKSbIwSt11char_traitsIwESaIwEE16find_last_not_ofEPKwjj
151        0x0001B200    _ZNKSbIwSt11char_traitsIwESaIwEE16find_last_not_ofERKS2_j
152        0x0001B230    _ZNKSbIwSt11char_traitsIwESaIwEE16find_last_not_ofEwj
153        0x0001B280    _ZNKSbIwSt11char_traitsIwESaIwEE17find_first_not_ofEPKwj
154        0x0001B2C0    _ZNKSbIwSt11char_traitsIwESaIwEE17find_first_not_ofEPKwjj
155        0x0001B340    _ZNKSbIwSt11char_traitsIwESaIwEE17find_first_not_ofERKS2_j
156        0x0001B370    _ZNKSbIwSt11char_traitsIwESaIwEE17find_first_not_ofEwj
157        0x0001B3B0    _ZNKSbIwSt11char_traitsIwESaIwEE2atEj
158        0x0001B3E0    _ZNKSbIwSt11char_traitsIwESaIwEE3endEv
159        0x0001B3F0    _ZNKSbIwSt11char_traitsIwESaIwEE4_Rep12_M_is_leakedEv
160        0x0001B400    _ZNKSbIwSt11char_traitsIwESaIwEE4_Rep12_M_is_sharedEv
161        0x0001B410    _ZNKSbIwSt11char_traitsIwESaIwEE4backEv
162        0x0001B430    _ZNKSbIwSt11char_traitsIwESaIwEE4cendEv
163        0x0001B440    _ZNKSbIwSt11char_traitsIwESaIwEE4copyEPwjj
164        0x0001B4C0    _ZNKSbIwSt11char_traitsIwESaIwEE4dataEv
165        0x0001B4D0    _ZNKSbIwSt11char_traitsIwESaIwEE4findEPKwj
166        0x0001B510    _ZNKSbIwSt11char_traitsIwESaIwEE4findEPKwjj
167        0x0001B600    _ZNKSbIwSt11char_traitsIwESaIwEE4findERKS2_j
168        0x0001B630    _ZNKSbIwSt11char_traitsIwESaIwEE4findEwj
169        0x0001B6B0    _ZNKSbIwSt11char_traitsIwESaIwEE4rendEv
170        0x0001B6D0    _ZNKSbIwSt11char_traitsIwESaIwEE4sizeEv
171        0x0001B6E0    _ZNKSbIwSt11char_traitsIwESaIwEE5beginEv
172        0x0001B6F0    _ZNKSbIwSt11char_traitsIwESaIwEE5c_strEv
173        0x0001B700    _ZNKSbIwSt11char_traitsIwESaIwEE5crendEv
174        0x0001B720    _ZNKSbIwSt11char_traitsIwESaIwEE5emptyEv
175        0x0001B740    _ZNKSbIwSt11char_traitsIwESaIwEE5frontEv
176        0x0001B750    _ZNKSbIwSt11char_traitsIwESaIwEE5rfindEPKwj
177        0x0001B790    _ZNKSbIwSt11char_traitsIwESaIwEE5rfindEPKwjj
178        0x0001B840    _ZNKSbIwSt11char_traitsIwESaIwEE5rfindERKS2_j
179        0x0001B870    _ZNKSbIwSt11char_traitsIwESaIwEE5rfindEwj
180        0x0001B8C0    _ZNKSbIwSt11char_traitsIwESaIwEE6_M_repEv
181        0x0001B8D0    _ZNKSbIwSt11char_traitsIwESaIwEE6cbeginEv
182        0x0001B8E0    _ZNKSbIwSt11char_traitsIwESaIwEE6lengthEv
183        0x0001B8F0    _ZNKSbIwSt11char_traitsIwESaIwEE6rbeginEv
184        0x0001B910    _ZNKSbIwSt11char_traitsIwESaIwEE6substrEjj
185        0x0001B960    _ZNKSbIwSt11char_traitsIwESaIwEE7_M_dataEv
186        0x0001B970    _ZNKSbIwSt11char_traitsIwESaIwEE7_M_iendEv
187        0x0001B980    _ZNKSbIwSt11char_traitsIwESaIwEE7compareEPKw
188        0x0001BA20    _ZNKSbIwSt11char_traitsIwESaIwEE7compareERKS2_
189        0x0001BA80    _ZNKSbIwSt11char_traitsIwESaIwEE7compareEjjPKw
190        0x0001BB50    _ZNKSbIwSt11char_traitsIwESaIwEE7compareEjjPKwj
191        0x0001BC00    _ZNKSbIwSt11char_traitsIwESaIwEE7compareEjjRKS2_
192        0x0001BC90    _ZNKSbIwSt11char_traitsIwESaIwEE7compareEjjRKS2_jj
193        0x0001BD70    _ZNKSbIwSt11char_traitsIwESaIwEE7crbeginEv
194        0x0001BD90    _ZNKSbIwSt11char_traitsIwESaIwEE8_M_checkEjPKc
195        0x0001BDB0    _ZNKSbIwSt11char_traitsIwESaIwEE8_M_limitEjj
196        0x0001BDD0    _ZNKSbIwSt11char_traitsIwESaIwEE8capacityEv
197        0x0001BDE0    _ZNKSbIwSt11char_traitsIwESaIwEE8max_sizeEv
198        0x0001BDF0    _ZNKSbIwSt11char_traitsIwESaIwEE9_M_ibeginEv
199        0x0001BE00    _ZNKSbIwSt11char_traitsIwESaIwEEixEj
200        0x0001BE10    _ZNKSi6gcountEv
201        0x0001BE20    _ZNKSi6sentrycvbEv
202        0x0001BE30    _ZNKSo6sentrycvbEv
203        0x0001BE40    _ZNKSs11_M_disjunctEPKc
204        0x0001BE60    _ZNKSs12find_last_ofEPKcj
205        0x0001BEA0    _ZNKSs12find_last_ofEPKcjj
206        0x0001BF10    _ZNKSs12find_last_ofERKSsj
207        0x0001BF40    _ZNKSs12find_last_ofEcj
208        0x0001BF90    _ZNKSs13find_first_ofEPKcj
209        0x0001BFD0    _ZNKSs13find_first_ofEPKcjj
210        0x0001C030    _ZNKSs13find_first_ofERKSsj
211        0x0001C060    _ZNKSs13find_first_ofEcj
212        0x0001C090    _ZNKSs13get_allocatorEv
213        0x0001C0A0    _ZNKSs15_M_check_lengthEjjPKc
214        0x0001C0D0    _ZNKSs16find_last_not_ofEPKcj
215        0x0001C110    _ZNKSs16find_last_not_ofEPKcjj
216        0x0001C190    _ZNKSs16find_last_not_ofERKSsj
217        0x0001C1C0    _ZNKSs16find_last_not_ofEcj
218        0x0001C210    _ZNKSs17find_first_not_ofEPKcj
219        0x0001C250    _ZNKSs17find_first_not_ofEPKcjj
220        0x0001C2B0    _ZNKSs17find_first_not_ofERKSsj
221        0x0001C2E0    _ZNKSs17find_first_not_ofEcj
222        0x0001C320    _ZNKSs2atEj
223        0x0001C350    _ZNKSs3endEv
224        0x0001C360    _ZNKSs4_Rep12_M_is_leakedEv
225        0x0001C370    _ZNKSs4_Rep12_M_is_sharedEv
226        0x0001C380    _ZNKSs4backEv
227        0x0001C3A0    _ZNKSs4cendEv
228        0x0001C3B0    _ZNKSs4copyEPcjj
229        0x0001C430    _ZNKSs4dataEv
230        0x0001C440    _ZNKSs4findEPKcj
231        0x0001C480    _ZNKSs4findEPKcjj
232        0x0001C540    _ZNKSs4findERKSsj
233        0x0001C570    _ZNKSs4findEcj
234        0x0001C5D0    _ZNKSs4rendEv
235        0x0001C5F0    _ZNKSs4sizeEv
236        0x0001C600    _ZNKSs5beginEv
237        0x0001C610    _ZNKSs5c_strEv
238        0x0001C620    _ZNKSs5crendEv
239        0x0001C640    _ZNKSs5emptyEv
240        0x0001C660    _ZNKSs5frontEv
241        0x0001C670    _ZNKSs5rfindEPKcj
242        0x0001C6B0    _ZNKSs5rfindEPKcjj
243        0x0001C730    _ZNKSs5rfindERKSsj
244        0x0001C760    _ZNKSs5rfindEcj
245        0x0001C7B0    _ZNKSs6_M_repEv
246        0x0001C7C0    _ZNKSs6cbeginEv
247        0x0001C7D0    _ZNKSs6lengthEv
248        0x0001C7E0    _ZNKSs6rbeginEv
249        0x0001C800    _ZNKSs6substrEjj
250        0x0001C850    _ZNKSs7_M_dataEv
251        0x0001C860    _ZNKSs7_M_iendEv
252        0x0001C870    _ZNKSs7compareEPKc
253        0x0001C8C0    _ZNKSs7compareERKSs
254        0x0001C910    _ZNKSs7compareEjjPKc
255        0x0001C980    _ZNKSs7compareEjjPKcj
256        0x0001C9F0    _ZNKSs7compareEjjRKSs
257        0x0001CA60    _ZNKSs7compareEjjRKSsjj
258        0x0001CAE0    _ZNKSs7crbeginEv
259        0x0001CB00    _ZNKSs8_M_checkEjPKc
260        0x0001CB20    _ZNKSs8_M_limitEjj
261        0x0001CB40    _ZNKSs8capacityEv
262        0x0001CB50    _ZNKSs8max_sizeEv
263        0x0001CB60    _ZNKSs9_M_ibeginEv
264        0x0001CB70    _ZNKSsixEj
265        0x0001CB80    _ZNKSt10bad_typeid4whatEv
266        0x0001CB90    _ZNKSt10error_code23default_error_conditionEv
267        0x0001CBB0    _ZNKSt10istrstream5rdbufEv
268        0x0001CBC0    _ZNKSt10moneypunctIcLb0EE10neg_formatEv
269        0x0001CBE0    _ZNKSt10moneypunctIcLb0EE10pos_formatEv
270        0x0001CC00    _ZNKSt10moneypunctIcLb0EE11curr_symbolEv
271        0x0001CC30    _ZNKSt10moneypunctIcLb0EE11do_groupingEv
272        0x0001CC60    _ZNKSt10moneypunctIcLb0EE11frac_digitsEv
273        0x0001CC80    _ZNKSt10moneypunctIcLb0EE13decimal_pointEv
274        0x0001CCA0    _ZNKSt10moneypunctIcLb0EE13do_neg_formatEv
275        0x0001CCB0    _ZNKSt10moneypunctIcLb0EE13do_pos_formatEv
276        0x0001CCC0    _ZNKSt10moneypunctIcLb0EE13negative_signEv
277        0x0001CCF0    _ZNKSt10moneypunctIcLb0EE13positive_signEv
278        0x0001CD20    _ZNKSt10moneypunctIcLb0EE13thousands_sepEv
279        0x0001CD40    _ZNKSt10moneypunctIcLb0EE14do_curr_symbolEv
280        0x0001CD70    _ZNKSt10moneypunctIcLb0EE14do_frac_digitsEv
281        0x0001CD80    _ZNKSt10moneypunctIcLb0EE16do_decimal_pointEv
282        0x0001CD90    _ZNKSt10moneypunctIcLb0EE16do_negative_signEv
283        0x0001CDC0    _ZNKSt10moneypunctIcLb0EE16do_positive_signEv
284        0x0001CDF0    _ZNKSt10moneypunctIcLb0EE16do_thousands_sepEv
285        0x0001CE00    _ZNKSt10moneypunctIcLb0EE8groupingEv
286        0x0001CE30    _ZNKSt10moneypunctIcLb1EE10neg_formatEv
287        0x0001CE50    _ZNKSt10moneypunctIcLb1EE10pos_formatEv
288        0x0001CE70    _ZNKSt10moneypunctIcLb1EE11curr_symbolEv
289        0x0001CEA0    _ZNKSt10moneypunctIcLb1EE11do_groupingEv
290        0x0001CED0    _ZNKSt10moneypunctIcLb1EE11frac_digitsEv
291        0x0001CEF0    _ZNKSt10moneypunctIcLb1EE13decimal_pointEv
292        0x0001CF10    _ZNKSt10moneypunctIcLb1EE13do_neg_formatEv
293        0x0001CF20    _ZNKSt10moneypunctIcLb1EE13do_pos_formatEv
294        0x0001CF30    _ZNKSt10moneypunctIcLb1EE13negative_signEv
295        0x0001CF60    _ZNKSt10moneypunctIcLb1EE13positive_signEv
296        0x0001CF90    _ZNKSt10moneypunctIcLb1EE13thousands_sepEv
297        0x0001CFB0    _ZNKSt10moneypunctIcLb1EE14do_curr_symbolEv
298        0x0001CFE0    _ZNKSt10moneypunctIcLb1EE14do_frac_digitsEv
299        0x0001CFF0    _ZNKSt10moneypunctIcLb1EE16do_decimal_pointEv
300        0x0001D000    _ZNKSt10moneypunctIcLb1EE16do_negative_signEv
301        0x0001D030    _ZNKSt10moneypunctIcLb1EE16do_positive_signEv
302        0x0001D060    _ZNKSt10moneypunctIcLb1EE16do_thousands_sepEv
303        0x0001D070    _ZNKSt10moneypunctIcLb1EE8groupingEv
304        0x0001D0A0    _ZNKSt10moneypunctIwLb0EE10neg_formatEv
305        0x0001D0C0    _ZNKSt10moneypunctIwLb0EE10pos_formatEv
306        0x0001D0E0    _ZNKSt10moneypunctIwLb0EE11curr_symbolEv
307        0x0001D110    _ZNKSt10moneypunctIwLb0EE11do_groupingEv
308        0x0001D140    _ZNKSt10moneypunctIwLb0EE11frac_digitsEv
309        0x0001D160    _ZNKSt10moneypunctIwLb0EE13decimal_pointEv
310        0x0001D180    _ZNKSt10moneypunctIwLb0EE13do_neg_formatEv
311        0x0001D190    _ZNKSt10moneypunctIwLb0EE13do_pos_formatEv
312        0x0001D1A0    _ZNKSt10moneypunctIwLb0EE13negative_signEv
313        0x0001D1D0    _ZNKSt10moneypunctIwLb0EE13positive_signEv
314        0x0001D200    _ZNKSt10moneypunctIwLb0EE13thousands_sepEv
315        0x0001D220    _ZNKSt10moneypunctIwLb0EE14do_curr_symbolEv
316        0x0001D250    _ZNKSt10moneypunctIwLb0EE14do_frac_digitsEv
317        0x0001D260    _ZNKSt10moneypunctIwLb0EE16do_decimal_pointEv
318        0x0001D270    _ZNKSt10moneypunctIwLb0EE16do_negative_signEv
319        0x0001D2A0    _ZNKSt10moneypunctIwLb0EE16do_positive_signEv
320        0x0001D2D0    _ZNKSt10moneypunctIwLb0EE16do_thousands_sepEv
321        0x0001D2E0    _ZNKSt10moneypunctIwLb0EE8groupingEv
322        0x0001D310    _ZNKSt10moneypunctIwLb1EE10neg_formatEv
323        0x0001D330    _ZNKSt10moneypunctIwLb1EE10pos_formatEv
324        0x0001D350    _ZNKSt10moneypunctIwLb1EE11curr_symbolEv
325        0x0001D380    _ZNKSt10moneypunctIwLb1EE11do_groupingEv
326        0x0001D3B0    _ZNKSt10moneypunctIwLb1EE11frac_digitsEv
327        0x0001D3D0    _ZNKSt10moneypunctIwLb1EE13decimal_pointEv
328        0x0001D3F0    _ZNKSt10moneypunctIwLb1EE13do_neg_formatEv
329        0x0001D400    _ZNKSt10moneypunctIwLb1EE13do_pos_formatEv
330        0x0001D410    _ZNKSt10moneypunctIwLb1EE13negative_signEv
331        0x0001D440    _ZNKSt10moneypunctIwLb1EE13positive_signEv
332        0x0001D470    _ZNKSt10moneypunctIwLb1EE13thousands_sepEv
333        0x0001D490    _ZNKSt10moneypunctIwLb1EE14do_curr_symbolEv
334        0x0001D4C0    _ZNKSt10moneypunctIwLb1EE14do_frac_digitsEv
335        0x0001D4D0    _ZNKSt10moneypunctIwLb1EE16do_decimal_pointEv
336        0x0001D4E0    _ZNKSt10moneypunctIwLb1EE16do_negative_signEv
337        0x0001D510    _ZNKSt10moneypunctIwLb1EE16do_positive_signEv
338        0x0001D540    _ZNKSt10moneypunctIwLb1EE16do_thousands_sepEv
339        0x0001D550    _ZNKSt10moneypunctIwLb1EE8groupingEv
340        0x0001D580    _ZNKSt10ostrstream5rdbufEv
341        0x0001D590    _ZNKSt10ostrstream6pcountEv
342        0x0001D5B0    _ZNKSt11__timepunctIcE15_M_am_pm_formatEPKc
343        0x0001D5C0    _ZNKSt11__timepunctIcE15_M_date_formatsEPPKc
344        0x0001D5E0    _ZNKSt11__timepunctIcE15_M_time_formatsEPPKc
345        0x0001D600    _ZNKSt11__timepunctIcE19_M_days_abbreviatedEPPKc
346        0x0001D650    _ZNKSt11__timepunctIcE20_M_date_time_formatsEPPKc
347        0x0001D670    _ZNKSt11__timepunctIcE21_M_months_abbreviatedEPPKc
348        0x0001D710    _ZNKSt11__timepunctIcE6_M_putEPcjPKcPK2tm
349        0x0001D830    _ZNKSt11__timepunctIcE7_M_daysEPPKc
350        0x0001D880    _ZNKSt11__timepunctIcE8_M_am_pmEPPKc
351        0x0001D8A0    _ZNKSt11__timepunctIcE9_M_monthsEPPKc
352        0x0001D930    _ZNKSt11__timepunctIwE15_M_am_pm_formatEPKw
353        0x0001D940    _ZNKSt11__timepunctIwE15_M_date_formatsEPPKw
354        0x0001D960    _ZNKSt11__timepunctIwE15_M_time_formatsEPPKw
355        0x0001D980    _ZNKSt11__timepunctIwE19_M_days_abbreviatedEPPKw
356        0x0001D9D0    _ZNKSt11__timepunctIwE20_M_date_time_formatsEPPKw
357        0x0001D9F0    _ZNKSt11__timepunctIwE21_M_months_abbreviatedEPPKw
358        0x0001DA90    _ZNKSt11__timepunctIwE6_M_putEPwjPKwPK2tm
359        0x0001DBB0    _ZNKSt11__timepunctIwE7_M_daysEPPKw
360        0x0001DC00    _ZNKSt11__timepunctIwE8_M_am_pmEPPKw
361        0x0001DC20    _ZNKSt11__timepunctIwE9_M_monthsEPPKw
362        0x0001DE50    _ZNKSt11logic_error4whatEv
363        0x0001DE60    _ZNKSt12__basic_fileIcE7is_openEv
364        0x0001DE70    _ZNKSt12bad_weak_ptr4whatEv
365        0x0001DE80    _ZNKSt12future_error4whatEv
366        0x0001DF60    _ZNKSt12strstreambuf6pcountEv
367        0x0001DF80    _ZNKSt13bad_exception4whatEv
368        0x0001DF90    _ZNKSt13basic_filebufIcSt11char_traitsIcEE7is_openEv
369        0x0001DFB0    _ZNKSt13basic_filebufIwSt11char_traitsIwEE7is_openEv
370        0x0001DFD0    _ZNKSt13basic_fstreamIcSt11char_traitsIcEE5rdbufEv
371        0x0001DFE0    _ZNKSt13basic_fstreamIcSt11char_traitsIcEE7is_openEv
372        0x0001E000    _ZNKSt13basic_fstreamIwSt11char_traitsIwEE5rdbufEv
373        0x0001E010    _ZNKSt13basic_fstreamIwSt11char_traitsIwEE7is_openEv
374        0x0001E030    _ZNKSt13basic_istreamIwSt11char_traitsIwEE6gcountEv
375        0x0001E040    _ZNKSt13basic_istreamIwSt11char_traitsIwEE6sentrycvbEv
376        0x0001E050    _ZNKSt13basic_ostreamIwSt11char_traitsIwEE6sentrycvbEv
377        0x0001E060    _ZNKSt13runtime_error4whatEv
378        0x0001E070    _ZNKSt14basic_ifstreamIcSt11char_traitsIcEE5rdbufEv
379        0x0001E080    _ZNKSt14basic_ifstreamIcSt11char_traitsIcEE7is_openEv
380        0x0001E0A0    _ZNKSt14basic_ifstreamIwSt11char_traitsIwEE5rdbufEv
381        0x0001E0B0    _ZNKSt14basic_ifstreamIwSt11char_traitsIwEE7is_openEv
382        0x0001E0D0    _ZNKSt14basic_ofstreamIcSt11char_traitsIcEE5rdbufEv
383        0x0001E0E0    _ZNKSt14basic_ofstreamIcSt11char_traitsIcEE7is_openEv
384        0x0001E100    _ZNKSt14basic_ofstreamIwSt11char_traitsIwEE5rdbufEv
385        0x0001E110    _ZNKSt14basic_ofstreamIwSt11char_traitsIwEE7is_openEv
386        0x0001E130    _ZNKSt14error_category10equivalentERKSt10error_codei
387        0x0001E150    _ZNKSt14error_category10equivalentEiRKSt15error_condition
388        0x0001E190    _ZNKSt14error_category23default_error_conditionEi
389        0x0001E1A0    _ZNKSt15__exception_ptr13exception_ptr20__cxa_exception_typeEv
390        0x0001E1C0    _ZNKSt15__exception_ptr13exception_ptrcvMS0_FvvEEv
391        0x0001E1E0    _ZNKSt15__exception_ptr13exception_ptrntEv
392        0x0001E1F0    _ZNKSt15basic_streambufIcSt11char_traitsIcEE4gptrEv
393        0x0001E200    _ZNKSt15basic_streambufIcSt11char_traitsIcEE4pptrEv
394        0x0001E210    _ZNKSt15basic_streambufIcSt11char_traitsIcEE5ebackEv
395        0x0001E220    _ZNKSt15basic_streambufIcSt11char_traitsIcEE5egptrEv
396        0x0001E230    _ZNKSt15basic_streambufIcSt11char_traitsIcEE5epptrEv
397        0x0001E240    _ZNKSt15basic_streambufIcSt11char_traitsIcEE5pbaseEv
398        0x0001E250    _ZNKSt15basic_streambufIcSt11char_traitsIcEE6getlocEv
399        0x0001E280    _ZNKSt15basic_streambufIwSt11char_traitsIwEE4gptrEv
400        0x0001E290    _ZNKSt15basic_streambufIwSt11char_traitsIwEE4pptrEv
401        0x0001E2A0    _ZNKSt15basic_streambufIwSt11char_traitsIwEE5ebackEv
402        0x0001E2B0    _ZNKSt15basic_streambufIwSt11char_traitsIwEE5egptrEv
403        0x0001E2C0    _ZNKSt15basic_streambufIwSt11char_traitsIwEE5epptrEv
404        0x0001E2D0    _ZNKSt15basic_streambufIwSt11char_traitsIwEE5pbaseEv
405        0x0001E2E0    _ZNKSt15basic_streambufIwSt11char_traitsIwEE6getlocEv
406        0x0001E310    _ZNKSt15basic_stringbufIcSt11char_traitsIcESaIcEE3strEv
407        0x0001E510    _ZNKSt15basic_stringbufIwSt11char_traitsIwESaIwEE3strEv
408        0x0001E710    _ZNKSt18basic_stringstreamIcSt11char_traitsIcESaIcEE3strEv
409        0x0001E910    _ZNKSt18basic_stringstreamIcSt11char_traitsIcESaIcEE5rdbufEv
410        0x0001E920    _ZNKSt18basic_stringstreamIwSt11char_traitsIwESaIwEE3strEv
411        0x0001EB20    _ZNKSt18basic_stringstreamIwSt11char_traitsIwESaIwEE5rdbufEv
412        0x0001EB30    _ZNKSt19basic_istringstreamIcSt11char_traitsIcESaIcEE3strEv
413        0x0001ED30    _ZNKSt19basic_istringstreamIcSt11char_traitsIcESaIcEE5rdbufEv
414        0x0001ED40    _ZNKSt19basic_istringstreamIwSt11char_traitsIwESaIwEE3strEv
415        0x0001EF40    _ZNKSt19basic_istringstreamIwSt11char_traitsIwESaIwEE5rdbufEv
416        0x0001EF50    _ZNKSt19basic_ostringstreamIcSt11char_traitsIcESaIcEE3strEv
417        0x0001F150    _ZNKSt19basic_ostringstreamIcSt11char_traitsIcESaIcEE5rdbufEv
418        0x0001F160    _ZNKSt19basic_ostringstreamIwSt11char_traitsIwESaIwEE3strEv
419        0x0001F360    _ZNKSt19basic_ostringstreamIwSt11char_traitsIwESaIwEE5rdbufEv
420        0x0001F4F0    _ZNKSt3tr14hashIRKSbIwSt11char_traitsIwESaIwEEEclES6_
421        0x0001F520    _ZNKSt3tr14hashIRKSsEclES2_
422        0x0001F550    _ZNKSt3tr14hashISbIwSt11char_traitsIwESaIwEEEclES4_
423        0x0001F580    _ZNKSt3tr14hashISsEclESs
424        0x0001F5B0    _ZNKSt3tr14hashIeEclEe
425        0x0001F650    _ZNKSt4hashIRKSbIwSt11char_traitsIwESaIwEEEclES5_
426        0x0001F680    _ZNKSt4hashIRKSsEclES1_
427        0x0001F6B0    _ZNKSt4hashISbIwSt11char_traitsIwESaIwEEEclES3_
428        0x0001F6E0    _ZNKSt4hashISsEclESs
429        0x0001F710    _ZNKSt4hashISt10error_codeEclES0_
430        0x0001F750    _ZNKSt4hashIeEclEe
431        0x0001F7F0    _ZNKSt5ctypeIcE10do_tolowerEPcPKc
432        0x0001F830    _ZNKSt5ctypeIcE10do_tolowerEc
433        0x0001F850    _ZNKSt5ctypeIcE10do_toupperEPcPKc
434        0x0001F890    _ZNKSt5ctypeIcE10do_toupperEc
435        0x0001F8B0    _ZNKSt5ctypeIcE13_M_widen_initEv
436        0x0001F910    _ZNKSt5ctypeIcE14_M_narrow_initEv
437        0x0001F9D0    _ZNKSt5ctypeIcE8do_widenEPKcS2_Pc
438        0x0001FA00    _ZNKSt5ctypeIcE8do_widenEc
439        0x0001FA10    _ZNKSt5ctypeIcE9do_narrowEPKcS2_cPc
440        0x0001FA40    _ZNKSt5ctypeIcE9do_narrowEcc
441        0x0001FA50    _ZNKSt5ctypeIwE10do_scan_isEtPKwS2_
442        0x0001FAB0    _ZNKSt5ctypeIwE10do_tolowerEPwPKw
443        0x0001FAE0    _ZNKSt5ctypeIwE10do_tolowerEw
444        0x0001FB00    _ZNKSt5ctypeIwE10do_toupperEPwPKw
445        0x0001FB30    _ZNKSt5ctypeIwE10do_toupperEw
446        0x0001FB50    _ZNKSt5ctypeIwE11do_scan_notEtPKwS2_
447        0x0001FBB0    _ZNKSt5ctypeIwE19_M_convert_to_wmaskEt
448        0x0001FCD0    _ZNKSt5ctypeIwE5do_isEPKwS2_Pt
449        0x0001FD50    _ZNKSt5ctypeIwE5do_isEtw
450        0x0001FDC0    _ZNKSt5ctypeIwE8do_widenEPKcS2_Pw
451        0x0001FE00    _ZNKSt5ctypeIwE8do_widenEc
452        0x0001FE20    _ZNKSt5ctypeIwE9do_narrowEPKwS2_cPc
453        0x0001FEC0    _ZNKSt5ctypeIwE9do_narrowEwc
454        0x0001FF10    _ZNKSt6locale2id5_M_idEv
455        0x0001FF60    _ZNKSt6locale4nameEv
456        0x000202D0    _ZNKSt6localeeqERKS_
457        0x000204B0    _ZNKSt7codecvtIcciE10do_unshiftERiPcS2_RS2_
458        0x000204D0    _ZNKSt7codecvtIcciE11do_encodingEv
459        0x000204E0    _ZNKSt7codecvtIcciE13do_max_lengthEv
460        0x000204F0    _ZNKSt7codecvtIcciE16do_always_noconvEv
461        0x00020500    _ZNKSt7codecvtIcciE5do_inERiPKcS3_RS3_PcS5_RS5_
462        0x00020520    _ZNKSt7codecvtIcciE6do_outERiPKcS3_RS3_PcS5_RS5_
463        0x00020540    _ZNKSt7codecvtIcciE9do_lengthERiPKcS3_j
464        0x00020560    _ZNKSt7codecvtIwciE10do_unshiftERiPcS2_RS2_
465        0x00020580    _ZNKSt7codecvtIwciE11do_encodingEv
466        0x000205A0    _ZNKSt7codecvtIwciE13do_max_lengthEv
467        0x000205B0    _ZNKSt7codecvtIwciE16do_always_noconvEv
468        0x000205C0    _ZNKSt7codecvtIwciE5do_inERiPKcS3_RS3_PwS5_RS5_
469        0x00020660    _ZNKSt7codecvtIwciE6do_outERiPKwS3_RS3_PcS5_RS5_
470        0x00020770    _ZNKSt7codecvtIwciE9do_lengthERiPKcS3_j
471        0x00020800    _ZNKSt7collateIcE10_M_compareEPKcS2_
472        0x00020830    _ZNKSt7collateIcE10do_compareEPKcS2_S2_S2_
473        0x000209A0    _ZNKSt7collateIcE12_M_transformEPcPKcj
474        0x000209D0    _ZNKSt7collateIcE12do_transformEPKcS2_
475        0x00020C40    _ZNKSt7collateIcE4hashEPKcS2_
476        0x00020C70    _ZNKSt7collateIcE7compareEPKcS2_S2_S2_
477        0x00020CA0    _ZNKSt7collateIcE7do_hashEPKcS2_
478        0x00020CD0    _ZNKSt7collateIcE9transformEPKcS2_
479        0x00020D10    _ZNKSt7collateIwE10_M_compareEPKwS2_
480        0x00020D40    _ZNKSt7collateIwE10do_compareEPKwS2_S2_S2_
481        0x00020F40    _ZNKSt7collateIwE12_M_transformEPwPKwj
482        0x00020F70    _ZNKSt7collateIwE12do_transformEPKwS2_
483        0x00021220    _ZNKSt7collateIwE4hashEPKwS2_
484        0x00021250    _ZNKSt7collateIwE7compareEPKwS2_S2_S2_
485        0x00021280    _ZNKSt7collateIwE7do_hashEPKwS2_
486        0x000212B0    _ZNKSt7collateIwE9transformEPKwS2_
487        0x000212F0    _ZNKSt7num_getIcSt19istreambuf_iteratorIcSt11char_traitsIcEEE14_M_extract_intIjEES3_S3_S3_RSt8ios_baseRSt12_Ios_IostateRT_
488        0x00021C80    _ZNKSt7num_getIcSt19istreambuf_iteratorIcSt11char_traitsIcEEE14_M_extract_intIlEES3_S3_S3_RSt8ios_baseRSt12_Ios_IostateRT_
489        0x00022630    _ZNKSt7num_getIcSt19istreambuf_iteratorIcSt11char_traitsIcEEE14_M_extract_intImEES3_S3_S3_RSt8ios_baseRSt12_Ios_IostateRT_
490        0x00022FC0    _ZNKSt7num_getIcSt19istreambuf_iteratorIcSt11char_traitsIcEEE14_M_extract_intItEES3_S3_S3_RSt8ios_baseRSt12_Ios_IostateRT_
491        0x00023970    _ZNKSt7num_getIcSt19istreambuf_iteratorIcSt11char_traitsIcEEE14_M_extract_intIxEES3_S3_S3_RSt8ios_baseRSt12_Ios_IostateRT_
492        0x000244E0    _ZNKSt7num_getIcSt19istreambuf_iteratorIcSt11char_traitsIcEEE14_M_extract_intIyEES3_S3_S3_RSt8ios_baseRSt12_Ios_IostateRT_
493        0x00025000    _ZNKSt7num_getIcSt19istreambuf_iteratorIcSt11char_traitsIcEEE16_M_extract_floatES3_S3_RSt8ios_baseRSt12_Ios_IostateRSs
494        0x00025F00    _ZNKSt7num_getIcSt19istreambuf_iteratorIcSt11char_traitsIcEEE3getES3_S3_RSt8ios_baseRSt12_Ios_IostateRPv
495        0x00025F50    _ZNKSt7num_getIcSt19istreambuf_iteratorIcSt11char_traitsIcEEE3getES3_S3_RSt8ios_baseRSt12_Ios_IostateRb
496        0x00025FA0    _ZNKSt7num_getIcSt19istreambuf_iteratorIcSt11char_traitsIcEEE3getES3_S3_RSt8ios_baseRSt12_Ios_IostateRd
497        0x00025FF0    _ZNKSt7num_getIcSt19istreambuf_iteratorIcSt11char_traitsIcEEE3getES3_S3_RSt8ios_baseRSt12_Ios_IostateRe
498        0x00026040    _ZNKSt7num_getIcSt19istreambuf_iteratorIcSt11char_traitsIcEEE3getES3_S3_RSt8ios_baseRSt12_Ios_IostateRf
499        0x00026090    _ZNKSt7num_getIcSt19istreambuf_iteratorIcSt11char_traitsIcEEE3getES3_S3_RSt8ios_baseRSt12_Ios_IostateRj
500        0x000260E0    _ZNKSt7num_getIcSt19istreambuf_iteratorIcSt11char_traitsIcEEE3getES3_S3_RSt8ios_baseRSt12_Ios_IostateRl
501        0x00026130    _ZNKSt7num_getIcSt19istreambuf_iteratorIcSt11char_traitsIcEEE3getES3_S3_RSt8ios_baseRSt12_Ios_IostateRm
502        0x00026180    _ZNKSt7num_getIcSt19istreambuf_iteratorIcSt11char_traitsIcEEE3getES3_S3_RSt8ios_baseRSt12_Ios_IostateRt
503        0x000261D0    _ZNKSt7num_getIcSt19istreambuf_iteratorIcSt11char_traitsIcEEE3getES3_S3_RSt8ios_baseRSt12_Ios_IostateRx
504        0x00026220    _ZNKSt7num_getIcSt19istreambuf_iteratorIcSt11char_traitsIcEEE3getES3_S3_RSt8ios_baseRSt12_Ios_IostateRy
505        0x00026270    _ZNKSt7num_getIcSt19istreambuf_iteratorIcSt11char_traitsIcEEE6do_getES3_S3_RSt8ios_baseRSt12_Ios_IostateRPv
506        0x000262F0    _ZNKSt7num_getIcSt19istreambuf_iteratorIcSt11char_traitsIcEEE6do_getES3_S3_RSt8ios_baseRSt12_Ios_IostateRb
507        0x00026720    _ZNKSt7num_getIcSt19istreambuf_iteratorIcSt11char_traitsIcEEE6do_getES3_S3_RSt8ios_baseRSt12_Ios_IostateRd
508        0x00026860    _ZNKSt7num_getIcSt19istreambuf_iteratorIcSt11char_traitsIcEEE6do_getES3_S3_RSt8ios_baseRSt12_Ios_IostateRe
509        0x000269A0    _ZNKSt7num_getIcSt19istreambuf_iteratorIcSt11char_traitsIcEEE6do_getES3_S3_RSt8ios_baseRSt12_Ios_IostateRf
510        0x00026AE0    _ZNKSt7num_getIcSt19istreambuf_iteratorIcSt11char_traitsIcEEE6do_getES3_S3_RSt8ios_baseRSt12_Ios_IostateRj
511        0x00026B30    _ZNKSt7num_getIcSt19istreambuf_iteratorIcSt11char_traitsIcEEE6do_getES3_S3_RSt8ios_baseRSt12_Ios_IostateRl
512        0x00026B80    _ZNKSt7num_getIcSt19istreambuf_iteratorIcSt11char_traitsIcEEE6do_getES3_S3_RSt8ios_baseRSt12_Ios_IostateRm
513        0x00026BD0    _ZNKSt7num_getIcSt19istreambuf_iteratorIcSt11char_traitsIcEEE6do_getES3_S3_RSt8ios_baseRSt12_Ios_IostateRt
514        0x00026C20    _ZNKSt7num_getIcSt19istreambuf_iteratorIcSt11char_traitsIcEEE6do_getES3_S3_RSt8ios_baseRSt12_Ios_IostateRx
515        0x00026C70    _ZNKSt7num_getIcSt19istreambuf_iteratorIcSt11char_traitsIcEEE6do_getES3_S3_RSt8ios_baseRSt12_Ios_IostateRy
516        0x00026CC0    _ZNKSt7num_getIwSt19istreambuf_iteratorIwSt11char_traitsIwEEE14_M_extract_intIjEES3_S3_S3_RSt8ios_baseRSt12_Ios_IostateRT_
517        0x00027560    _ZNKSt7num_getIwSt19istreambuf_iteratorIwSt11char_traitsIwEEE14_M_extract_intIlEES3_S3_S3_RSt8ios_baseRSt12_Ios_IostateRT_
518        0x00027E10    _ZNKSt7num_getIwSt19istreambuf_iteratorIwSt11char_traitsIwEEE14_M_extract_intImEES3_S3_S3_RSt8ios_baseRSt12_Ios_IostateRT_
519        0x000286B0    _ZNKSt7num_getIwSt19istreambuf_iteratorIwSt11char_traitsIwEEE14_M_extract_intItEES3_S3_S3_RSt8ios_baseRSt12_Ios_IostateRT_
520        0x00028F70    _ZNKSt7num_getIwSt19istreambuf_iteratorIwSt11char_traitsIwEEE14_M_extract_intIxEES3_S3_S3_RSt8ios_baseRSt12_Ios_IostateRT_
521        0x000299D0    _ZNKSt7num_getIwSt19istreambuf_iteratorIwSt11char_traitsIwEEE14_M_extract_intIyEES3_S3_S3_RSt8ios_baseRSt12_Ios_IostateRT_
522        0x0002A410    _ZNKSt7num_getIwSt19istreambuf_iteratorIwSt11char_traitsIwEEE16_M_extract_floatES3_S3_RSt8ios_baseRSt12_Ios_IostateRSs
523        0x0002B230    _ZNKSt7num_getIwSt19istreambuf_iteratorIwSt11char_traitsIwEEE3getES3_S3_RSt8ios_baseRSt12_Ios_IostateRPv
524        0x0002B280    _ZNKSt7num_getIwSt19istreambuf_iteratorIwSt11char_traitsIwEEE3getES3_S3_RSt8ios_baseRSt12_Ios_IostateRb
525        0x0002B2D0    _ZNKSt7num_getIwSt19istreambuf_iteratorIwSt11char_traitsIwEEE3getES3_S3_RSt8ios_baseRSt12_Ios_IostateRd
526        0x0002B320    _ZNKSt7num_getIwSt19istreambuf_iteratorIwSt11char_traitsIwEEE3getES3_S3_RSt8ios_baseRSt12_Ios_IostateRe
527        0x0002B370    _ZNKSt7num_getIwSt19istreambuf_iteratorIwSt11char_traitsIwEEE3getES3_S3_RSt8ios_baseRSt12_Ios_IostateRf
528        0x0002B3C0    _ZNKSt7num_getIwSt19istreambuf_iteratorIwSt11char_traitsIwEEE3getES3_S3_RSt8ios_baseRSt12_Ios_IostateRj
529        0x0002B410    _ZNKSt7num_getIwSt19istreambuf_iteratorIwSt11char_traitsIwEEE3getES3_S3_RSt8ios_baseRSt12_Ios_IostateRl
530        0x0002B460    _ZNKSt7num_getIwSt19istreambuf_iteratorIwSt11char_traitsIwEEE3getES3_S3_RSt8ios_baseRSt12_Ios_IostateRm
531        0x0002B4B0    _ZNKSt7num_getIwSt19istreambuf_iteratorIwSt11char_traitsIwEEE3getES3_S3_RSt8ios_baseRSt12_Ios_IostateRt
532        0x0002B500    _ZNKSt7num_getIwSt19istreambuf_iteratorIwSt11char_traitsIwEEE3getES3_S3_RSt8ios_baseRSt12_Ios_IostateRx
533        0x0002B550    _ZNKSt7num_getIwSt19istreambuf_iteratorIwSt11char_traitsIwEEE3getES3_S3_RSt8ios_baseRSt12_Ios_IostateRy
534        0x0002B5A0    _ZNKSt7num_getIwSt19istreambuf_iteratorIwSt11char_traitsIwEEE6do_getES3_S3_RSt8ios_baseRSt12_Ios_IostateRPv
535        0x0002B620    _ZNKSt7num_getIwSt19istreambuf_iteratorIwSt11char_traitsIwEEE6do_getES3_S3_RSt8ios_baseRSt12_Ios_IostateRb
536        0x0002B8D0    _ZNKSt7num_getIwSt19istreambuf_iteratorIwSt11char_traitsIwEEE6do_getES3_S3_RSt8ios_baseRSt12_Ios_IostateRd
537        0x0002BA50    _ZNKSt7num_getIwSt19istreambuf_iteratorIwSt11char_traitsIwEEE6do_getES3_S3_RSt8ios_baseRSt12_Ios_IostateRe
538        0x0002BBD0    _ZNKSt7num_getIwSt19istreambuf_iteratorIwSt11char_traitsIwEEE6do_getES3_S3_RSt8ios_baseRSt12_Ios_IostateRf
539        0x0002BD50    _ZNKSt7num_getIwSt19istreambuf_iteratorIwSt11char_traitsIwEEE6do_getES3_S3_RSt8ios_baseRSt12_Ios_IostateRj
540        0x0002BDA0    _ZNKSt7num_getIwSt19istreambuf_iteratorIwSt11char_traitsIwEEE6do_getES3_S3_RSt8ios_baseRSt12_Ios_IostateRl
541        0x0002BDF0    _ZNKSt7num_getIwSt19istreambuf_iteratorIwSt11char_traitsIwEEE6do_getES3_S3_RSt8ios_baseRSt12_Ios_IostateRm
542        0x0002BE40    _ZNKSt7num_getIwSt19istreambuf_iteratorIwSt11char_traitsIwEEE6do_getES3_S3_RSt8ios_baseRSt12_Ios_IostateRt
543        0x0002BE90    _ZNKSt7num_getIwSt19istreambuf_iteratorIwSt11char_traitsIwEEE6do_getES3_S3_RSt8ios_baseRSt12_Ios_IostateRx
544        0x0002BEE0    _ZNKSt7num_getIwSt19istreambuf_iteratorIwSt11char_traitsIwEEE6do_getES3_S3_RSt8ios_baseRSt12_Ios_IostateRy
545        0x0002BF30    _ZNKSt7num_putIcSt19ostreambuf_iteratorIcSt11char_traitsIcEEE12_M_group_intEPKcjcRSt8ios_basePcS9_Ri
546        0x0002BF80    _ZNKSt7num_putIcSt19ostreambuf_iteratorIcSt11char_traitsIcEEE13_M_insert_intIlEES3_S3_RSt8ios_basecT_
547        0x0002C3D0    _ZNKSt7num_putIcSt19ostreambuf_iteratorIcSt11char_traitsIcEEE13_M_insert_intImEES3_S3_RSt8ios_basecT_
548        0x0002C7D0    _ZNKSt7num_putIcSt19ostreambuf_iteratorIcSt11char_traitsIcEEE13_M_insert_intIxEES3_S3_RSt8ios_basecT_
549        0x0002CC50    _ZNKSt7num_putIcSt19ostreambuf_iteratorIcSt11char_traitsIcEEE13_M_insert_intIyEES3_S3_RSt8ios_basecT_
550        0x0002D080    _ZNKSt7num_putIcSt19ostreambuf_iteratorIcSt11char_traitsIcEEE14_M_group_floatEPKcjcS6_PcS7_Ri
551        0x0002D140    _ZNKSt7num_putIcSt19ostreambuf_iteratorIcSt11char_traitsIcEEE15_M_insert_floatIdEES3_S3_RSt8ios_baseccT_
552        0x0002D760    _ZNKSt7num_putIcSt19ostreambuf_iteratorIcSt11char_traitsIcEEE15_M_insert_floatIeEES3_S3_RSt8ios_baseccT_
553        0x0002DD60    _ZNKSt7num_putIcSt19ostreambuf_iteratorIcSt11char_traitsIcEEE3putES3_RSt8ios_basecPKv
554        0x0002DDA0    _ZNKSt7num_putIcSt19ostreambuf_iteratorIcSt11char_traitsIcEEE3putES3_RSt8ios_basecb
555        0x0002DDE0    _ZNKSt7num_putIcSt19ostreambuf_iteratorIcSt11char_traitsIcEEE3putES3_RSt8ios_basecd
556        0x0002DE20    _ZNKSt7num_putIcSt19ostreambuf_iteratorIcSt11char_traitsIcEEE3putES3_RSt8ios_basece
557        0x0002DE80    _ZNKSt7num_putIcSt19ostreambuf_iteratorIcSt11char_traitsIcEEE3putES3_RSt8ios_basecl
558        0x0002DEC0    _ZNKSt7num_putIcSt19ostreambuf_iteratorIcSt11char_traitsIcEEE3putES3_RSt8ios_basecm
559        0x0002DF00    _ZNKSt7num_putIcSt19ostreambuf_iteratorIcSt11char_traitsIcEEE3putES3_RSt8ios_basecx
560        0x0002DF60    _ZNKSt7num_putIcSt19ostreambuf_iteratorIcSt11char_traitsIcEEE3putES3_RSt8ios_basecy
561        0x0002DFC0    _ZNKSt7num_putIcSt19ostreambuf_iteratorIcSt11char_traitsIcEEE6_M_padEciRSt8ios_basePcPKcRi
562        0x0002E010    _ZNKSt7num_putIcSt19ostreambuf_iteratorIcSt11char_traitsIcEEE6do_putES3_RSt8ios_basecPKv
563        0x0002E080    _ZNKSt7num_putIcSt19ostreambuf_iteratorIcSt11char_traitsIcEEE6do_putES3_RSt8ios_basecb
564        0x0002E640    _ZNKSt7num_putIcSt19ostreambuf_iteratorIcSt11char_traitsIcEEE6do_putES3_RSt8ios_basecd
565        0x0002E680    _ZNKSt7num_putIcSt19ostreambuf_iteratorIcSt11char_traitsIcEEE6do_putES3_RSt8ios_basece
566        0x0002E6F0    _ZNKSt7num_putIcSt19ostreambuf_iteratorIcSt11char_traitsIcEEE6do_putES3_RSt8ios_basecl
567        0x0002E730    _ZNKSt7num_putIcSt19ostreambuf_iteratorIcSt11char_traitsIcEEE6do_putES3_RSt8ios_basecm
568        0x0002E770    _ZNKSt7num_putIcSt19ostreambuf_iteratorIcSt11char_traitsIcEEE6do_putES3_RSt8ios_basecx
569        0x0002E7C0    _ZNKSt7num_putIcSt19ostreambuf_iteratorIcSt11char_traitsIcEEE6do_putES3_RSt8ios_basecy
570        0x0002E810    _ZNKSt7num_putIwSt19ostreambuf_iteratorIwSt11char_traitsIwEEE12_M_group_intEPKcjwRSt8ios_basePwS9_Ri
571        0x0002E860    _ZNKSt7num_putIwSt19ostreambuf_iteratorIwSt11char_traitsIwEEE13_M_insert_intIlEES3_S3_RSt8ios_basewT_
572        0x0002EAE0    _ZNKSt7num_putIwSt19ostreambuf_iteratorIwSt11char_traitsIwEEE13_M_insert_intImEES3_S3_RSt8ios_basewT_
573        0x0002ED20    _ZNKSt7num_putIwSt19ostreambuf_iteratorIwSt11char_traitsIwEEE13_M_insert_intIxEES3_S3_RSt8ios_basewT_
574        0x0002F1C0    _ZNKSt7num_putIwSt19ostreambuf_iteratorIwSt11char_traitsIwEEE13_M_insert_intIyEES3_S3_RSt8ios_basewT_
575        0x0002F600    _ZNKSt7num_putIwSt19ostreambuf_iteratorIwSt11char_traitsIwEEE14_M_group_floatEPKcjwPKwPwS9_Ri
576        0x0002F6D0    _ZNKSt7num_putIwSt19ostreambuf_iteratorIwSt11char_traitsIwEEE15_M_insert_floatIdEES3_S3_RSt8ios_basewcT_
577        0x0002FC60    _ZNKSt7num_putIwSt19ostreambuf_iteratorIwSt11char_traitsIwEEE15_M_insert_floatIeEES3_S3_RSt8ios_basewcT_
578        0x000301D0    _ZNKSt7num_putIwSt19ostreambuf_iteratorIwSt11char_traitsIwEEE3putES3_RSt8ios_basewPKv
579        0x00030210    _ZNKSt7num_putIwSt19ostreambuf_iteratorIwSt11char_traitsIwEEE3putES3_RSt8ios_basewb
580        0x00030250    _ZNKSt7num_putIwSt19ostreambuf_iteratorIwSt11char_traitsIwEEE3putES3_RSt8ios_basewd
581        0x00030290    _ZNKSt7num_putIwSt19ostreambuf_iteratorIwSt11char_traitsIwEEE3putES3_RSt8ios_basewe
582        0x000302F0    _ZNKSt7num_putIwSt19ostreambuf_iteratorIwSt11char_traitsIwEEE3putES3_RSt8ios_basewl
583        0x00030330    _ZNKSt7num_putIwSt19ostreambuf_iteratorIwSt11char_traitsIwEEE3putES3_RSt8ios_basewm
584        0x00030370    _ZNKSt7num_putIwSt19ostreambuf_iteratorIwSt11char_traitsIwEEE3putES3_RSt8ios_basewx
585        0x000303D0    _ZNKSt7num_putIwSt19ostreambuf_iteratorIwSt11char_traitsIwEEE3putES3_RSt8ios_basewy
586        0x00030430    _ZNKSt7num_putIwSt19ostreambuf_iteratorIwSt11char_traitsIwEEE6_M_padEwiRSt8ios_basePwPKwRi
587        0x00030480    _ZNKSt7num_putIwSt19ostreambuf_iteratorIwSt11char_traitsIwEEE6do_putES3_RSt8ios_basewPKv
588        0x000304F0    _ZNKSt7num_putIwSt19ostreambuf_iteratorIwSt11char_traitsIwEEE6do_putES3_RSt8ios_basewb
589        0x00030730    _ZNKSt7num_putIwSt19ostreambuf_iteratorIwSt11char_traitsIwEEE6do_putES3_RSt8ios_basewd
590        0x00030770    _ZNKSt7num_putIwSt19ostreambuf_iteratorIwSt11char_traitsIwEEE6do_putES3_RSt8ios_basewe
591        0x000307E0    _ZNKSt7num_putIwSt19ostreambuf_iteratorIwSt11char_traitsIwEEE6do_putES3_RSt8ios_basewl
592        0x00030820    _ZNKSt7num_putIwSt19ostreambuf_iteratorIwSt11char_traitsIwEEE6do_putES3_RSt8ios_basewm
593        0x00030860    _ZNKSt7num_putIwSt19ostreambuf_iteratorIwSt11char_traitsIwEEE6do_putES3_RSt8ios_basewx
594        0x000308B0    _ZNKSt7num_putIwSt19ostreambuf_iteratorIwSt11char_traitsIwEEE6do_putES3_RSt8ios_basewy
595        0x00030900    _ZNKSt8bad_cast4whatEv
596        0x00030910    _ZNKSt8ios_base7failure4whatEv
597        0x00030920    _ZNKSt8messagesIcE18_M_convert_to_charERKSs
598        0x00030930    _ZNKSt8messagesIcE20_M_convert_from_charEPc
599        0x00030940    _ZNKSt8messagesIcE3getEiiiRKSs
600        0x00030990    _ZNKSt8messagesIcE4openERKSsRKSt6locale
601        0x000309C0    _ZNKSt8messagesIcE4openERKSsRKSt6localePKc
602        0x000309F0    _ZNKSt8messagesIcE5closeEi
603        0x00030A10    _ZNKSt8messagesIcE6do_getEiiiRKSs
604        0x00030A40    _ZNKSt8messagesIcE7do_openERKSsRKSt6locale
605        0x00030A50    _ZNKSt8messagesIcE8do_closeEi
606        0x00030A60    _ZNKSt8messagesIwE18_M_convert_to_charERKSbIwSt11char_traitsIwESaIwEE
607        0x00030A70    _ZNKSt8messagesIwE20_M_convert_from_charEPc
608        0x00030A80    _ZNKSt8messagesIwE3getEiiiRKSbIwSt11char_traitsIwESaIwEE
609        0x00030AD0    _ZNKSt8messagesIwE4openERKSsRKSt6locale
610        0x00030B00    _ZNKSt8messagesIwE4openERKSsRKSt6localePKc
611        0x00030B30    _ZNKSt8messagesIwE5closeEi
612        0x00030B50    _ZNKSt8messagesIwE6do_getEiiiRKSbIwSt11char_traitsIwESaIwEE
613        0x00030B80    _ZNKSt8messagesIwE7do_openERKSsRKSt6locale
614        0x00030B90    _ZNKSt8messagesIwE8do_closeEi
615        0x00030BA0    _ZNKSt8numpunctIcE11do_groupingEv
616        0x00030BD0    _ZNKSt8numpunctIcE11do_truenameEv
617        0x00030C00    _ZNKSt8numpunctIcE12do_falsenameEv
618        0x00030C30    _ZNKSt8numpunctIcE13decimal_pointEv
619        0x00030C50    _ZNKSt8numpunctIcE13thousands_sepEv
620        0x00030C70    _ZNKSt8numpunctIcE16do_decimal_pointEv
621        0x00030C80    _ZNKSt8numpunctIcE16do_thousands_sepEv
622        0x00030C90    _ZNKSt8numpunctIcE8groupingEv
623        0x00030CC0    _ZNKSt8numpunctIcE8truenameEv
624        0x00030CF0    _ZNKSt8numpunctIcE9falsenameEv
625        0x00030D20    _ZNKSt8numpunctIwE11do_groupingEv
626        0x00030D50    _ZNKSt8numpunctIwE11do_truenameEv
627        0x00030D80    _ZNKSt8numpunctIwE12do_falsenameEv
628        0x00030DB0    _ZNKSt8numpunctIwE13decimal_pointEv
629        0x00030DD0    _ZNKSt8numpunctIwE13thousands_sepEv
630        0x00030DF0    _ZNKSt8numpunctIwE16do_decimal_pointEv
631        0x00030E00    _ZNKSt8numpunctIwE16do_thousands_sepEv
632        0x00030E10    _ZNKSt8numpunctIwE8groupingEv
633        0x00030E40    _ZNKSt8numpunctIwE8truenameEv
634        0x00030E70    _ZNKSt8numpunctIwE9falsenameEv
635        0x00030EA0    _ZNKSt8time_getIcSt19istreambuf_iteratorIcSt11char_traitsIcEEE10date_orderEv
636        0x00030EC0    _ZNKSt8time_getIcSt19istreambuf_iteratorIcSt11char_traitsIcEEE11do_get_dateES3_S3_RSt8ios_baseRSt12_Ios_IostateP2tm
637        0x00030F50    _ZNKSt8time_getIcSt19istreambuf_iteratorIcSt11char_traitsIcEEE11do_get_timeES3_S3_RSt8ios_baseRSt12_Ios_IostateP2tm
638        0x00030FE0    _ZNKSt8time_getIcSt19istreambuf_iteratorIcSt11char_traitsIcEEE11do_get_yearES3_S3_RSt8ios_baseRSt12_Ios_IostateP2tm
639        0x000310B0    _ZNKSt8time_getIcSt19istreambuf_iteratorIcSt11char_traitsIcEEE11get_weekdayES3_S3_RSt8ios_baseRSt12_Ios_IostateP2tm
640        0x00031100    _ZNKSt8time_getIcSt19istreambuf_iteratorIcSt11char_traitsIcEEE13do_date_orderEv
641        0x00031110    _ZNKSt8time_getIcSt19istreambuf_iteratorIcSt11char_traitsIcEEE13get_monthnameES3_S3_RSt8ios_baseRSt12_Ios_IostateP2tm
642        0x00031160    _ZNKSt8time_getIcSt19istreambuf_iteratorIcSt11char_traitsIcEEE14_M_extract_numES3_S3_RiiijRSt8ios_baseRSt12_Ios_Iostate
643        0x000312D0    _ZNKSt8time_getIcSt19istreambuf_iteratorIcSt11char_traitsIcEEE14do_get_weekdayES3_S3_RSt8ios_baseRSt12_Ios_IostateP2tm
644        0x00031420    _ZNKSt8time_getIcSt19istreambuf_iteratorIcSt11char_traitsIcEEE15_M_extract_nameES3_S3_RiPPKcjRSt8ios_baseRSt12_Ios_Iostate
645        0x000316C0    _ZNKSt8time_getIcSt19istreambuf_iteratorIcSt11char_traitsIcEEE16do_get_monthnameES3_S3_RSt8ios_baseRSt12_Ios_IostateP2tm
646        0x000318A0    _ZNKSt8time_getIcSt19istreambuf_iteratorIcSt11char_traitsIcEEE21_M_extract_via_formatES3_S3_RSt8ios_baseRSt12_Ios_IostateP2tmPKc
647        0x00032650    _ZNKSt8time_getIcSt19istreambuf_iteratorIcSt11char_traitsIcEEE24_M_extract_wday_or_monthES3_S3_RiPPKcjRSt8ios_baseRSt12_Ios_Iostate
648        0x00032920    _ZNKSt8time_getIcSt19istreambuf_iteratorIcSt11char_traitsIcEEE8get_dateES3_S3_RSt8ios_baseRSt12_Ios_IostateP2tm
649        0x00032970    _ZNKSt8time_getIcSt19istreambuf_iteratorIcSt11char_traitsIcEEE8get_timeES3_S3_RSt8ios_baseRSt12_Ios_IostateP2tm
650        0x000329C0    _ZNKSt8time_getIcSt19istreambuf_iteratorIcSt11char_traitsIcEEE8get_yearES3_S3_RSt8ios_baseRSt12_Ios_IostateP2tm
651        0x00032A10    _ZNKSt8time_getIwSt19istreambuf_iteratorIwSt11char_traitsIwEEE10date_orderEv
652        0x00032A30    _ZNKSt8time_getIwSt19istreambuf_iteratorIwSt11char_traitsIwEEE11do_get_dateES3_S3_RSt8ios_baseRSt12_Ios_IostateP2tm
653        0x00032AD0    _ZNKSt8time_getIwSt19istreambuf_iteratorIwSt11char_traitsIwEEE11do_get_timeES3_S3_RSt8ios_baseRSt12_Ios_IostateP2tm
654        0x00032B70    _ZNKSt8time_getIwSt19istreambuf_iteratorIwSt11char_traitsIwEEE11do_get_yearES3_S3_RSt8ios_baseRSt12_Ios_IostateP2tm
655        0x00032C50    _ZNKSt8time_getIwSt19istreambuf_iteratorIwSt11char_traitsIwEEE11get_weekdayES3_S3_RSt8ios_baseRSt12_Ios_IostateP2tm
656        0x00032CA0    _ZNKSt8time_getIwSt19istreambuf_iteratorIwSt11char_traitsIwEEE13do_date_orderEv
657        0x00032CB0    _ZNKSt8time_getIwSt19istreambuf_iteratorIwSt11char_traitsIwEEE13get_monthnameES3_S3_RSt8ios_baseRSt12_Ios_IostateP2tm
658        0x00032D00    _ZNKSt8time_getIwSt19istreambuf_iteratorIwSt11char_traitsIwEEE14_M_extract_numES3_S3_RiiijRSt8ios_baseRSt12_Ios_Iostate
659        0x00032E30    _ZNKSt8time_getIwSt19istreambuf_iteratorIwSt11char_traitsIwEEE14do_get_weekdayES3_S3_RSt8ios_baseRSt12_Ios_IostateP2tm
660        0x00032F80    _ZNKSt8time_getIwSt19istreambuf_iteratorIwSt11char_traitsIwEEE15_M_extract_nameES3_S3_RiPPKwjRSt8ios_baseRSt12_Ios_Iostate
661        0x00033240    _ZNKSt8time_getIwSt19istreambuf_iteratorIwSt11char_traitsIwEEE16do_get_monthnameES3_S3_RSt8ios_baseRSt12_Ios_IostateP2tm
662        0x00033430    _ZNKSt8time_getIwSt19istreambuf_iteratorIwSt11char_traitsIwEEE21_M_extract_via_formatES3_S3_RSt8ios_baseRSt12_Ios_IostateP2tmPKw
663        0x00034400    _ZNKSt8time_getIwSt19istreambuf_iteratorIwSt11char_traitsIwEEE24_M_extract_wday_or_monthES3_S3_RiPPKwjRSt8ios_baseRSt12_Ios_Iostate
664        0x000346E0    _ZNKSt8time_getIwSt19istreambuf_iteratorIwSt11char_traitsIwEEE8get_dateES3_S3_RSt8ios_baseRSt12_Ios_IostateP2tm
665        0x00034730    _ZNKSt8time_getIwSt19istreambuf_iteratorIwSt11char_traitsIwEEE8get_timeES3_S3_RSt8ios_baseRSt12_Ios_IostateP2tm
666        0x00034780    _ZNKSt8time_getIwSt19istreambuf_iteratorIwSt11char_traitsIwEEE8get_yearES3_S3_RSt8ios_baseRSt12_Ios_IostateP2tm
667        0x000347D0    _ZNKSt8time_putIcSt19ostreambuf_iteratorIcSt11char_traitsIcEEE3putES3_RSt8ios_basecPK2tmPKcSB_
668        0x000349C0    _ZNKSt8time_putIcSt19ostreambuf_iteratorIcSt11char_traitsIcEEE3putES3_RSt8ios_basecPK2tmcc
669        0x00034A10    _ZNKSt8time_putIcSt19ostreambuf_iteratorIcSt11char_traitsIcEEE6do_putES3_RSt8ios_basecPK2tmcc
670        0x00034B70    _ZNKSt8time_putIwSt19ostreambuf_iteratorIwSt11char_traitsIwEEE3putES3_RSt8ios_basewPK2tmPKwSB_
671        0x00034CE0    _ZNKSt8time_putIwSt19ostreambuf_iteratorIwSt11char_traitsIwEEE3putES3_RSt8ios_basewPK2tmcc
672        0x00034D30    _ZNKSt8time_putIwSt19ostreambuf_iteratorIwSt11char_traitsIwEEE6do_putES3_RSt8ios_basewPK2tmcc
673        0x00034E60    _ZNKSt8valarrayIjE4sizeEv
674        0x00034E70    _ZNKSt9bad_alloc4whatEv
675        0x00034E80    _ZNKSt9basic_iosIcSt11char_traitsIcEE10exceptionsEv
676        0x00034E90    _ZNKSt9basic_iosIcSt11char_traitsIcEE3badEv
677        0x00034EA0    _ZNKSt9basic_iosIcSt11char_traitsIcEE3eofEv
678        0x00034EB0    _ZNKSt9basic_iosIcSt11char_traitsIcEE3tieEv
679        0x00034EC0    _ZNKSt9basic_iosIcSt11char_traitsIcEE4failEv
680        0x00034ED0    _ZNKSt9basic_iosIcSt11char_traitsIcEE4fillEv
681        0x00034F40    _ZNKSt9basic_iosIcSt11char_traitsIcEE4goodEv
682        0x00034F50    _ZNKSt9basic_iosIcSt11char_traitsIcEE5rdbufEv
683        0x00034F60    _ZNKSt9basic_iosIcSt11char_traitsIcEE5widenEc
684        0x00034FC0    _ZNKSt9basic_iosIcSt11char_traitsIcEE6narrowEcc
685        0x00035040    _ZNKSt9basic_iosIcSt11char_traitsIcEE7rdstateEv
686        0x00035050    _ZNKSt9basic_iosIcSt11char_traitsIcEEcvPvEv
687        0x00035070    _ZNKSt9basic_iosIcSt11char_traitsIcEEntEv
688        0x00035080    _ZNKSt9basic_iosIwSt11char_traitsIwEE10exceptionsEv
689        0x00035090    _ZNKSt9basic_iosIwSt11char_traitsIwEE3badEv
690        0x000350A0    _ZNKSt9basic_iosIwSt11char_traitsIwEE3eofEv
691        0x000350B0    _ZNKSt9basic_iosIwSt11char_traitsIwEE3tieEv
692        0x000350C0    _ZNKSt9basic_iosIwSt11char_traitsIwEE4failEv
693        0x000350D0    _ZNKSt9basic_iosIwSt11char_traitsIwEE4fillEv
694        0x00035120    _ZNKSt9basic_iosIwSt11char_traitsIwEE4goodEv
695        0x00035130    _ZNKSt9basic_iosIwSt11char_traitsIwEE5rdbufEv
696        0x00035140    _ZNKSt9basic_iosIwSt11char_traitsIwEE5widenEc
697        0x00035170    _ZNKSt9basic_iosIwSt11char_traitsIwEE6narrowEwc
698        0x000351B0    _ZNKSt9basic_iosIwSt11char_traitsIwEE7rdstateEv
699        0x000351C0    _ZNKSt9basic_iosIwSt11char_traitsIwEEcvPvEv
700        0x000351E0    _ZNKSt9basic_iosIwSt11char_traitsIwEEntEv
701        0x000351F0    _ZNKSt9exception4whatEv
702        0x00035200    _ZNKSt9money_getIcSt19istreambuf_iteratorIcSt11char_traitsIcEEE10_M_extractILb0EEES3_S3_S3_RSt8ios_baseRSt12_Ios_IostateRSs
703        0x00035F30    _ZNKSt9money_getIcSt19istreambuf_iteratorIcSt11char_traitsIcEEE10_M_extractILb1EEES3_S3_S3_RSt8ios_baseRSt12_Ios_IostateRSs
704        0x00036C60    _ZNKSt9money_getIcSt19istreambuf_iteratorIcSt11char_traitsIcEEE3getES3_S3_bRSt8ios_baseRSt12_Ios_IostateRSs
705        0x00036CC0    _ZNKSt9money_getIcSt19istreambuf_iteratorIcSt11char_traitsIcEEE3getES3_S3_bRSt8ios_baseRSt12_Ios_IostateRe
706        0x00036D20    _ZNKSt9money_getIcSt19istreambuf_iteratorIcSt11char_traitsIcEEE6do_getES3_S3_bRSt8ios_baseRSt12_Ios_IostateRSs
707        0x00036EF0    _ZNKSt9money_getIcSt19istreambuf_iteratorIcSt11char_traitsIcEEE6do_getES3_S3_bRSt8ios_baseRSt12_Ios_IostateRe
708        0x00037000    _ZNKSt9money_getIwSt19istreambuf_iteratorIwSt11char_traitsIwEEE10_M_extractILb0EEES3_S3_S3_RSt8ios_baseRSt12_Ios_IostateRSs
709        0x00037E00    _ZNKSt9money_getIwSt19istreambuf_iteratorIwSt11char_traitsIwEEE10_M_extractILb1EEES3_S3_S3_RSt8ios_baseRSt12_Ios_IostateRSs
710        0x00038C00    _ZNKSt9money_getIwSt19istreambuf_iteratorIwSt11char_traitsIwEEE3getES3_S3_bRSt8ios_baseRSt12_Ios_IostateRSbIwS2_SaIwEE
711        0x00038C60    _ZNKSt9money_getIwSt19istreambuf_iteratorIwSt11char_traitsIwEEE3getES3_S3_bRSt8ios_baseRSt12_Ios_IostateRe
712        0x00038CC0    _ZNKSt9money_getIwSt19istreambuf_iteratorIwSt11char_traitsIwEEE6do_getES3_S3_bRSt8ios_baseRSt12_Ios_IostateRSbIwS2_SaIwEE
713        0x00038E80    _ZNKSt9money_getIwSt19istreambuf_iteratorIwSt11char_traitsIwEEE6do_getES3_S3_bRSt8ios_baseRSt12_Ios_IostateRe
714        0x00038FE0    _ZNKSt9money_putIcSt19ostreambuf_iteratorIcSt11char_traitsIcEEE3putES3_bRSt8ios_basecRKSs
715        0x00039030    _ZNKSt9money_putIcSt19ostreambuf_iteratorIcSt11char_traitsIcEEE3putES3_bRSt8ios_basece
716        0x000390A0    _ZNKSt9money_putIcSt19ostreambuf_iteratorIcSt11char_traitsIcEEE6do_putES3_bRSt8ios_basecRKSs
717        0x00039110    _ZNKSt9money_putIcSt19ostreambuf_iteratorIcSt11char_traitsIcEEE6do_putES3_bRSt8ios_basece
718        0x000393D0    _ZNKSt9money_putIcSt19ostreambuf_iteratorIcSt11char_traitsIcEEE9_M_insertILb0EEES3_S3_RSt8ios_basecRKSs
719        0x00039D90    _ZNKSt9money_putIcSt19ostreambuf_iteratorIcSt11char_traitsIcEEE9_M_insertILb1EEES3_S3_RSt8ios_basecRKSs
720        0x0003A750    _ZNKSt9money_putIwSt19ostreambuf_iteratorIwSt11char_traitsIwEEE3putES3_bRSt8ios_basewRKSbIwS2_SaIwEE
721        0x0003A7A0    _ZNKSt9money_putIwSt19ostreambuf_iteratorIwSt11char_traitsIwEEE3putES3_bRSt8ios_basewe
722        0x0003A810    _ZNKSt9money_putIwSt19ostreambuf_iteratorIwSt11char_traitsIwEEE6do_putES3_bRSt8ios_basewRKSbIwS2_SaIwEE
723        0x0003A880    _ZNKSt9money_putIwSt19ostreambuf_iteratorIwSt11char_traitsIwEEE6do_putES3_bRSt8ios_basewe
724        0x0003AB20    _ZNKSt9money_putIwSt19ostreambuf_iteratorIwSt11char_traitsIwEEE9_M_insertILb0EEES3_S3_RSt8ios_basewRKSbIwS2_SaIwEE
725        0x0003B570    _ZNKSt9money_putIwSt19ostreambuf_iteratorIwSt11char_traitsIwEEE9_M_insertILb1EEES3_S3_RSt8ios_basewRKSbIwS2_SaIwEE
726        0x0003BFC0    _ZNKSt9strstream5rdbufEv
727        0x0003BFD0    _ZNKSt9strstream6pcountEv
728        0x0003BFF0    _ZNKSt9type_info10__do_catchEPKS_PPvj
729        0x0003C010    _ZNKSt9type_info11__do_upcastEPKN10__cxxabiv117__class_type_infoEPPv
730        0x0003C020    _ZNKSt9type_info14__is_pointer_pEv
731        0x0003C030    _ZNKSt9type_info15__is_function_pEv
732        0x0003C040    _ZNKSt9type_info6beforeERKS_
733        0x0003C0B0    _ZNKSt9type_infoeqERKS_
734        0x0003C110    _ZNSaIcEC1ERKS_
735        0x0003C120    _ZNSaIcEC1Ev
736        0x0003C130    _ZNSaIcEC2ERKS_
737        0x0003C140    _ZNSaIcEC2Ev
738        0x0003C150    _ZNSaIcED1Ev
739        0x0003C160    _ZNSaIcED2Ev
740        0x0003C170    _ZNSaIwEC1ERKS_
741        0x0003C180    _ZNSaIwEC1Ev
742        0x0003C190    _ZNSaIwEC2ERKS_
743        0x0003C1A0    _ZNSaIwEC2Ev
744        0x0003C1B0    _ZNSaIwED1Ev
745        0x0003C1C0    _ZNSaIwED2Ev
746        0x0003C1D0    _ZNSbIwSt11char_traitsIwESaIwEE10_S_compareEjj
747        0x0003C1E0    _ZNSbIwSt11char_traitsIwESaIwEE12_Alloc_hiderC1EPwRKS1_
748        0x0003C1F0    _ZNSbIwSt11char_traitsIwESaIwEE12_Alloc_hiderC2EPwRKS1_
749        0x0003C200    _ZNSbIwSt11char_traitsIwESaIwEE12_M_leak_hardEv
750        0x0003C250    _ZNSbIwSt11char_traitsIwESaIwEE12_S_constructEjwRKS1_
751        0x0003C2E0    _ZNSbIwSt11char_traitsIwESaIwEE12_S_constructIN9__gnu_cxx17__normal_iteratorIPwS2_EEEES6_T_S8_RKS1_St20forward_iterator_tag
752        0x0003C370    _ZNSbIwSt11char_traitsIwESaIwEE12_S_constructIPKwEEPwT_S7_RKS1_St20forward_iterator_tag
753        0x0003C440    _ZNSbIwSt11char_traitsIwESaIwEE12_S_constructIPwEES4_T_S5_RKS1_St20forward_iterator_tag
754        0x0003C510    _ZNSbIwSt11char_traitsIwESaIwEE12_S_empty_repEv
755        0x0003C520    _ZNSbIwSt11char_traitsIwESaIwEE13_S_copy_charsEPwN9__gnu_cxx17__normal_iteratorIPKwS2_EES8_
756        0x0003C560    _ZNSbIwSt11char_traitsIwESaIwEE13_S_copy_charsEPwN9__gnu_cxx17__normal_iteratorIS3_S2_EES6_
757        0x0003C5A0    _ZNSbIwSt11char_traitsIwESaIwEE13_S_copy_charsEPwPKwS5_
758        0x0003C5E0    _ZNSbIwSt11char_traitsIwESaIwEE13_S_copy_charsEPwS3_S3_
759        0x0003C620    _ZNSbIwSt11char_traitsIwESaIwEE13shrink_to_fitEv
760        0x0003C6B0    _ZNSbIwSt11char_traitsIwESaIwEE14_M_replace_auxEjjjw
761        0x0003C740    _ZNSbIwSt11char_traitsIwESaIwEE15_M_replace_safeEjjPKwj
762        0x0003C7D0    _ZNSbIwSt11char_traitsIwESaIwEE18_S_construct_aux_2EjwRKS1_
763        0x0003C800    _ZNSbIwSt11char_traitsIwESaIwEE2atEj
764        0x0003C850    _ZNSbIwSt11char_traitsIwESaIwEE3endEv
765        0x0003C880    _ZNSbIwSt11char_traitsIwESaIwEE4_Rep10_M_destroyERKS1_
766        0x0003C8A0    _ZNSbIwSt11char_traitsIwESaIwEE4_Rep10_M_disposeERKS1_
767        0x0003C8C0    _ZNSbIwSt11char_traitsIwESaIwEE4_Rep10_M_refcopyEv
768        0x0003C8F0    _ZNSbIwSt11char_traitsIwESaIwEE4_Rep10_M_refdataEv
769        0x000923F8    _ZNSbIwSt11char_traitsIwESaIwEE4_Rep11_S_max_sizeE
770        0x000923FC    _ZNSbIwSt11char_traitsIwESaIwEE4_Rep11_S_terminalE
771        0x0003C900    _ZNSbIwSt11char_traitsIwESaIwEE4_Rep12_S_empty_repEv
772        0x0003C910    _ZNSbIwSt11char_traitsIwESaIwEE4_Rep13_M_set_leakedEv
773        0x0003C920    _ZNSbIwSt11char_traitsIwESaIwEE4_Rep15_M_set_sharableEv
774        0x0008CE08    _ZNSbIwSt11char_traitsIwESaIwEE4_Rep20_S_empty_rep_storageE
775        0x0003C930    _ZNSbIwSt11char_traitsIwESaIwEE4_Rep26_M_set_length_and_sharableEj
776        0x0003C950    _ZNSbIwSt11char_traitsIwESaIwEE4_Rep7_M_grabERKS1_S5_
777        0x0003C9B0    _ZNSbIwSt11char_traitsIwESaIwEE4_Rep8_M_cloneERKS1_j
778        0x0003CA40    _ZNSbIwSt11char_traitsIwESaIwEE4_Rep9_S_createEjjRKS1_
779        0x0003CAC0    _ZNSbIwSt11char_traitsIwESaIwEE4backEv
780        0x00092400    _ZNSbIwSt11char_traitsIwESaIwEE4nposE
781        0x0003CB00    _ZNSbIwSt11char_traitsIwESaIwEE4rendEv
782        0x0003CB40    _ZNSbIwSt11char_traitsIwESaIwEE4swapERS2_
783        0x0003CB80    _ZNSbIwSt11char_traitsIwESaIwEE5beginEv
784        0x0003CBB0    _ZNSbIwSt11char_traitsIwESaIwEE5clearEv
785        0x0003CBE0    _ZNSbIwSt11char_traitsIwESaIwEE5eraseEN9__gnu_cxx17__normal_iteratorIPwS2_EE
786        0x0003CC30    _ZNSbIwSt11char_traitsIwESaIwEE5eraseEN9__gnu_cxx17__normal_iteratorIPwS2_EES6_
787        0x0003CC90    _ZNSbIwSt11char_traitsIwESaIwEE5eraseEjj
788        0x0003CCE0    _ZNSbIwSt11char_traitsIwESaIwEE5frontEv
789        0x0003CD10    _ZNSbIwSt11char_traitsIwESaIwEE6appendEPKw
790        0x0003CD40    _ZNSbIwSt11char_traitsIwESaIwEE6appendEPKwj
791        0x0003CE30    _ZNSbIwSt11char_traitsIwESaIwEE6appendERKS2_
792        0x0003CED0    _ZNSbIwSt11char_traitsIwESaIwEE6appendERKS2_jj
793        0x0003CFA0    _ZNSbIwSt11char_traitsIwESaIwEE6appendESt16initializer_listIwE
794        0x0003CFD0    _ZNSbIwSt11char_traitsIwESaIwEE6appendEjw
795        0x0003D080    _ZNSbIwSt11char_traitsIwESaIwEE6assignEOS2_
796        0x0003D0C0    _ZNSbIwSt11char_traitsIwESaIwEE6assignEPKw
797        0x0003D0F0    _ZNSbIwSt11char_traitsIwESaIwEE6assignEPKwj
798        0x0003D1F0    _ZNSbIwSt11char_traitsIwESaIwEE6assignERKS2_
799        0x0003D280    _ZNSbIwSt11char_traitsIwESaIwEE6assignERKS2_jj
800        0x0003D2D0    _ZNSbIwSt11char_traitsIwESaIwEE6assignESt16initializer_listIwE
801        0x0003D300    _ZNSbIwSt11char_traitsIwESaIwEE6assignEjw
802        0x0003D340    _ZNSbIwSt11char_traitsIwESaIwEE6insertEN9__gnu_cxx17__normal_iteratorIPwS2_EESt16initializer_listIwE
803        0x0003D370    _ZNSbIwSt11char_traitsIwESaIwEE6insertEN9__gnu_cxx17__normal_iteratorIPwS2_EEjw
804        0x0003D3B0    _ZNSbIwSt11char_traitsIwESaIwEE6insertEN9__gnu_cxx17__normal_iteratorIPwS2_EEw
805        0x0003D400    _ZNSbIwSt11char_traitsIwESaIwEE6insertEjPKw
806        0x0003D440    _ZNSbIwSt11char_traitsIwESaIwEE6insertEjPKwj
807        0x0003D5F0    _ZNSbIwSt11char_traitsIwESaIwEE6insertEjRKS2_
808        0x0003D620    _ZNSbIwSt11char_traitsIwESaIwEE6insertEjRKS2_jj
809        0x0003D670    _ZNSbIwSt11char_traitsIwESaIwEE6insertEjjw
810        0x0003D6C0    _ZNSbIwSt11char_traitsIwESaIwEE6rbeginEv
811        0x0003D700    _ZNSbIwSt11char_traitsIwESaIwEE6resizeEj
812        0x0003D730    _ZNSbIwSt11char_traitsIwESaIwEE6resizeEjw
813        0x0003D7B0    _ZNSbIwSt11char_traitsIwESaIwEE7_M_copyEPwPKwj
814        0x0003D7E0    _ZNSbIwSt11char_traitsIwESaIwEE7_M_dataEPw
815        0x0003D7F0    _ZNSbIwSt11char_traitsIwESaIwEE7_M_leakEv
816        0x0003D810    _ZNSbIwSt11char_traitsIwESaIwEE7_M_moveEPwPKwj
817        0x0003D840    _ZNSbIwSt11char_traitsIwESaIwEE7replaceEN9__gnu_cxx17__normal_iteratorIPwS2_EES6_NS4_IPKwS2_EES9_
818        0x0003D890    _ZNSbIwSt11char_traitsIwESaIwEE7replaceEN9__gnu_cxx17__normal_iteratorIPwS2_EES6_PKw
819        0x0003D8E0    _ZNSbIwSt11char_traitsIwESaIwEE7replaceEN9__gnu_cxx17__normal_iteratorIPwS2_EES6_PKwS8_
820        0x0003D930    _ZNSbIwSt11char_traitsIwESaIwEE7replaceEN9__gnu_cxx17__normal_iteratorIPwS2_EES6_PKwj
821        0x0003D970    _ZNSbIwSt11char_traitsIwESaIwEE7replaceEN9__gnu_cxx17__normal_iteratorIPwS2_EES6_RKS2_
822        0x0003D9C0    _ZNSbIwSt11char_traitsIwESaIwEE7replaceEN9__gnu_cxx17__normal_iteratorIPwS2_EES6_S5_S5_
823        0x0003DA10    _ZNSbIwSt11char_traitsIwESaIwEE7replaceEN9__gnu_cxx17__normal_iteratorIPwS2_EES6_S6_S6_
824        0x0003DA60    _ZNSbIwSt11char_traitsIwESaIwEE7replaceEN9__gnu_cxx17__normal_iteratorIPwS2_EES6_St16initializer_listIwE
825        0x0003DAB0    _ZNSbIwSt11char_traitsIwESaIwEE7replaceEN9__gnu_cxx17__normal_iteratorIPwS2_EES6_jw
826        0x0003DAF0    _ZNSbIwSt11char_traitsIwESaIwEE7replaceEjjPKw
827        0x0003DB30    _ZNSbIwSt11char_traitsIwESaIwEE7replaceEjjPKwj
828        0x0003DD60    _ZNSbIwSt11char_traitsIwESaIwEE7replaceEjjRKS2_
829        0x0003DDA0    _ZNSbIwSt11char_traitsIwESaIwEE7replaceEjjRKS2_jj
830        0x0003DE00    _ZNSbIwSt11char_traitsIwESaIwEE7replaceEjjjw
831        0x0003DE60    _ZNSbIwSt11char_traitsIwESaIwEE7reserveEj
832        0x0003DED0    _ZNSbIwSt11char_traitsIwESaIwEE9_M_assignEPwjw
833        0x0003DF00    _ZNSbIwSt11char_traitsIwESaIwEE9_M_mutateEjjj
834        0x0003E0A0    _ZNSbIwSt11char_traitsIwESaIwEE9push_backEw
835        0x0003E110    _ZNSbIwSt11char_traitsIwESaIwEEC1EOS2_
836        0x0003E130    _ZNSbIwSt11char_traitsIwESaIwEEC1EPKwRKS1_
837        0x0003E180    _ZNSbIwSt11char_traitsIwESaIwEEC1EPKwjRKS1_
838        0x0003E1B0    _ZNSbIwSt11char_traitsIwESaIwEEC1ERKS1_
839        0x0003E1E0    _ZNSbIwSt11char_traitsIwESaIwEEC1ERKS2_
840        0x0003E240    _ZNSbIwSt11char_traitsIwESaIwEEC1ERKS2_jj
841        0x0003E2A0    _ZNSbIwSt11char_traitsIwESaIwEEC1ERKS2_jjRKS1_
842        0x0003E300    _ZNSbIwSt11char_traitsIwESaIwEEC1ESt16initializer_listIwERKS1_
843        0x0003E330    _ZNSbIwSt11char_traitsIwESaIwEEC1EjwRKS1_
844        0x0003E360    _ZNSbIwSt11char_traitsIwESaIwEEC1Ev
845        0x0003E370    _ZNSbIwSt11char_traitsIwESaIwEEC1IN9__gnu_cxx17__normal_iteratorIPwS2_EEEET_S8_RKS1_
846        0x0003E3A0    _ZNSbIwSt11char_traitsIwESaIwEEC1IPKwEET_S6_RKS1_
847        0x0003E3D0    _ZNSbIwSt11char_traitsIwESaIwEEC1IPwEET_S5_RKS1_
848        0x0003E400    _ZNSbIwSt11char_traitsIwESaIwEEC2EOS2_
849        0x0003E420    _ZNSbIwSt11char_traitsIwESaIwEEC2EPKwRKS1_
850        0x0003E470    _ZNSbIwSt11char_traitsIwESaIwEEC2EPKwjRKS1_
851        0x0003E4A0    _ZNSbIwSt11char_traitsIwESaIwEEC2ERKS1_
852        0x0003E4D0    _ZNSbIwSt11char_traitsIwESaIwEEC2ERKS2_
853        0x0003E530    _ZNSbIwSt11char_traitsIwESaIwEEC2ERKS2_jj
854        0x0003E590    _ZNSbIwSt11char_traitsIwESaIwEEC2ERKS2_jjRKS1_
855        0x0003E5F0    _ZNSbIwSt11char_traitsIwESaIwEEC2ESt16initializer_listIwERKS1_
856        0x0003E620    _ZNSbIwSt11char_traitsIwESaIwEEC2EjwRKS1_
857        0x0003E650    _ZNSbIwSt11char_traitsIwESaIwEEC2Ev
858        0x0003E660    _ZNSbIwSt11char_traitsIwESaIwEEC2IN9__gnu_cxx17__normal_iteratorIPwS2_EEEET_S8_RKS1_
859        0x0003E690    _ZNSbIwSt11char_traitsIwESaIwEEC2IPKwEET_S6_RKS1_
860        0x0003E6C0    _ZNSbIwSt11char_traitsIwESaIwEEC2IPwEET_S5_RKS1_
861        0x0003E6F0    _ZNSbIwSt11char_traitsIwESaIwEED1Ev
862        0x0003E720    _ZNSbIwSt11char_traitsIwESaIwEED2Ev
863        0x0003E750    _ZNSbIwSt11char_traitsIwESaIwEEaSEOS2_
864        0x0003E790    _ZNSbIwSt11char_traitsIwESaIwEEaSEPKw
865        0x0003E7C0    _ZNSbIwSt11char_traitsIwESaIwEEaSERKS2_
866        0x0003E7E0    _ZNSbIwSt11char_traitsIwESaIwEEaSESt16initializer_listIwE
867        0x0003E810    _ZNSbIwSt11char_traitsIwESaIwEEaSEw
868        0x0003E850    _ZNSbIwSt11char_traitsIwESaIwEEixEj
869        0x0003E880    _ZNSbIwSt11char_traitsIwESaIwEEpLEPKw
870        0x0003E8B0    _ZNSbIwSt11char_traitsIwESaIwEEpLERKS2_
871        0x0003E8D0    _ZNSbIwSt11char_traitsIwESaIwEEpLESt16initializer_listIwE
872        0x0003E900    _ZNSbIwSt11char_traitsIwESaIwEEpLEw
873        0x0003E970    _ZNSdC1EPSt15basic_streambufIcSt11char_traitsIcEE
874        0x0003EAD0    _ZNSdC1Ev
875        0x0003EC30    _ZNSdC2EPSt15basic_streambufIcSt11char_traitsIcEE
876        0x0003ED30    _ZNSdC2Ev
877        0x0003EE30    _ZNSdD0Ev
878        0x0003EE70    _ZNSdD1Ev
879        0x0003EEB0    _ZNSdD2Ev
880        0x0003EF00    _ZNSi10_M_extractIPvEERSiRT_
881        0x0003F0E0    _ZNSi10_M_extractIbEERSiRT_
882        0x0003F2C0    _ZNSi10_M_extractIdEERSiRT_
883        0x0003F4A0    _ZNSi10_M_extractIeEERSiRT_
884        0x0003F680    _ZNSi10_M_extractIfEERSiRT_
885        0x0003F860    _ZNSi10_M_extractIjEERSiRT_
886        0x0003FA40    _ZNSi10_M_extractIlEERSiRT_
887        0x0003FC20    _ZNSi10_M_extractImEERSiRT_
888        0x0003FE00    _ZNSi10_M_extractItEERSiRT_
889        0x0003FFE0    _ZNSi10_M_extractIxEERSiRT_
890        0x000401C0    _ZNSi10_M_extractIyEERSiRT_
891        0x000403A0    _ZNSi3getEPci
892        0x00040410    _ZNSi3getEPcic
893        0x00040660    _ZNSi3getERSt15basic_streambufIcSt11char_traitsIcEE
894        0x000406C0    _ZNSi3getERSt15basic_streambufIcSt11char_traitsIcEEc
895        0x00040960    _ZNSi3getERc
896        0x00040B30    _ZNSi3getEv
897        0x00040D20    _ZNSi4peekEv
898        0x00040ED0    _ZNSi4readEPci
899        0x00041070    _ZNSi4syncEv
900        0x00041220    _ZNSi5seekgESt4fposIiE
901        0x00041470    _ZNSi5seekgExSt12_Ios_Seekdir
902        0x00041660    _ZNSi5tellgEv
903        0x00041830    _ZNSi5ungetEv
904        0x00041A00    _ZNSi6ignoreEi
905        0x00041CF0    _ZNSi6ignoreEii
906        0x00042110    _ZNSi6ignoreEv
907        0x000422C0    _ZNSi6sentryC1ERSib
908        0x00042400    _ZNSi6sentryC2ERSib
909        0x00042540    _ZNSi7getlineEPci
910        0x000425B0    _ZNSi7getlineEPcic
911        0x00042910    _ZNSi7putbackEc
912        0x00042AE0    _ZNSi8readsomeEPci
913        0x00042CC0    _ZNSiC1EPSt15basic_streambufIcSt11char_traitsIcEE
914        0x00042DB0    _ZNSiC1Ev
915        0x00042EA0    _ZNSiC2EPSt15basic_streambufIcSt11char_traitsIcEE
916        0x00042EE0    _ZNSiC2Ev
917        0x00042F20    _ZNSiD0Ev
918        0x00042F60    _ZNSiD1Ev
919        0x00042F90    _ZNSiD2Ev
920        0x00042FB0    _ZNSirsEPFRSiS_E
921        0x00042FD0    _ZNSirsEPFRSt8ios_baseS0_E
922        0x00042FF0    _ZNSirsEPFRSt9basic_iosIcSt11char_traitsIcEES3_E
923        0x00043010    _ZNSirsEPSt15basic_streambufIcSt11char_traitsIcEE
924        0x000431D0    _ZNSirsERPv
925        0x000431F0    _ZNSirsERb
926        0x00043210    _ZNSirsERd
927        0x00043230    _ZNSirsERe
928        0x00043250    _ZNSirsERf
929        0x00043270    _ZNSirsERi
930        0x00043450    _ZNSirsERj
931        0x00043470    _ZNSirsERl
932        0x00043490    _ZNSirsERm
933        0x000434B0    _ZNSirsERs
934        0x000436C0    _ZNSirsERt
935        0x000436E0    _ZNSirsERx
936        0x00043700    _ZNSirsERy
937        0x00043720    _ZNSo3putEc
938        0x00043940    _ZNSo5flushEv
939        0x00043AB0    _ZNSo5seekpESt4fposIiE
940        0x00043C90    _ZNSo5seekpExSt12_Ios_Seekdir
941        0x00043E40    _ZNSo5tellpEv
942        0x00043FE0    _ZNSo5writeEPKci
943        0x000441E0    _ZNSo6sentryC1ERSo
944        0x00044250    _ZNSo6sentryC2ERSo
945        0x000442C0    _ZNSo6sentryD1Ev
946        0x00044330    _ZNSo6sentryD2Ev
947        0x000443A0    _ZNSo8_M_writeEPKci
948        0x00044400    _ZNSo9_M_insertIPKvEERSoT_
949        0x000446E0    _ZNSo9_M_insertIbEERSoT_
950        0x000449C0    _ZNSo9_M_insertIdEERSoT_
951        0x00044CA0    _ZNSo9_M_insertIeEERSoT_
952        0x00044F70    _ZNSo9_M_insertIlEERSoT_
953        0x00045250    _ZNSo9_M_insertImEERSoT_
954        0x00045530    _ZNSo9_M_insertIxEERSoT_
955        0x00045820    _ZNSo9_M_insertIyEERSoT_
956        0x00045B10    _ZNSoC1EPSt15basic_streambufIcSt11char_traitsIcEE
957        0x00045C00    _ZNSoC1Ev
958        0x00045CF0    _ZNSoC2EPSt15basic_streambufIcSt11char_traitsIcEE
959        0x00045D20    _ZNSoC2Ev
960        0x00045D50    _ZNSoD0Ev
961        0x00045D80    _ZNSoD1Ev
962        0x00045DB0    _ZNSoD2Ev
963        0x00045DD0    _ZNSolsEPFRSoS_E
964        0x00045DF0    _ZNSolsEPFRSt8ios_baseS0_E
965        0x00045E10    _ZNSolsEPFRSt9basic_iosIcSt11char_traitsIcEES3_E
966        0x00045E30    _ZNSolsEPKv
967        0x00045E50    _ZNSolsEPSt15basic_streambufIcSt11char_traitsIcEE
968        0x00046080    _ZNSolsEb
969        0x000460A0    _ZNSolsEd
970        0x000460C0    _ZNSolsEe
971        0x000460F0    _ZNSolsEf
972        0x00046110    _ZNSolsEi
973        0x00046130    _ZNSolsEj
974        0x00046150    _ZNSolsEl
975        0x00046170    _ZNSolsEm
976        0x00046190    _ZNSolsEs
977        0x000461E0    _ZNSolsEt
978        0x00046200    _ZNSolsEx
979        0x00046230    _ZNSolsEy
980        0x00046260    _ZNSs10_S_compareEjj
981        0x00046270    _ZNSs12_Alloc_hiderC1EPcRKSaIcE
982        0x00046280    _ZNSs12_Alloc_hiderC2EPcRKSaIcE
983        0x00046290    _ZNSs12_M_leak_hardEv
984        0x000462E0    _ZNSs12_S_constructEjcRKSaIcE
985        0x00046380    _ZNSs12_S_constructIN9__gnu_cxx17__normal_iteratorIPcSsEEEES2_T_S4_RKSaIcESt20forward_iterator_tag
986        0x00046410    _ZNSs12_S_constructIPKcEEPcT_S3_RKSaIcESt20forward_iterator_tag
987        0x000464F0    _ZNSs12_S_constructIPcEES0_T_S1_RKSaIcESt20forward_iterator_tag
988        0x000465D0    _ZNSs12_S_empty_repEv
989        0x000465E0    _ZNSs13_S_copy_charsEPcN9__gnu_cxx17__normal_iteratorIPKcSsEES4_
990        0x00046610    _ZNSs13_S_copy_charsEPcN9__gnu_cxx17__normal_iteratorIS_SsEES2_
991        0x00046640    _ZNSs13_S_copy_charsEPcPKcS1_
992        0x00046670    _ZNSs13_S_copy_charsEPcS_S_
993        0x000466A0    _ZNSs13shrink_to_fitEv
994        0x00046730    _ZNSs14_M_replace_auxEjjjc
995        0x000467F0    _ZNSs15_M_replace_safeEjjPKcj
996        0x00046880    _ZNSs18_S_construct_aux_2EjcRKSaIcE
997        0x000468B0    _ZNSs2atEj
998        0x00046900    _ZNSs3endEv
999        0x00046930    _ZNSs4_Rep10_M_destroyERKSaIcE
1000       0x00046950    _ZNSs4_Rep10_M_disposeERKSaIcE
1001       0x00046970    _ZNSs4_Rep10_M_refcopyEv
1002       0x000469A0    _ZNSs4_Rep10_M_refdataEv
1003       0x00092404    _ZNSs4_Rep11_S_max_sizeE
1004       0x00092408    _ZNSs4_Rep11_S_terminalE
1005       0x000469B0    _ZNSs4_Rep12_S_empty_repEv
1006       0x000469C0    _ZNSs4_Rep13_M_set_leakedEv
1007       0x000469D0    _ZNSs4_Rep15_M_set_sharableEv
1008       0x0008CE18    _ZNSs4_Rep20_S_empty_rep_storageE
1009       0x000469E0    _ZNSs4_Rep26_M_set_length_and_sharableEj
1010       0x00046A10    _ZNSs4_Rep7_M_grabERKSaIcES2_
1011       0x00046A70    _ZNSs4_Rep8_M_cloneERKSaIcEj
1012       0x00046B00    _ZNSs4_Rep9_S_createEjjRKSaIcE
1013       0x00046B80    _ZNSs4backEv
1014       0x0009240C    _ZNSs4nposE
1015       0x00046BC0    _ZNSs4rendEv
1016       0x00046C00    _ZNSs4swapERSs
1017       0x00046C40    _ZNSs5beginEv
1018       0x00046C70    _ZNSs5clearEv
1019       0x00046CA0    _ZNSs5eraseEN9__gnu_cxx17__normal_iteratorIPcSsEE
1020       0x00046CF0    _ZNSs5eraseEN9__gnu_cxx17__normal_iteratorIPcSsEES2_
1021       0x00046D50    _ZNSs5eraseEjj
1022       0x00046DA0    _ZNSs5frontEv
1023       0x00046DD0    _ZNSs6appendEPKc
1024       0x00046E00    _ZNSs6appendEPKcj
1025       0x00046EE0    _ZNSs6appendERKSs
1026       0x00046F80    _ZNSs6appendERKSsjj
1027       0x00047050    _ZNSs6appendESt16initializer_listIcE
1028       0x00047080    _ZNSs6appendEjc
1029       0x00047130    _ZNSs6assignEOSs
1030       0x00047170    _ZNSs6assignEPKc
1031       0x000471A0    _ZNSs6assignEPKcj
1032       0x00047290    _ZNSs6assignERKSs
1033       0x00047320    _ZNSs6assignERKSsjj
1034       0x00047370    _ZNSs6assignESt16initializer_listIcE
1035       0x000473A0    _ZNSs6assignEjc
1036       0x000473E0    _ZNSs6insertEN9__gnu_cxx17__normal_iteratorIPcSsEESt16initializer_listIcE
1037       0x00047410    _ZNSs6insertEN9__gnu_cxx17__normal_iteratorIPcSsEEc
1038       0x00047460    _ZNSs6insertEN9__gnu_cxx17__normal_iteratorIPcSsEEjc
1039       0x000474A0    _ZNSs6insertEjPKc
1040       0x000474E0    _ZNSs6insertEjPKcj
1041       0x00047680    _ZNSs6insertEjRKSs
1042       0x000476B0    _ZNSs6insertEjRKSsjj
1043       0x00047700    _ZNSs6insertEjjc
1044       0x00047750    _ZNSs6rbeginEv
1045       0x00047790    _ZNSs6resizeEj
1046       0x000477C0    _ZNSs6resizeEjc
1047       0x00047840    _ZNSs7_M_copyEPcPKcj
1048       0x00047870    _ZNSs7_M_dataEPc
1049       0x00047880    _ZNSs7_M_leakEv
1050       0x000478A0    _ZNSs7_M_moveEPcPKcj
1051       0x000478D0    _ZNSs7replaceEN9__gnu_cxx17__normal_iteratorIPcSsEES2_NS0_IPKcSsEES5_
1052       0x00047920    _ZNSs7replaceEN9__gnu_cxx17__normal_iteratorIPcSsEES2_PKc
1053       0x00047970    _ZNSs7replaceEN9__gnu_cxx17__normal_iteratorIPcSsEES2_PKcS4_
1054       0x000479C0    _ZNSs7replaceEN9__gnu_cxx17__normal_iteratorIPcSsEES2_PKcj
1055       0x00047A00    _ZNSs7replaceEN9__gnu_cxx17__normal_iteratorIPcSsEES2_RKSs
1056       0x00047A50    _ZNSs7replaceEN9__gnu_cxx17__normal_iteratorIPcSsEES2_S1_S1_
1057       0x00047AA0    _ZNSs7replaceEN9__gnu_cxx17__normal_iteratorIPcSsEES2_S2_S2_
1058       0x00047AF0    _ZNSs7replaceEN9__gnu_cxx17__normal_iteratorIPcSsEES2_St16initializer_listIcE
1059       0x00047B30    _ZNSs7replaceEN9__gnu_cxx17__normal_iteratorIPcSsEES2_jc
1060       0x00047B70    _ZNSs7replaceEjjPKc
1061       0x00047BB0    _ZNSs7replaceEjjPKcj
1062       0x00047DD0    _ZNSs7replaceEjjRKSs
1063       0x00047E10    _ZNSs7replaceEjjRKSsjj
1064       0x00047E70    _ZNSs7replaceEjjjc
1065       0x00047EE0    _ZNSs7reserveEj
1066       0x00047F50    _ZNSs9_M_assignEPcjc
1067       0x00047F90    _ZNSs9_M_mutateEjjj
1068       0x00048110    _ZNSs9push_backEc
1069       0x00048180    _ZNSsC1EOSs
1070       0x000481A0    _ZNSsC1EPKcRKSaIcE
1071       0x000481E0    _ZNSsC1EPKcjRKSaIcE
1072       0x00048210    _ZNSsC1ERKSaIcE
1073       0x00048240    _ZNSsC1ERKSs
1074       0x000482A0    _ZNSsC1ERKSsjj
1075       0x00048300    _ZNSsC1ERKSsjjRKSaIcE
1076       0x00048360    _ZNSsC1ESt16initializer_listIcERKSaIcE
1077       0x00048390    _ZNSsC1EjcRKSaIcE
1078       0x000483C0    _ZNSsC1Ev
1079       0x000483D0    _ZNSsC1IN9__gnu_cxx17__normal_iteratorIPcSsEEEET_S4_RKSaIcE
1080       0x00048400    _ZNSsC1IPKcEET_S2_RKSaIcE
1081       0x00048430    _ZNSsC1IPcEET_S1_RKSaIcE
1082       0x00048460    _ZNSsC2EOSs
1083       0x00048480    _ZNSsC2EPKcRKSaIcE
1084       0x000484C0    _ZNSsC2EPKcjRKSaIcE
1085       0x000484F0    _ZNSsC2ERKSaIcE
1086       0x00048520    _ZNSsC2ERKSs
1087       0x00048580    _ZNSsC2ERKSsjj
1088       0x000485E0    _ZNSsC2ERKSsjjRKSaIcE
1089       0x00048640    _ZNSsC2ESt16initializer_listIcERKSaIcE
1090       0x00048670    _ZNSsC2EjcRKSaIcE
1091       0x000486A0    _ZNSsC2Ev
1092       0x000486B0    _ZNSsC2IN9__gnu_cxx17__normal_iteratorIPcSsEEEET_S4_RKSaIcE
1093       0x000486E0    _ZNSsC2IPKcEET_S2_RKSaIcE
1094       0x00048710    _ZNSsC2IPcEET_S1_RKSaIcE
1095       0x00048740    _ZNSsD1Ev
1096       0x00048770    _ZNSsD2Ev
1097       0x000487A0    _ZNSsaSEOSs
1098       0x000487E0    _ZNSsaSEPKc
1099       0x00048810    _ZNSsaSERKSs
1100       0x00048830    _ZNSsaSESt16initializer_listIcE
1101       0x00048860    _ZNSsaSEc
1102       0x000488A0    _ZNSsixEj
1103       0x000488D0    _ZNSspLEPKc
1104       0x00048900    _ZNSspLERKSs
1105       0x00048920    _ZNSspLESt16initializer_listIcE
1106       0x00048950    _ZNSspLEc
1107       0x0008CE28    _ZNSt10__num_base11_S_atoms_inE
1108       0x0008CE2C    _ZNSt10__num_base12_S_atoms_outE
1109       0x000489C0    _ZNSt10__num_base15_S_format_floatERKSt8ios_basePcc
1110       0x00048A60    _ZNSt10bad_typeidD0Ev
1111       0x00048A90    _ZNSt10bad_typeidD1Ev
1112       0x00048A90    _ZNSt10bad_typeidD2Ev
1113       0x00092410    _ZNSt10ctype_base5alnumE
1114       0x00092414    _ZNSt10ctype_base5alphaE
1115       0x00092418    _ZNSt10ctype_base5cntrlE
1116       0x0009241C    _ZNSt10ctype_base5digitE
1117       0x00092420    _ZNSt10ctype_base5graphE
1118       0x00092424    _ZNSt10ctype_base5lowerE
1119       0x00092428    _ZNSt10ctype_base5printE
1120       0x0009242C    _ZNSt10ctype_base5punctE
1121       0x00092430    _ZNSt10ctype_base5spaceE
1122       0x00092434    _ZNSt10ctype_base5upperE
1123       0x00092438    _ZNSt10ctype_base6xdigitE
1124       0x00048AB0    _ZNSt10istrstream3strEv
1125       0x00048AD0    _ZNSt10istrstreamC1EPKc
1126       0x00048C50    _ZNSt10istrstreamC1EPKci
1127       0x00048DC0    _ZNSt10istrstreamC1EPc
1128       0x00048F40    _ZNSt10istrstreamC1EPci
1129       0x000490C0    _ZNSt10istrstreamC2EPKc
1130       0x000491D0    _ZNSt10istrstreamC2EPKci
1131       0x000492E0    _ZNSt10istrstreamC2EPc
1132       0x00049400    _ZNSt10istrstreamC2EPci
1133       0x00049520    _ZNSt10istrstreamD0Ev
1134       0x00049540    _ZNSt10istrstreamD1Ev
1135       0x00049620    _ZNSt10istrstreamD2Ev
1136       0x0009243C    _ZNSt10money_base18_S_default_patternE
1137       0x000496E0    _ZNSt10money_base20_S_construct_patternEccc
1138       0x0008CE30    _ZNSt10money_base8_S_atomsE
1139       0x000496F0    _ZNSt10moneypunctIcLb0EE24_M_initialize_moneypunctEPiPKc
1140       0x0008CE34    _ZNSt10moneypunctIcLb0EE2idE
1141       0x00092440    _ZNSt10moneypunctIcLb0EE4intlE
1142       0x00049810    _ZNSt10moneypunctIcLb0EEC1EPSt18__moneypunct_cacheIcLb0EEj
1143       0x000498C0    _ZNSt10moneypunctIcLb0EEC1EPiPKcj
1144       0x00049970    _ZNSt10moneypunctIcLb0EEC1Ej
1145       0x00049A20    _ZNSt10moneypunctIcLb0EEC2EPSt18__moneypunct_cacheIcLb0EEj
1146       0x00049AD0    _ZNSt10moneypunctIcLb0EEC2EPiPKcj
1147       0x00049B80    _ZNSt10moneypunctIcLb0EEC2Ej
1148       0x00049C30    _ZNSt10moneypunctIcLb0EED0Ev
1149       0x00049C50    _ZNSt10moneypunctIcLb0EED1Ev
1150       0x00049C50    _ZNSt10moneypunctIcLb0EED2Ev
1151       0x00049CF0    _ZNSt10moneypunctIcLb1EE24_M_initialize_moneypunctEPiPKc
1152       0x0008CE38    _ZNSt10moneypunctIcLb1EE2idE
1153       0x00092444    _ZNSt10moneypunctIcLb1EE4intlE
1154       0x00049E10    _ZNSt10moneypunctIcLb1EEC1EPSt18__moneypunct_cacheIcLb1EEj
1155       0x00049EC0    _ZNSt10moneypunctIcLb1EEC1EPiPKcj
1156       0x00049F70    _ZNSt10moneypunctIcLb1EEC1Ej
1157       0x0004A020    _ZNSt10moneypunctIcLb1EEC2EPSt18__moneypunct_cacheIcLb1EEj
1158       0x0004A0D0    _ZNSt10moneypunctIcLb1EEC2EPiPKcj
1159       0x0004A180    _ZNSt10moneypunctIcLb1EEC2Ej
1160       0x0004A230    _ZNSt10moneypunctIcLb1EED0Ev
1161       0x0004A250    _ZNSt10moneypunctIcLb1EED1Ev
1162       0x0004A250    _ZNSt10moneypunctIcLb1EED2Ev
1163       0x0004A2F0    _ZNSt10moneypunctIwLb0EE24_M_initialize_moneypunctEPiPKc
1164       0x0008CE3C    _ZNSt10moneypunctIwLb0EE2idE
1165       0x00092448    _ZNSt10moneypunctIwLb0EE4intlE
1166       0x0004A420    _ZNSt10moneypunctIwLb0EEC1EPSt18__moneypunct_cacheIwLb0EEj
1167       0x0004A4D0    _ZNSt10moneypunctIwLb0EEC1EPiPKcj
1168       0x0004A580    _ZNSt10moneypunctIwLb0EEC1Ej
1169       0x0004A630    _ZNSt10moneypunctIwLb0EEC2EPSt18__moneypunct_cacheIwLb0EEj
1170       0x0004A6E0    _ZNSt10moneypunctIwLb0EEC2EPiPKcj
1171       0x0004A790    _ZNSt10moneypunctIwLb0EEC2Ej
1172       0x0004A840    _ZNSt10moneypunctIwLb0EED0Ev
1173       0x0004A860    _ZNSt10moneypunctIwLb0EED1Ev
1174       0x0004A860    _ZNSt10moneypunctIwLb0EED2Ev
1175       0x0004A900    _ZNSt10moneypunctIwLb1EE24_M_initialize_moneypunctEPiPKc
1176       0x0008CE40    _ZNSt10moneypunctIwLb1EE2idE
1177       0x0009244C    _ZNSt10moneypunctIwLb1EE4intlE
1178       0x0004AA30    _ZNSt10moneypunctIwLb1EEC1EPSt18__moneypunct_cacheIwLb1EEj
1179       0x0004AAE0    _ZNSt10moneypunctIwLb1EEC1EPiPKcj
1180       0x0004AB90    _ZNSt10moneypunctIwLb1EEC1Ej
1181       0x0004AC40    _ZNSt10moneypunctIwLb1EEC2EPSt18__moneypunct_cacheIwLb1EEj
1182       0x0004ACF0    _ZNSt10moneypunctIwLb1EEC2EPiPKcj
1183       0x0004ADA0    _ZNSt10moneypunctIwLb1EEC2Ej
1184       0x0004AE50    _ZNSt10moneypunctIwLb1EED0Ev
1185       0x0004AE70    _ZNSt10moneypunctIwLb1EED1Ev
1186       0x0004AE70    _ZNSt10moneypunctIwLb1EED2Ev
1187       0x0004AF10    _ZNSt10ostrstream3strEv
1188       0x0004AF30    _ZNSt10ostrstream6freezeEb
1189       0x0004AF60    _ZNSt10ostrstreamC1EPciSt13_Ios_Openmode
1190       0x0004B0E0    _ZNSt10ostrstreamC1Ev
1191       0x0004B260    _ZNSt10ostrstreamC2EPciSt13_Ios_Openmode
1192       0x0004B380    _ZNSt10ostrstreamC2Ev
1193       0x0004B490    _ZNSt10ostrstreamD0Ev
1194       0x0004B4B0    _ZNSt10ostrstreamD1Ev
1195       0x0004B580    _ZNSt10ostrstreamD2Ev
1196       0x0004B630    _ZNSt11__timepunctIcE23_M_initialize_timepunctEPi
1197       0x0008CE44    _ZNSt11__timepunctIcE2idE
1198       0x0004B970    _ZNSt11__timepunctIcEC1EPSt17__timepunct_cacheIcEj
1199       0x0004BA20    _ZNSt11__timepunctIcEC1EPiPKcj
1200       0x0004BBA0    _ZNSt11__timepunctIcEC1Ej
1201       0x0004BC50    _ZNSt11__timepunctIcEC2EPSt17__timepunct_cacheIcEj
1202       0x0004BD00    _ZNSt11__timepunctIcEC2EPiPKcj
1203       0x0004BE80    _ZNSt11__timepunctIcEC2Ej
1204       0x0004BF30    _ZNSt11__timepunctIcED0Ev
1205       0x0004BF50    _ZNSt11__timepunctIcED1Ev
1206       0x0004C030    _ZNSt11__timepunctIcED2Ev
1207       0x0004C110    _ZNSt11__timepunctIwE23_M_initialize_timepunctEPi
1208       0x0008CE48    _ZNSt11__timepunctIwE2idE
1209       0x0004C450    _ZNSt11__timepunctIwEC1EPSt17__timepunct_cacheIwEj
1210       0x0004C500    _ZNSt11__timepunctIwEC1EPiPKcj
1211       0x0004C680    _ZNSt11__timepunctIwEC1Ej
1212       0x0004C730    _ZNSt11__timepunctIwEC2EPSt17__timepunct_cacheIwEj
1213       0x0004C7E0    _ZNSt11__timepunctIwEC2EPiPKcj
1214       0x0004C960    _ZNSt11__timepunctIwEC2Ej
1215       0x0004CA10    _ZNSt11__timepunctIwED0Ev
1216       0x0004CA30    _ZNSt11__timepunctIwED1Ev
1217       0x0004CB10    _ZNSt11__timepunctIwED2Ev
1218       0x0004CBF0    _ZNSt11logic_errorC1ERKSs
1219       0x0004CBF0    _ZNSt11logic_errorC2ERKSs
1220       0x0004CC80    _ZNSt11logic_errorD0Ev
1221       0x0004CCA0    _ZNSt11logic_errorD1Ev
1222       0x0004CCA0    _ZNSt11logic_errorD2Ev
1223       0x0004CD10    _ZNSt11range_errorC1ERKSs
1224       0x0004CD10    _ZNSt11range_errorC2ERKSs
1225       0x0004CD40    _ZNSt11range_errorD0Ev
1226       0x0004CD70    _ZNSt11range_errorD1Ev
1227       0x0004CD70    _ZNSt11range_errorD2Ev
1228       0x0004CE90    _ZNSt11regex_errorD0Ev
1229       0x0004CEC0    _ZNSt11regex_errorD1Ev
1230       0x0004CEC0    _ZNSt11regex_errorD2Ev
1231       0x0004CEE0    _ZNSt12__basic_fileIcE2fdEv
1232       0x0004CF60    _ZNSt12__basic_fileIcE4fileEv
1233       0x0004CF70    _ZNSt12__basic_fileIcE4openEPKcSt13_Ios_Openmodei
1234       0x0004CFE0    _ZNSt12__basic_fileIcE4syncEv
1235       0x0004D000    _ZNSt12__basic_fileIcE5closeEv
1236       0x0004D060    _ZNSt12__basic_fileIcE6xsgetnEPci
1237       0x0004D0C0    _ZNSt12__basic_fileIcE6xsputnEPKci
1238       0x0004D0E0    _ZNSt12__basic_fileIcE7seekoffExSt12_Ios_Seekdir
1239       0x0004D190    _ZNSt12__basic_fileIcE8sys_openEP6_iobufSt13_Ios_Openmode
1240       0x0004D1F0    _ZNSt12__basic_fileIcE8sys_openEiSt13_Ios_Openmode
1241       0x0004D2E0    _ZNSt12__basic_fileIcE8xsputn_2EPKciS2_i
1242       0x0004D350    _ZNSt12__basic_fileIcE9showmanycEv
1243       0x0004D3F0    _ZNSt12__basic_fileIcEC1EP17__gthread_mutex_t
1244       0x0004D3F0    _ZNSt12__basic_fileIcEC2EP17__gthread_mutex_t
1245       0x0004D410    _ZNSt12__basic_fileIcED1Ev
1246       0x0004D410    _ZNSt12__basic_fileIcED2Ev
1247       0x0004D430    _ZNSt12bad_weak_ptrD0Ev
1248       0x0004D460    _ZNSt12bad_weak_ptrD1Ev
1249       0x0004D460    _ZNSt12bad_weak_ptrD2Ev
1250       0x0004D480    _ZNSt12ctype_bynameIcEC1EPKcj
1251       0x0004D480    _ZNSt12ctype_bynameIcEC2EPKcj
1252       0x0004D580    _ZNSt12ctype_bynameIcED0Ev
1253       0x0004D5B0    _ZNSt12ctype_bynameIcED1Ev
1254       0x0004D5B0    _ZNSt12ctype_bynameIcED2Ev
1255       0x0004D5D0    _ZNSt12ctype_bynameIwEC1EPKcj
1256       0x0004D5D0    _ZNSt12ctype_bynameIwEC2EPKcj
1257       0x0004D6D0    _ZNSt12ctype_bynameIwED0Ev
1258       0x0004D700    _ZNSt12ctype_bynameIwED1Ev
1259       0x0004D700    _ZNSt12ctype_bynameIwED2Ev
1260       0x0004D720    _ZNSt12domain_errorC1ERKSs
1261       0x0004D720    _ZNSt12domain_errorC2ERKSs
1262       0x0004D750    _ZNSt12domain_errorD0Ev
1263       0x0004D780    _ZNSt12domain_errorD1Ev
1264       0x0004D780    _ZNSt12domain_errorD2Ev
1265       0x0004D7A0    _ZNSt12future_errorD0Ev
1266       0x0004D7D0    _ZNSt12future_errorD1Ev
1267       0x0004D7D0    _ZNSt12future_errorD2Ev
1268       0x0004D7F0    _ZNSt12length_errorC1ERKSs
1269       0x0004D7F0    _ZNSt12length_errorC2ERKSs
1270       0x0004D820    _ZNSt12length_errorD0Ev
1271       0x0004D850    _ZNSt12length_errorD1Ev
1272       0x0004D850    _ZNSt12length_errorD2Ev
1273       0x0004D870    _ZNSt12out_of_rangeC1ERKSs
1274       0x0004D870    _ZNSt12out_of_rangeC2ERKSs
1275       0x0004D8A0    _ZNSt12out_of_rangeD0Ev
1276       0x0004D8D0    _ZNSt12out_of_rangeD1Ev
1277       0x0004D8D0    _ZNSt12out_of_rangeD2Ev
1278       0x00092450    _ZNSt12placeholders2_1E
1279       0x00092454    _ZNSt12placeholders2_2E
1280       0x00092458    _ZNSt12placeholders2_3E
1281       0x0009245C    _ZNSt12placeholders2_4E
1282       0x00092460    _ZNSt12placeholders2_5E
1283       0x00092464    _ZNSt12placeholders2_6E
1284       0x00092468    _ZNSt12placeholders2_7E
1285       0x0009246C    _ZNSt12placeholders2_8E
1286       0x00092470    _ZNSt12placeholders2_9E
1287       0x00092474    _ZNSt12placeholders3_10E
1288       0x00092478    _ZNSt12placeholders3_11E
1289       0x0009247C    _ZNSt12placeholders3_12E
1290       0x00092480    _ZNSt12placeholders3_13E
1291       0x00092484    _ZNSt12placeholders3_14E
1292       0x00092488    _ZNSt12placeholders3_15E
1293       0x0009248C    _ZNSt12placeholders3_16E
1294       0x00092490    _ZNSt12placeholders3_17E
1295       0x00092494    _ZNSt12placeholders3_18E
1296       0x00092498    _ZNSt12placeholders3_19E
1297       0x0009249C    _ZNSt12placeholders3_20E
1298       0x000924A0    _ZNSt12placeholders3_21E
1299       0x000924A4    _ZNSt12placeholders3_22E
1300       0x000924A8    _ZNSt12placeholders3_23E
1301       0x000924AC    _ZNSt12placeholders3_24E
1302       0x000924B0    _ZNSt12placeholders3_25E
1303       0x000924B4    _ZNSt12placeholders3_26E
1304       0x000924B8    _ZNSt12placeholders3_27E
1305       0x000924BC    _ZNSt12placeholders3_28E
1306       0x000924C0    _ZNSt12placeholders3_29E
1307       0x0004D8F0    _ZNSt12strstreambuf3strEv
1308       0x0004D910    _ZNSt12strstreambuf6freezeEb
1309       0x0004D940    _ZNSt12strstreambuf6setbufEPci
1310       0x0004D950    _ZNSt12strstreambuf7_M_freeEPc
1311       0x0004D980    _ZNSt12strstreambuf7seekoffExSt12_Ios_SeekdirSt13_Ios_Openmode
1312       0x0004DB80    _ZNSt12strstreambuf7seekposESt4fposIiESt13_Ios_Openmode
1313       0x0004DBF0    _ZNSt12strstreambuf8_M_allocEj
1314       0x0004DC20    _ZNSt12strstreambuf8_M_setupEPcS0_i
1315       0x0004DCB0    _ZNSt12strstreambuf8overflowEi
1316       0x0004DDE0    _ZNSt12strstreambuf9pbackfailEi
1317       0x0004DE40    _ZNSt12strstreambuf9underflowEv
1318       0x0004DE70    _ZNSt12strstreambufC1EPFPvjEPFvS0_E
1319       0x0004DF70    _ZNSt12strstreambufC1EPKai
1320       0x0004E000    _ZNSt12strstreambufC1EPKci
1321       0x0004E090    _ZNSt12strstreambufC1EPKhi
1322       0x0004E120    _ZNSt12strstreambufC1EPaiS0_
1323       0x0004E1A0    _ZNSt12strstreambufC1EPciS0_
1324       0x0004E220    _ZNSt12strstreambufC1EPhiS0_
1325       0x0004E2A0    _ZNSt12strstreambufC1Ei
1326       0x0004DE70    _ZNSt12strstreambufC2EPFPvjEPFvS0_E
1327       0x0004DF70    _ZNSt12strstreambufC2EPKai
1328       0x0004E000    _ZNSt12strstreambufC2EPKci
1329       0x0004E090    _ZNSt12strstreambufC2EPKhi
1330       0x0004E120    _ZNSt12strstreambufC2EPaiS0_
1331       0x0004E1A0    _ZNSt12strstreambufC2EPciS0_
1332       0x0004E220    _ZNSt12strstreambufC2EPhiS0_
1333       0x0004E2A0    _ZNSt12strstreambufC2Ei
1334       0x0004E3B0    _ZNSt12strstreambufD0Ev
1335       0x0004E3D0    _ZNSt12strstreambufD1Ev
1336       0x0004E3D0    _ZNSt12strstreambufD2Ev
1337       0x0004E480    _ZNSt12system_errorD0Ev
1338       0x0004E4B0    _ZNSt12system_errorD1Ev
1339       0x0004E4B0    _ZNSt12system_errorD2Ev
1340       0x0004E4D0    _ZNSt13bad_exceptionD0Ev
1341       0x0004E4F0    _ZNSt13bad_exceptionD1Ev
1342       0x0004E4F0    _ZNSt13bad_exceptionD2Ev
1343       0x0004E500    _ZNSt13basic_filebufIcSt11char_traitsIcEE13_M_set_bufferEi
1344       0x0004E580    _ZNSt13basic_filebufIcSt11char_traitsIcEE14_M_get_ext_posERi
1345       0x0004E5E0    _ZNSt13basic_filebufIcSt11char_traitsIcEE15_M_create_pbackEv
1346       0x0004E610    _ZNSt13basic_filebufIcSt11char_traitsIcEE16_M_destroy_pbackEv
1347       0x0004E650    _ZNSt13basic_filebufIcSt11char_traitsIcEE19_M_terminate_outputEv
1348       0x0004E7D0    _ZNSt13basic_filebufIcSt11char_traitsIcEE22_M_convert_to_externalEPci
1349       0x0004E930    _ZNSt13basic_filebufIcSt11char_traitsIcEE26_M_destroy_internal_bufferEv
1350       0x0004E990    _ZNSt13basic_filebufIcSt11char_traitsIcEE27_M_allocate_internal_bufferEv
1351       0x0004E9D0    _ZNSt13basic_filebufIcSt11char_traitsIcEE4openEPKcSt13_Ios_Openmode
1352       0x0004EAD0    _ZNSt13basic_filebufIcSt11char_traitsIcEE4openERKSsSt13_Ios_Openmode
1353       0x0004EB00    _ZNSt13basic_filebufIcSt11char_traitsIcEE4syncEv
1354       0x0004EB40    _ZNSt13basic_filebufIcSt11char_traitsIcEE5closeEv
1355       0x0004ED20    _ZNSt13basic_filebufIcSt11char_traitsIcEE5imbueERKSt6locale
1356       0x0004EEF0    _ZNSt13basic_filebufIcSt11char_traitsIcEE6setbufEPci
1357       0x0004EF60    _ZNSt13basic_filebufIcSt11char_traitsIcEE6xsgetnEPci
1358       0x0004F1D0    _ZNSt13basic_filebufIcSt11char_traitsIcEE6xsputnEPKci
1359       0x0004F310    _ZNSt13basic_filebufIcSt11char_traitsIcEE7_M_seekExSt12_Ios_Seekdiri
1360       0x0004F3D0    _ZNSt13basic_filebufIcSt11char_traitsIcEE7seekoffExSt12_Ios_SeekdirSt13_Ios_Openmode
1361       0x0004F5D0    _ZNSt13basic_filebufIcSt11char_traitsIcEE7seekposESt4fposIiESt13_Ios_Openmode
1362       0x0004F6A0    _ZNSt13basic_filebufIcSt11char_traitsIcEE8overflowEi
1363       0x0004F8B0    _ZNSt13basic_filebufIcSt11char_traitsIcEE9pbackfailEi
1364       0x0004F9F0    _ZNSt13basic_filebufIcSt11char_traitsIcEE9showmanycEv
1365       0x0004FA80    _ZNSt13basic_filebufIcSt11char_traitsIcEE9underflowEv
1366       0x0004FF00    _ZNSt13basic_filebufIcSt11char_traitsIcEEC1Ev
1367       0x00050090    _ZNSt13basic_filebufIcSt11char_traitsIcEEC2Ev
1368       0x00050220    _ZNSt13basic_filebufIcSt11char_traitsIcEED0Ev
1369       0x00050300    _ZNSt13basic_filebufIcSt11char_traitsIcEED1Ev
1370       0x000503E0    _ZNSt13basic_filebufIcSt11char_traitsIcEED2Ev
1371       0x000504C0    _ZNSt13basic_filebufIwSt11char_traitsIwEE13_M_set_bufferEi
1372       0x00050540    _ZNSt13basic_filebufIwSt11char_traitsIwEE14_M_get_ext_posERi
1373       0x000505A0    _ZNSt13basic_filebufIwSt11char_traitsIwEE15_M_create_pbackEv
1374       0x000505D0    _ZNSt13basic_filebufIwSt11char_traitsIwEE16_M_destroy_pbackEv
1375       0x00050610    _ZNSt13basic_filebufIwSt11char_traitsIwEE19_M_terminate_outputEv
1376       0x00050790    _ZNSt13basic_filebufIwSt11char_traitsIwEE22_M_convert_to_externalEPwi
1377       0x00050920    _ZNSt13basic_filebufIwSt11char_traitsIwEE26_M_destroy_internal_bufferEv
1378       0x00050980    _ZNSt13basic_filebufIwSt11char_traitsIwEE27_M_allocate_internal_bufferEv
1379       0x000509C0    _ZNSt13basic_filebufIwSt11char_traitsIwEE4openEPKcSt13_Ios_Openmode
1380       0x00050AC0    _ZNSt13basic_filebufIwSt11char_traitsIwEE4openERKSsSt13_Ios_Openmode
1381       0x00050AF0    _ZNSt13basic_filebufIwSt11char_traitsIwEE4syncEv
1382       0x00050B30    _ZNSt13basic_filebufIwSt11char_traitsIwEE5closeEv
1383       0x00050D10    _ZNSt13basic_filebufIwSt11char_traitsIwEE5imbueERKSt6locale
1384       0x00050EF0    _ZNSt13basic_filebufIwSt11char_traitsIwEE6setbufEPwi
1385       0x00050F60    _ZNSt13basic_filebufIwSt11char_traitsIwEE6xsgetnEPwi
1386       0x000511E0    _ZNSt13basic_filebufIwSt11char_traitsIwEE6xsputnEPKwi
1387       0x00051310    _ZNSt13basic_filebufIwSt11char_traitsIwEE7_M_seekExSt12_Ios_Seekdiri
1388       0x000513D0    _ZNSt13basic_filebufIwSt11char_traitsIwEE7seekoffExSt12_Ios_SeekdirSt13_Ios_Openmode
1389       0x000515D0    _ZNSt13basic_filebufIwSt11char_traitsIwEE7seekposESt4fposIiESt13_Ios_Openmode
1390       0x000516A0    _ZNSt13basic_filebufIwSt11char_traitsIwEE8overflowEt
1391       0x000518B0    _ZNSt13basic_filebufIwSt11char_traitsIwEE9pbackfailEt
1392       0x000519F0    _ZNSt13basic_filebufIwSt11char_traitsIwEE9showmanycEv
1393       0x00051A80    _ZNSt13basic_filebufIwSt11char_traitsIwEE9underflowEv
1394       0x00051EF0    _ZNSt13basic_filebufIwSt11char_traitsIwEEC1Ev
1395       0x00052080    _ZNSt13basic_filebufIwSt11char_traitsIwEEC2Ev
1396       0x00052210    _ZNSt13basic_filebufIwSt11char_traitsIwEED0Ev
1397       0x000522F0    _ZNSt13basic_filebufIwSt11char_traitsIwEED1Ev
1398       0x000523D0    _ZNSt13basic_filebufIwSt11char_traitsIwEED2Ev
1399       0x000524B0    _ZNSt13basic_fstreamIcSt11char_traitsIcEE4openEPKcSt13_Ios_Openmode
1400       0x00052510    _ZNSt13basic_fstreamIcSt11char_traitsIcEE4openERKSsSt13_Ios_Openmode
1401       0x00052580    _ZNSt13basic_fstreamIcSt11char_traitsIcEE5closeEv
1402       0x000525C0    _ZNSt13basic_fstreamIcSt11char_traitsIcEE7is_openEv
1403       0x000525E0    _ZNSt13basic_fstreamIcSt11char_traitsIcEEC1EPKcSt13_Ios_Openmode
1404       0x00052830    _ZNSt13basic_fstreamIcSt11char_traitsIcEEC1ERKSsSt13_Ios_Openmode
1405       0x00052A80    _ZNSt13basic_fstreamIcSt11char_traitsIcEEC1Ev
1406       0x00052C70    _ZNSt13basic_fstreamIcSt11char_traitsIcEEC2EPKcSt13_Ios_Openmode
1407       0x00052E70    _ZNSt13basic_fstreamIcSt11char_traitsIcEEC2ERKSsSt13_Ios_Openmode
1408       0x00053080    _ZNSt13basic_fstreamIcSt11char_traitsIcEEC2Ev
1409       0x00053230    _ZNSt13basic_fstreamIcSt11char_traitsIcEED0Ev
1410       0x00053390    _ZNSt13basic_fstreamIcSt11char_traitsIcEED1Ev
1411       0x000534E0    _ZNSt13basic_fstreamIcSt11char_traitsIcEED2Ev
1412       0x00053640    _ZNSt13basic_fstreamIwSt11char_traitsIwEE4openEPKcSt13_Ios_Openmode
1413       0x000536A0    _ZNSt13basic_fstreamIwSt11char_traitsIwEE4openERKSsSt13_Ios_Openmode
1414       0x00053710    _ZNSt13basic_fstreamIwSt11char_traitsIwEE5closeEv
1415       0x00053750    _ZNSt13basic_fstreamIwSt11char_traitsIwEE7is_openEv
1416       0x00053770    _ZNSt13basic_fstreamIwSt11char_traitsIwEEC1EPKcSt13_Ios_Openmode
1417       0x000539C0    _ZNSt13basic_fstreamIwSt11char_traitsIwEEC1ERKSsSt13_Ios_Openmode
1418       0x00053C10    _ZNSt13basic_fstreamIwSt11char_traitsIwEEC1Ev
1419       0x00053E00    _ZNSt13basic_fstreamIwSt11char_traitsIwEEC2EPKcSt13_Ios_Openmode
1420       0x00054000    _ZNSt13basic_fstreamIwSt11char_traitsIwEEC2ERKSsSt13_Ios_Openmode
1421       0x00054210    _ZNSt13basic_fstreamIwSt11char_traitsIwEEC2Ev
1422       0x000543C0    _ZNSt13basic_fstreamIwSt11char_traitsIwEED0Ev
1423       0x00054520    _ZNSt13basic_fstreamIwSt11char_traitsIwEED1Ev
1424       0x00054670    _ZNSt13basic_fstreamIwSt11char_traitsIwEED2Ev
1425       0x000547D0    _ZNSt13basic_istreamIwSt11char_traitsIwEE10_M_extractIPvEERS2_RT_
1426       0x000549B0    _ZNSt13basic_istreamIwSt11char_traitsIwEE10_M_extractIbEERS2_RT_
1427       0x00054B90    _ZNSt13basic_istreamIwSt11char_traitsIwEE10_M_extractIdEERS2_RT_
1428       0x00054D70    _ZNSt13basic_istreamIwSt11char_traitsIwEE10_M_extractIeEERS2_RT_
1429       0x00054F50    _ZNSt13basic_istreamIwSt11char_traitsIwEE10_M_extractIfEERS2_RT_
1430       0x00055130    _ZNSt13basic_istreamIwSt11char_traitsIwEE10_M_extractIjEERS2_RT_
1431       0x00055310    _ZNSt13basic_istreamIwSt11char_traitsIwEE10_M_extractIlEERS2_RT_
1432       0x000554F0    _ZNSt13basic_istreamIwSt11char_traitsIwEE10_M_extractImEERS2_RT_
1433       0x000556D0    _ZNSt13basic_istreamIwSt11char_traitsIwEE10_M_extractItEERS2_RT_
1434       0x000558B0    _ZNSt13basic_istreamIwSt11char_traitsIwEE10_M_extractIxEERS2_RT_
1435       0x00055A90    _ZNSt13basic_istreamIwSt11char_traitsIwEE10_M_extractIyEERS2_RT_
1436       0x00055C70    _ZNSt13basic_istreamIwSt11char_traitsIwEE3getEPwi
1437       0x00055CC0    _ZNSt13basic_istreamIwSt11char_traitsIwEE3getEPwiw
1438       0x00055F10    _ZNSt13basic_istreamIwSt11char_traitsIwEE3getERSt15basic_streambufIwS1_E
1439       0x00055F60    _ZNSt13basic_istreamIwSt11char_traitsIwEE3getERSt15basic_streambufIwS1_Ew
1440       0x00056200    _ZNSt13basic_istreamIwSt11char_traitsIwEE3getERw
1441       0x000563E0    _ZNSt13basic_istreamIwSt11char_traitsIwEE3getEv
1442       0x000565D0    _ZNSt13basic_istreamIwSt11char_traitsIwEE4peekEv
1443       0x00056780    _ZNSt13basic_istreamIwSt11char_traitsIwEE4readEPwi
1444       0x00056920    _ZNSt13basic_istreamIwSt11char_traitsIwEE4syncEv
1445       0x00056AD0    _ZNSt13basic_istreamIwSt11char_traitsIwEE5seekgESt4fposIiE
1446       0x00056D20    _ZNSt13basic_istreamIwSt11char_traitsIwEE5seekgExSt12_Ios_Seekdir
1447       0x00056F10    _ZNSt13basic_istreamIwSt11char_traitsIwEE5tellgEv
1448       0x000570E0    _ZNSt13basic_istreamIwSt11char_traitsIwEE5ungetEv
1449       0x000572B0    _ZNSt13basic_istreamIwSt11char_traitsIwEE6ignoreEi
1450       0x00057970    _ZNSt13basic_istreamIwSt11char_traitsIwEE6ignoreEv
1451       0x00057B20    _ZNSt13basic_istreamIwSt11char_traitsIwEE6sentryC1ERS2_b
1452       0x00057C80    _ZNSt13basic_istreamIwSt11char_traitsIwEE6sentryC2ERS2_b
1453       0x00057DE0    _ZNSt13basic_istreamIwSt11char_traitsIwEE7getlineEPwi
1454       0x00057E30    _ZNSt13basic_istreamIwSt11char_traitsIwEE7getlineEPwiw
1455       0x00058190    _ZNSt13basic_istreamIwSt11char_traitsIwEE7putbackEw
1456       0x00058370    _ZNSt13basic_istreamIwSt11char_traitsIwEE8readsomeEPwi
1457       0x00058550    _ZNSt13basic_istreamIwSt11char_traitsIwEEC1EPSt15basic_streambufIwS1_E
1458       0x00058640    _ZNSt13basic_istreamIwSt11char_traitsIwEEC1Ev
1459       0x00058730    _ZNSt13basic_istreamIwSt11char_traitsIwEEC2EPSt15basic_streambufIwS1_E
1460       0x00058770    _ZNSt13basic_istreamIwSt11char_traitsIwEEC2Ev
1461       0x000587B0    _ZNSt13basic_istreamIwSt11char_traitsIwEED0Ev
1462       0x000587F0    _ZNSt13basic_istreamIwSt11char_traitsIwEED1Ev
1463       0x00058820    _ZNSt13basic_istreamIwSt11char_traitsIwEED2Ev
1464       0x00058840    _ZNSt13basic_istreamIwSt11char_traitsIwEErsEPFRS2_S3_E
1465       0x00058860    _ZNSt13basic_istreamIwSt11char_traitsIwEErsEPFRSt8ios_baseS4_E
1466       0x00058880    _ZNSt13basic_istreamIwSt11char_traitsIwEErsEPFRSt9basic_iosIwS1_ES5_E
1467       0x000588A0    _ZNSt13basic_istreamIwSt11char_traitsIwEErsEPSt15basic_streambufIwS1_E
1468       0x00058A60    _ZNSt13basic_istreamIwSt11char_traitsIwEErsERPv
1469       0x00058A80    _ZNSt13basic_istreamIwSt11char_traitsIwEErsERb
1470       0x00058AA0    _ZNSt13basic_istreamIwSt11char_traitsIwEErsERd
1471       0x00058AC0    _ZNSt13basic_istreamIwSt11char_traitsIwEErsERe
1472       0x00058AE0    _ZNSt13basic_istreamIwSt11char_traitsIwEErsERf
1473       0x00058B00    _ZNSt13basic_istreamIwSt11char_traitsIwEErsERi
1474       0x00058CE0    _ZNSt13basic_istreamIwSt11char_traitsIwEErsERj
1475       0x00058D00    _ZNSt13basic_istreamIwSt11char_traitsIwEErsERl
1476       0x00058D20    _ZNSt13basic_istreamIwSt11char_traitsIwEErsERm
1477       0x00058D40    _ZNSt13basic_istreamIwSt11char_traitsIwEErsERs
1478       0x00058F50    _ZNSt13basic_istreamIwSt11char_traitsIwEErsERt
1479       0x00058F70    _ZNSt13basic_istreamIwSt11char_traitsIwEErsERx
1480       0x00058F90    _ZNSt13basic_istreamIwSt11char_traitsIwEErsERy
1481       0x00058FB0    _ZNSt13basic_ostreamIwSt11char_traitsIwEE3putEw
1482       0x000591E0    _ZNSt13basic_ostreamIwSt11char_traitsIwEE5flushEv
1483       0x00059350    _ZNSt13basic_ostreamIwSt11char_traitsIwEE5seekpESt4fposIiE
1484       0x00059530    _ZNSt13basic_ostreamIwSt11char_traitsIwEE5seekpExSt12_Ios_Seekdir
1485       0x000596E0    _ZNSt13basic_ostreamIwSt11char_traitsIwEE5tellpEv
1486       0x00059880    _ZNSt13basic_ostreamIwSt11char_traitsIwEE5writeEPKwi
1487       0x00059A80    _ZNSt13basic_ostreamIwSt11char_traitsIwEE6sentryC1ERS2_
1488       0x00059AF0    _ZNSt13basic_ostreamIwSt11char_traitsIwEE6sentryC2ERS2_
1489       0x00059B60    _ZNSt13basic_ostreamIwSt11char_traitsIwEE6sentryD1Ev
1490       0x00059BD0    _ZNSt13basic_ostreamIwSt11char_traitsIwEE6sentryD2Ev
1491       0x00059C40    _ZNSt13basic_ostreamIwSt11char_traitsIwEE8_M_writeEPKwi
1492       0x00059CA0    _ZNSt13basic_ostreamIwSt11char_traitsIwEE9_M_insertIPKvEERS2_T_
1493       0x00059F50    _ZNSt13basic_ostreamIwSt11char_traitsIwEE9_M_insertIbEERS2_T_
1494       0x0005A210    _ZNSt13basic_ostreamIwSt11char_traitsIwEE9_M_insertIdEERS2_T_
1495       0x0005A4C0    _ZNSt13basic_ostreamIwSt11char_traitsIwEE9_M_insertIeEERS2_T_
1496       0x0005A770    _ZNSt13basic_ostreamIwSt11char_traitsIwEE9_M_insertIlEERS2_T_
1497       0x0005AA20    _ZNSt13basic_ostreamIwSt11char_traitsIwEE9_M_insertImEERS2_T_
1498       0x0005ACD0    _ZNSt13basic_ostreamIwSt11char_traitsIwEE9_M_insertIxEERS2_T_
1499       0x0005AF90    _ZNSt13basic_ostreamIwSt11char_traitsIwEE9_M_insertIyEERS2_T_
1500       0x0005B250    _ZNSt13basic_ostreamIwSt11char_traitsIwEEC1EPSt15basic_streambufIwS1_E
1501       0x0005B340    _ZNSt13basic_ostreamIwSt11char_traitsIwEEC1Ev
1502       0x0005B430    _ZNSt13basic_ostreamIwSt11char_traitsIwEEC2EPSt15basic_streambufIwS1_E
1503       0x0005B460    _ZNSt13basic_ostreamIwSt11char_traitsIwEEC2Ev
1504       0x0005B490    _ZNSt13basic_ostreamIwSt11char_traitsIwEED0Ev
1505       0x0005B4C0    _ZNSt13basic_ostreamIwSt11char_traitsIwEED1Ev
1506       0x0005B4F0    _ZNSt13basic_ostreamIwSt11char_traitsIwEED2Ev
1507       0x0005B510    _ZNSt13basic_ostreamIwSt11char_traitsIwEElsEPFRS2_S3_E
1508       0x0005B530    _ZNSt13basic_ostreamIwSt11char_traitsIwEElsEPFRSt8ios_baseS4_E
1509       0x0005B550    _ZNSt13basic_ostreamIwSt11char_traitsIwEElsEPFRSt9basic_iosIwS1_ES5_E
1510       0x0005B570    _ZNSt13basic_ostreamIwSt11char_traitsIwEElsEPKv
1511       0x0005B590    _ZNSt13basic_ostreamIwSt11char_traitsIwEElsEPSt15basic_streambufIwS1_E
1512       0x0005B7C0    _ZNSt13basic_ostreamIwSt11char_traitsIwEElsEb
1513       0x0005B7E0    _ZNSt13basic_ostreamIwSt11char_traitsIwEElsEd
1514       0x0005B800    _ZNSt13basic_ostreamIwSt11char_traitsIwEElsEe
1515       0x0005B830    _ZNSt13basic_ostreamIwSt11char_traitsIwEElsEf
1516       0x0005B850    _ZNSt13basic_ostreamIwSt11char_traitsIwEElsEi
1517       0x0005B870    _ZNSt13basic_ostreamIwSt11char_traitsIwEElsEj
1518       0x0005B890    _ZNSt13basic_ostreamIwSt11char_traitsIwEElsEl
1519       0x0005B8B0    _ZNSt13basic_ostreamIwSt11char_traitsIwEElsEm
1520       0x0005B8D0    _ZNSt13basic_ostreamIwSt11char_traitsIwEElsEs
1521       0x0005B920    _ZNSt13basic_ostreamIwSt11char_traitsIwEElsEt
1522       0x0005B940    _ZNSt13basic_ostreamIwSt11char_traitsIwEElsEx
1523       0x0005B970    _ZNSt13basic_ostreamIwSt11char_traitsIwEElsEy
1524       0x0005B9A0    _ZNSt13runtime_errorC1ERKSs
1525       0x0005B9A0    _ZNSt13runtime_errorC2ERKSs
1526       0x0005BA30    _ZNSt13runtime_errorD0Ev
1527       0x0005BA50    _ZNSt13runtime_errorD1Ev
1528       0x0005BA50    _ZNSt13runtime_errorD2Ev
1529       0x0005BAC0    _ZNSt14basic_ifstreamIcSt11char_traitsIcEE4openEPKcSt13_Ios_Openmode
1530       0x0005BB30    _ZNSt14basic_ifstreamIcSt11char_traitsIcEE4openERKSsSt13_Ios_Openmode
1531       0x0005BBA0    _ZNSt14basic_ifstreamIcSt11char_traitsIcEE5closeEv
1532       0x0005BBE0    _ZNSt14basic_ifstreamIcSt11char_traitsIcEE7is_openEv
1533       0x0005BC00    _ZNSt14basic_ifstreamIcSt11char_traitsIcEEC1EPKcSt13_Ios_Openmode
1534       0x0005BDF0    _ZNSt14basic_ifstreamIcSt11char_traitsIcEEC1ERKSsSt13_Ios_Openmode
1535       0x0005BFE0    _ZNSt14basic_ifstreamIcSt11char_traitsIcEEC1Ev
1536       0x0005C160    _ZNSt14basic_ifstreamIcSt11char_traitsIcEEC2EPKcSt13_Ios_Openmode
1537       0x0005C2E0    _ZNSt14basic_ifstreamIcSt11char_traitsIcEEC2ERKSsSt13_Ios_Openmode
1538       0x0005C460    _ZNSt14basic_ifstreamIcSt11char_traitsIcEEC2Ev
1539       0x0005C580    _ZNSt14basic_ifstreamIcSt11char_traitsIcEED0Ev
1540       0x0005C6D0    _ZNSt14basic_ifstreamIcSt11char_traitsIcEED1Ev
1541       0x0005C810    _ZNSt14basic_ifstreamIcSt11char_traitsIcEED2Ev
1542       0x0005C940    _ZNSt14basic_ifstreamIwSt11char_traitsIwEE4openEPKcSt13_Ios_Openmode
1543       0x0005C9B0    _ZNSt14basic_ifstreamIwSt11char_traitsIwEE4openERKSsSt13_Ios_Openmode
1544       0x0005CA20    _ZNSt14basic_ifstreamIwSt11char_traitsIwEE5closeEv
1545       0x0005CA60    _ZNSt14basic_ifstreamIwSt11char_traitsIwEE7is_openEv
1546       0x0005CA80    _ZNSt14basic_ifstreamIwSt11char_traitsIwEEC1EPKcSt13_Ios_Openmode
1547       0x0005CC70    _ZNSt14basic_ifstreamIwSt11char_traitsIwEEC1ERKSsSt13_Ios_Openmode
1548       0x0005CE60    _ZNSt14basic_ifstreamIwSt11char_traitsIwEEC1Ev
1549       0x0005CFF0    _ZNSt14basic_ifstreamIwSt11char_traitsIwEEC2EPKcSt13_Ios_Openmode
1550       0x0005D170    _ZNSt14basic_ifstreamIwSt11char_traitsIwEEC2ERKSsSt13_Ios_Openmode
1551       0x0005D2F0    _ZNSt14basic_ifstreamIwSt11char_traitsIwEEC2Ev
1552       0x0005D410    _ZNSt14basic_ifstreamIwSt11char_traitsIwEED0Ev
1553       0x0005D560    _ZNSt14basic_ifstreamIwSt11char_traitsIwEED1Ev
1554       0x0005D6A0    _ZNSt14basic_ifstreamIwSt11char_traitsIwEED2Ev
1555       0x0005D7D0    _ZNSt14basic_iostreamIwSt11char_traitsIwEEC1EPSt15basic_streambufIwS1_E
1556       0x0005D930    _ZNSt14basic_iostreamIwSt11char_traitsIwEEC1Ev
1557       0x0005DA90    _ZNSt14basic_iostreamIwSt11char_traitsIwEEC2EPSt15basic_streambufIwS1_E
1558       0x0005DB90    _ZNSt14basic_iostreamIwSt11char_traitsIwEEC2Ev
1559       0x0005DC90    _ZNSt14basic_iostreamIwSt11char_traitsIwEED0Ev
1560       0x0005DCD0    _ZNSt14basic_iostreamIwSt11char_traitsIwEED1Ev
1561       0x0005DD10    _ZNSt14basic_iostreamIwSt11char_traitsIwEED2Ev
1562       0x0005DD60    _ZNSt14basic_ofstreamIcSt11char_traitsIcEE4openEPKcSt13_Ios_Openmode
1563       0x0005DDD0    _ZNSt14basic_ofstreamIcSt11char_traitsIcEE4openERKSsSt13_Ios_Openmode
1564       0x0005DE40    _ZNSt14basic_ofstreamIcSt11char_traitsIcEE5closeEv
1565       0x0005DE80    _ZNSt14basic_ofstreamIcSt11char_traitsIcEE7is_openEv
1566       0x0005DEA0    _ZNSt14basic_ofstreamIcSt11char_traitsIcEEC1EPKcSt13_Ios_Openmode
1567       0x0005E080    _ZNSt14basic_ofstreamIcSt11char_traitsIcEEC1ERKSsSt13_Ios_Openmode
1568       0x0005E260    _ZNSt14basic_ofstreamIcSt11char_traitsIcEEC1Ev
1569       0x0005E3E0    _ZNSt14basic_ofstreamIcSt11char_traitsIcEEC2EPKcSt13_Ios_Openmode
1570       0x0005E550    _ZNSt14basic_ofstreamIcSt11char_traitsIcEEC2ERKSsSt13_Ios_Openmode
1571       0x0005E6D0    _ZNSt14basic_ofstreamIcSt11char_traitsIcEEC2Ev
1572       0x0005E7E0    _ZNSt14basic_ofstreamIcSt11char_traitsIcEED0Ev
1573       0x0005E920    _ZNSt14basic_ofstreamIcSt11char_traitsIcEED1Ev
1574       0x0005EA50    _ZNSt14basic_ofstreamIcSt11char_traitsIcEED2Ev
1575       0x0005EB70    _ZNSt14basic_ofstreamIwSt11char_traitsIwEE4openEPKcSt13_Ios_Openmode
1576       0x0005EBE0    _ZNSt14basic_ofstreamIwSt11char_traitsIwEE4openERKSsSt13_Ios_Openmode
1577       0x0005EC50    _ZNSt14basic_ofstreamIwSt11char_traitsIwEE5closeEv
1578       0x0005EC90    _ZNSt14basic_ofstreamIwSt11char_traitsIwEE7is_openEv
1579       0x0005ECB0    _ZNSt14basic_ofstreamIwSt11char_traitsIwEEC1EPKcSt13_Ios_Openmode
1580       0x0005EE90    _ZNSt14basic_ofstreamIwSt11char_traitsIwEEC1ERKSsSt13_Ios_Openmode
1581       0x0005F070    _ZNSt14basic_ofstreamIwSt11char_traitsIwEEC1Ev
1582       0x0005F1F0    _ZNSt14basic_ofstreamIwSt11char_traitsIwEEC2EPKcSt13_Ios_Openmode
1583       0x0005F360    _ZNSt14basic_ofstreamIwSt11char_traitsIwEEC2ERKSsSt13_Ios_Openmode
1584       0x0005F4E0    _ZNSt14basic_ofstreamIwSt11char_traitsIwEEC2Ev
1585       0x0005F5F0    _ZNSt14basic_ofstreamIwSt11char_traitsIwEED0Ev
1586       0x0005F730    _ZNSt14basic_ofstreamIwSt11char_traitsIwEED1Ev
1587       0x0005F860    _ZNSt14basic_ofstreamIwSt11char_traitsIwEED2Ev
1588       0x0005F980    _ZNSt14codecvt_bynameIcciEC1EPKcj
1589       0x0005FA70    _ZNSt14codecvt_bynameIcciEC2EPKcj
1590       0x0005FB60    _ZNSt14codecvt_bynameIcciED0Ev
1591       0x0005FB90    _ZNSt14codecvt_bynameIcciED1Ev
1592       0x0005FBB0    _ZNSt14codecvt_bynameIcciED2Ev
1593       0x0005FBD0    _ZNSt14codecvt_bynameIwciEC1EPKcj
1594       0x0005FCC0    _ZNSt14codecvt_bynameIwciEC2EPKcj
1595       0x0005FDB0    _ZNSt14codecvt_bynameIwciED0Ev
1596       0x0005FDE0    _ZNSt14codecvt_bynameIwciED1Ev
1597       0x0005FE00    _ZNSt14codecvt_bynameIwciED2Ev
1598       0x0005FE20    _ZNSt14collate_bynameIcEC1EPKcj
1599       0x0005FF50    _ZNSt14collate_bynameIcEC2EPKcj
1600       0x00060080    _ZNSt14collate_bynameIcED0Ev
1601       0x00060130    _ZNSt14collate_bynameIcED1Ev
1602       0x000601D0    _ZNSt14collate_bynameIcED2Ev
1603       0x00060270    _ZNSt14collate_bynameIwEC1EPKcj
1604       0x000603A0    _ZNSt14collate_bynameIwEC2EPKcj
1605       0x000604D0    _ZNSt14collate_bynameIwED0Ev
1606       0x00060580    _ZNSt14collate_bynameIwED1Ev
1607       0x00060620    _ZNSt14collate_bynameIwED2Ev
1608       0x000606C0    _ZNSt14error_categoryC1Ev
1609       0x000606C0    _ZNSt14error_categoryC2Ev
1610       0x000606D0    _ZNSt14error_categoryD0Ev
1611       0x000606F0    _ZNSt14error_categoryD1Ev
1612       0x000606F0    _ZNSt14error_categoryD2Ev
1613       0x000924C4    _ZNSt14numeric_limitsIDiE10has_denormE
1614       0x000924C8    _ZNSt14numeric_limitsIDiE10is_boundedE
1615       0x000924CC    _ZNSt14numeric_limitsIDiE10is_integerE
1616       0x000924D0    _ZNSt14numeric_limitsIDiE11round_styleE
1617       0x000924D4    _ZNSt14numeric_limitsIDiE12has_infinityE
1618       0x000924D8    _ZNSt14numeric_limitsIDiE12max_digits10E
1619       0x000924DC    _ZNSt14numeric_limitsIDiE12max_exponentE
1620       0x000924E0    _ZNSt14numeric_limitsIDiE12min_exponentE
1621       0x000924E4    _ZNSt14numeric_limitsIDiE13has_quiet_NaNE
1622       0x000924E8    _ZNSt14numeric_limitsIDiE14is_specializedE
1623       0x000924EC    _ZNSt14numeric_limitsIDiE14max_exponent10E
1624       0x000924F0    _ZNSt14numeric_limitsIDiE14min_exponent10E
1625       0x000924F4    _ZNSt14numeric_limitsIDiE15has_denorm_lossE
1626       0x000924F8    _ZNSt14numeric_limitsIDiE15tinyness_beforeE
1627       0x000924FC    _ZNSt14numeric_limitsIDiE17has_signaling_NaNE
1628       0x00092500    _ZNSt14numeric_limitsIDiE5radixE
1629       0x00092504    _ZNSt14numeric_limitsIDiE5trapsE
1630       0x00092508    _ZNSt14numeric_limitsIDiE6digitsE
1631       0x0009250C    _ZNSt14numeric_limitsIDiE8digits10E
1632       0x00092510    _ZNSt14numeric_limitsIDiE8is_exactE
1633       0x00092514    _ZNSt14numeric_limitsIDiE9is_iec559E
1634       0x00092518    _ZNSt14numeric_limitsIDiE9is_moduloE
1635       0x0009251C    _ZNSt14numeric_limitsIDiE9is_signedE
1636       0x00092520    _ZNSt14numeric_limitsIDsE10has_denormE
1637       0x00092524    _ZNSt14numeric_limitsIDsE10is_boundedE
1638       0x00092528    _ZNSt14numeric_limitsIDsE10is_integerE
1639       0x0009252C    _ZNSt14numeric_limitsIDsE11round_styleE
1640       0x00092530    _ZNSt14numeric_limitsIDsE12has_infinityE
1641       0x00092534    _ZNSt14numeric_limitsIDsE12max_digits10E
1642       0x00092538    _ZNSt14numeric_limitsIDsE12max_exponentE
1643       0x0009253C    _ZNSt14numeric_limitsIDsE12min_exponentE
1644       0x00092540    _ZNSt14numeric_limitsIDsE13has_quiet_NaNE
1645       0x00092544    _ZNSt14numeric_limitsIDsE14is_specializedE
1646       0x00092548    _ZNSt14numeric_limitsIDsE14max_exponent10E
1647       0x0009254C    _ZNSt14numeric_limitsIDsE14min_exponent10E
1648       0x00092550    _ZNSt14numeric_limitsIDsE15has_denorm_lossE
1649       0x00092554    _ZNSt14numeric_limitsIDsE15tinyness_beforeE
1650       0x00092558    _ZNSt14numeric_limitsIDsE17has_signaling_NaNE
1651       0x0009255C    _ZNSt14numeric_limitsIDsE5radixE
1652       0x00092560    _ZNSt14numeric_limitsIDsE5trapsE
1653       0x00092564    _ZNSt14numeric_limitsIDsE6digitsE
1654       0x00092568    _ZNSt14numeric_limitsIDsE8digits10E
1655       0x0009256C    _ZNSt14numeric_limitsIDsE8is_exactE
1656       0x00092570    _ZNSt14numeric_limitsIDsE9is_iec559E
1657       0x00092574    _ZNSt14numeric_limitsIDsE9is_moduloE
1658       0x00092578    _ZNSt14numeric_limitsIDsE9is_signedE
1659       0x0009257C    _ZNSt14numeric_limitsIaE10has_denormE
1660       0x00092580    _ZNSt14numeric_limitsIaE10is_boundedE
1661       0x00092584    _ZNSt14numeric_limitsIaE10is_integerE
1662       0x00092588    _ZNSt14numeric_limitsIaE11round_styleE
1663       0x0009258C    _ZNSt14numeric_limitsIaE12has_infinityE
1664       0x00092590    _ZNSt14numeric_limitsIaE12max_digits10E
1665       0x00092594    _ZNSt14numeric_limitsIaE12max_exponentE
1666       0x00092598    _ZNSt14numeric_limitsIaE12min_exponentE
1667       0x0009259C    _ZNSt14numeric_limitsIaE13has_quiet_NaNE
1668       0x000925A0    _ZNSt14numeric_limitsIaE14is_specializedE
1669       0x000925A4    _ZNSt14numeric_limitsIaE14max_exponent10E
1670       0x000925A8    _ZNSt14numeric_limitsIaE14min_exponent10E
1671       0x000925AC    _ZNSt14numeric_limitsIaE15has_denorm_lossE
1672       0x000925B0    _ZNSt14numeric_limitsIaE15tinyness_beforeE
1673       0x000925B4    _ZNSt14numeric_limitsIaE17has_signaling_NaNE
1674       0x000925B8    _ZNSt14numeric_limitsIaE5radixE
1675       0x000925BC    _ZNSt14numeric_limitsIaE5trapsE
1676       0x000925C0    _ZNSt14numeric_limitsIaE6digitsE
1677       0x000925C4    _ZNSt14numeric_limitsIaE8digits10E
1678       0x000925C8    _ZNSt14numeric_limitsIaE8is_exactE
1679       0x000925CC    _ZNSt14numeric_limitsIaE9is_iec559E
1680       0x000925D0    _ZNSt14numeric_limitsIaE9is_moduloE
1681       0x000925D4    _ZNSt14numeric_limitsIaE9is_signedE
1682       0x000925D8    _ZNSt14numeric_limitsIbE10has_denormE
1683       0x000925DC    _ZNSt14numeric_limitsIbE10is_boundedE
1684       0x000925E0    _ZNSt14numeric_limitsIbE10is_integerE
1685       0x000925E4    _ZNSt14numeric_limitsIbE11round_styleE
1686       0x000925E8    _ZNSt14numeric_limitsIbE12has_infinityE
1687       0x000925EC    _ZNSt14numeric_limitsIbE12max_digits10E
1688       0x000925F0    _ZNSt14numeric_limitsIbE12max_exponentE
1689       0x000925F4    _ZNSt14numeric_limitsIbE12min_exponentE
1690       0x000925F8    _ZNSt14numeric_limitsIbE13has_quiet_NaNE
1691       0x000925FC    _ZNSt14numeric_limitsIbE14is_specializedE
1692       0x00092600    _ZNSt14numeric_limitsIbE14max_exponent10E
1693       0x00092604    _ZNSt14numeric_limitsIbE14min_exponent10E
1694       0x00092608    _ZNSt14numeric_limitsIbE15has_denorm_lossE
1695       0x0009260C    _ZNSt14numeric_limitsIbE15tinyness_beforeE
1696       0x00092610    _ZNSt14numeric_limitsIbE17has_signaling_NaNE
1697       0x00092614    _ZNSt14numeric_limitsIbE5radixE
1698       0x00092618    _ZNSt14numeric_limitsIbE5trapsE
1699       0x0009261C    _ZNSt14numeric_limitsIbE6digitsE
1700       0x00092620    _ZNSt14numeric_limitsIbE8digits10E
1701       0x00092624    _ZNSt14numeric_limitsIbE8is_exactE
1702       0x00092628    _ZNSt14numeric_limitsIbE9is_iec559E
1703       0x0009262C    _ZNSt14numeric_limitsIbE9is_moduloE
1704       0x00092630    _ZNSt14numeric_limitsIbE9is_signedE
1705       0x00092634    _ZNSt14numeric_limitsIcE10has_denormE
1706       0x00092638    _ZNSt14numeric_limitsIcE10is_boundedE
1707       0x0009263C    _ZNSt14numeric_limitsIcE10is_integerE
1708       0x00092640    _ZNSt14numeric_limitsIcE11round_styleE
1709       0x00092644    _ZNSt14numeric_limitsIcE12has_infinityE
1710       0x00092648    _ZNSt14numeric_limitsIcE12max_digits10E
1711       0x0009264C    _ZNSt14numeric_limitsIcE12max_exponentE
1712       0x00092650    _ZNSt14numeric_limitsIcE12min_exponentE
1713       0x00092654    _ZNSt14numeric_limitsIcE13has_quiet_NaNE
1714       0x00092658    _ZNSt14numeric_limitsIcE14is_specializedE
1715       0x0009265C    _ZNSt14numeric_limitsIcE14max_exponent10E
1716       0x00092660    _ZNSt14numeric_limitsIcE14min_exponent10E
1717       0x00092664    _ZNSt14numeric_limitsIcE15has_denorm_lossE
1718       0x00092668    _ZNSt14numeric_limitsIcE15tinyness_beforeE
1719       0x0009266C    _ZNSt14numeric_limitsIcE17has_signaling_NaNE
1720       0x00092670    _ZNSt14numeric_limitsIcE5radixE
1721       0x00092674    _ZNSt14numeric_limitsIcE5trapsE
1722       0x00092678    _ZNSt14numeric_limitsIcE6digitsE
1723       0x0009267C    _ZNSt14numeric_limitsIcE8digits10E
1724       0x00092680    _ZNSt14numeric_limitsIcE8is_exactE
1725       0x00092684    _ZNSt14numeric_limitsIcE9is_iec559E
1726       0x00092688    _ZNSt14numeric_limitsIcE9is_moduloE
1727       0x0009268C    _ZNSt14numeric_limitsIcE9is_signedE
1728       0x00092690    _ZNSt14numeric_limitsIdE10has_denormE
1729       0x00092694    _ZNSt14numeric_limitsIdE10is_boundedE
1730       0x00092698    _ZNSt14numeric_limitsIdE10is_integerE
1731       0x0009269C    _ZNSt14numeric_limitsIdE11round_styleE
1732       0x000926A0    _ZNSt14numeric_limitsIdE12has_infinityE
1733       0x000926A4    _ZNSt14numeric_limitsIdE12max_digits10E
1734       0x000926A8    _ZNSt14numeric_limitsIdE12max_exponentE
1735       0x000926AC    _ZNSt14numeric_limitsIdE12min_exponentE
1736       0x000926B0    _ZNSt14numeric_limitsIdE13has_quiet_NaNE
1737       0x000926B4    _ZNSt14numeric_limitsIdE14is_specializedE
1738       0x000926B8    _ZNSt14numeric_limitsIdE14max_exponent10E
1739       0x000926BC    _ZNSt14numeric_limitsIdE14min_exponent10E
1740       0x000926C0    _ZNSt14numeric_limitsIdE15has_denorm_lossE
1741       0x000926C4    _ZNSt14numeric_limitsIdE15tinyness_beforeE
1742       0x000926C8    _ZNSt14numeric_limitsIdE17has_signaling_NaNE
1743       0x000926CC    _ZNSt14numeric_limitsIdE5radixE
1744       0x000926D0    _ZNSt14numeric_limitsIdE5trapsE
1745       0x000926D4    _ZNSt14numeric_limitsIdE6digitsE
1746       0x000926D8    _ZNSt14numeric_limitsIdE8digits10E
1747       0x000926DC    _ZNSt14numeric_limitsIdE8is_exactE
1748       0x000926E0    _ZNSt14numeric_limitsIdE9is_iec559E
1749       0x000926E4    _ZNSt14numeric_limitsIdE9is_moduloE
1750       0x000926E8    _ZNSt14numeric_limitsIdE9is_signedE
1751       0x000926EC    _ZNSt14numeric_limitsIeE10has_denormE
1752       0x000926F0    _ZNSt14numeric_limitsIeE10is_boundedE
1753       0x000926F4    _ZNSt14numeric_limitsIeE10is_integerE
1754       0x000926F8    _ZNSt14numeric_limitsIeE11round_styleE
1755       0x000926FC    _ZNSt14numeric_limitsIeE12has_infinityE
1756       0x00092700    _ZNSt14numeric_limitsIeE12max_digits10E
1757       0x00092704    _ZNSt14numeric_limitsIeE12max_exponentE
1758       0x00092708    _ZNSt14numeric_limitsIeE12min_exponentE
1759       0x0009270C    _ZNSt14numeric_limitsIeE13has_quiet_NaNE
1760       0x00092710    _ZNSt14numeric_limitsIeE14is_specializedE
1761       0x00092714    _ZNSt14numeric_limitsIeE14max_exponent10E
1762       0x00092718    _ZNSt14numeric_limitsIeE14min_exponent10E
1763       0x0009271C    _ZNSt14numeric_limitsIeE15has_denorm_lossE
1764       0x00092720    _ZNSt14numeric_limitsIeE15tinyness_beforeE
1765       0x00092724    _ZNSt14numeric_limitsIeE17has_signaling_NaNE
1766       0x00092728    _ZNSt14numeric_limitsIeE5radixE
1767       0x0009272C    _ZNSt14numeric_limitsIeE5trapsE
1768       0x00092730    _ZNSt14numeric_limitsIeE6digitsE
1769       0x00092734    _ZNSt14numeric_limitsIeE8digits10E
1770       0x00092738    _ZNSt14numeric_limitsIeE8is_exactE
1771       0x0009273C    _ZNSt14numeric_limitsIeE9is_iec559E
1772       0x00092740    _ZNSt14numeric_limitsIeE9is_moduloE
1773       0x00092744    _ZNSt14numeric_limitsIeE9is_signedE
1774       0x00092748    _ZNSt14numeric_limitsIfE10has_denormE
1775       0x0009274C    _ZNSt14numeric_limitsIfE10is_boundedE
1776       0x00092750    _ZNSt14numeric_limitsIfE10is_integerE
1777       0x00092754    _ZNSt14numeric_limitsIfE11round_styleE
1778       0x00092758    _ZNSt14numeric_limitsIfE12has_infinityE
1779       0x0009275C    _ZNSt14numeric_limitsIfE12max_digits10E
1780       0x00092760    _ZNSt14numeric_limitsIfE12max_exponentE
1781       0x00092764    _ZNSt14numeric_limitsIfE12min_exponentE
1782       0x00092768    _ZNSt14numeric_limitsIfE13has_quiet_NaNE
1783       0x0009276C    _ZNSt14numeric_limitsIfE14is_specializedE
1784       0x00092770    _ZNSt14numeric_limitsIfE14max_exponent10E
1785       0x00092774    _ZNSt14numeric_limitsIfE14min_exponent10E
1786       0x00092778    _ZNSt14numeric_limitsIfE15has_denorm_lossE
1787       0x0009277C    _ZNSt14numeric_limitsIfE15tinyness_beforeE
1788       0x00092780    _ZNSt14numeric_limitsIfE17has_signaling_NaNE
1789       0x00092784    _ZNSt14numeric_limitsIfE5radixE
1790       0x00092788    _ZNSt14numeric_limitsIfE5trapsE
1791       0x0009278C    _ZNSt14numeric_limitsIfE6digitsE
1792       0x00092790    _ZNSt14numeric_limitsIfE8digits10E
1793       0x00092794    _ZNSt14numeric_limitsIfE8is_exactE
1794       0x00092798    _ZNSt14numeric_limitsIfE9is_iec559E
1795       0x0009279C    _ZNSt14numeric_limitsIfE9is_moduloE
1796       0x000927A0    _ZNSt14numeric_limitsIfE9is_signedE
1797       0x000927A4    _ZNSt14numeric_limitsIhE10has_denormE
1798       0x000927A8    _ZNSt14numeric_limitsIhE10is_boundedE
1799       0x000927AC    _ZNSt14numeric_limitsIhE10is_integerE
1800       0x000927B0    _ZNSt14numeric_limitsIhE11round_styleE
1801       0x000927B4    _ZNSt14numeric_limitsIhE12has_infinityE
1802       0x000927B8    _ZNSt14numeric_limitsIhE12max_digits10E
1803       0x000927BC    _ZNSt14numeric_limitsIhE12max_exponentE
1804       0x000927C0    _ZNSt14numeric_limitsIhE12min_exponentE
1805       0x000927C4    _ZNSt14numeric_limitsIhE13has_quiet_NaNE
1806       0x000927C8    _ZNSt14numeric_limitsIhE14is_specializedE
1807       0x000927CC    _ZNSt14numeric_limitsIhE14max_exponent10E
1808       0x000927D0    _ZNSt14numeric_limitsIhE14min_exponent10E
1809       0x000927D4    _ZNSt14numeric_limitsIhE15has_denorm_lossE
1810       0x000927D8    _ZNSt14numeric_limitsIhE15tinyness_beforeE
1811       0x000927DC    _ZNSt14numeric_limitsIhE17has_signaling_NaNE
1812       0x000927E0    _ZNSt14numeric_limitsIhE5radixE
1813       0x000927E4    _ZNSt14numeric_limitsIhE5trapsE
1814       0x000927E8    _ZNSt14numeric_limitsIhE6digitsE
1815       0x000927EC    _ZNSt14numeric_limitsIhE8digits10E
1816       0x000927F0    _ZNSt14numeric_limitsIhE8is_exactE
1817       0x000927F4    _ZNSt14numeric_limitsIhE9is_iec559E
1818       0x000927F8    _ZNSt14numeric_limitsIhE9is_moduloE
1819       0x000927FC    _ZNSt14numeric_limitsIhE9is_signedE
1820       0x00092800    _ZNSt14numeric_limitsIiE10has_denormE
1821       0x00092804    _ZNSt14numeric_limitsIiE10is_boundedE
1822       0x00092808    _ZNSt14numeric_limitsIiE10is_integerE
1823       0x0009280C    _ZNSt14numeric_limitsIiE11round_styleE
1824       0x00092810    _ZNSt14numeric_limitsIiE12has_infinityE
1825       0x00092814    _ZNSt14numeric_limitsIiE12max_digits10E
1826       0x00092818    _ZNSt14numeric_limitsIiE12max_exponentE
1827       0x0009281C    _ZNSt14numeric_limitsIiE12min_exponentE
1828       0x00092820    _ZNSt14numeric_limitsIiE13has_quiet_NaNE
1829       0x00092824    _ZNSt14numeric_limitsIiE14is_specializedE
1830       0x00092828    _ZNSt14numeric_limitsIiE14max_exponent10E
1831       0x0009282C    _ZNSt14numeric_limitsIiE14min_exponent10E
1832       0x00092830    _ZNSt14numeric_limitsIiE15has_denorm_lossE
1833       0x00092834    _ZNSt14numeric_limitsIiE15tinyness_beforeE
1834       0x00092838    _ZNSt14numeric_limitsIiE17has_signaling_NaNE
1835       0x0009283C    _ZNSt14numeric_limitsIiE5radixE
1836       0x00092840    _ZNSt14numeric_limitsIiE5trapsE
1837       0x00092844    _ZNSt14numeric_limitsIiE6digitsE
1838       0x00092848    _ZNSt14numeric_limitsIiE8digits10E
1839       0x0009284C    _ZNSt14numeric_limitsIiE8is_exactE
1840       0x00092850    _ZNSt14numeric_limitsIiE9is_iec559E
1841       0x00092854    _ZNSt14numeric_limitsIiE9is_moduloE
1842       0x00092858    _ZNSt14numeric_limitsIiE9is_signedE
1843       0x0009285C    _ZNSt14numeric_limitsIjE10has_denormE
1844       0x00092860    _ZNSt14numeric_limitsIjE10is_boundedE
1845       0x00092864    _ZNSt14numeric_limitsIjE10is_integerE
1846       0x00092868    _ZNSt14numeric_limitsIjE11round_styleE
1847       0x0009286C    _ZNSt14numeric_limitsIjE12has_infinityE
1848       0x00092870    _ZNSt14numeric_limitsIjE12max_digits10E
1849       0x00092874    _ZNSt14numeric_limitsIjE12max_exponentE
1850       0x00092878    _ZNSt14numeric_limitsIjE12min_exponentE
1851       0x0009287C    _ZNSt14numeric_limitsIjE13has_quiet_NaNE
1852       0x00092880    _ZNSt14numeric_limitsIjE14is_specializedE
1853       0x00092884    _ZNSt14numeric_limitsIjE14max_exponent10E
1854       0x00092888    _ZNSt14numeric_limitsIjE14min_exponent10E
1855       0x0009288C    _ZNSt14numeric_limitsIjE15has_denorm_lossE
1856       0x00092890    _ZNSt14numeric_limitsIjE15tinyness_beforeE
1857       0x00092894    _ZNSt14numeric_limitsIjE17has_signaling_NaNE
1858       0x00092898    _ZNSt14numeric_limitsIjE5radixE
1859       0x0009289C    _ZNSt14numeric_limitsIjE5trapsE
1860       0x000928A0    _ZNSt14numeric_limitsIjE6digitsE
1861       0x000928A4    _ZNSt14numeric_limitsIjE8digits10E
1862       0x000928A8    _ZNSt14numeric_limitsIjE8is_exactE
1863       0x000928AC    _ZNSt14numeric_limitsIjE9is_iec559E
1864       0x000928B0    _ZNSt14numeric_limitsIjE9is_moduloE
1865       0x000928B4    _ZNSt14numeric_limitsIjE9is_signedE
1866       0x000928B8    _ZNSt14numeric_limitsIlE10has_denormE
1867       0x000928BC    _ZNSt14numeric_limitsIlE10is_boundedE
1868       0x000928C0    _ZNSt14numeric_limitsIlE10is_integerE
1869       0x000928C4    _ZNSt14numeric_limitsIlE11round_styleE
1870       0x000928C8    _ZNSt14numeric_limitsIlE12has_infinityE
1871       0x000928CC    _ZNSt14numeric_limitsIlE12max_digits10E
1872       0x000928D0    _ZNSt14numeric_limitsIlE12max_exponentE
1873       0x000928D4    _ZNSt14numeric_limitsIlE12min_exponentE
1874       0x000928D8    _ZNSt14numeric_limitsIlE13has_quiet_NaNE
1875       0x000928DC    _ZNSt14numeric_limitsIlE14is_specializedE
1876       0x000928E0    _ZNSt14numeric_limitsIlE14max_exponent10E
1877       0x000928E4    _ZNSt14numeric_limitsIlE14min_exponent10E
1878       0x000928E8    _ZNSt14numeric_limitsIlE15has_denorm_lossE
1879       0x000928EC    _ZNSt14numeric_limitsIlE15tinyness_beforeE
1880       0x000928F0    _ZNSt14numeric_limitsIlE17has_signaling_NaNE
1881       0x000928F4    _ZNSt14numeric_limitsIlE5radixE
1882       0x000928F8    _ZNSt14numeric_limitsIlE5trapsE
1883       0x000928FC    _ZNSt14numeric_limitsIlE6digitsE
1884       0x00092900    _ZNSt14numeric_limitsIlE8digits10E
1885       0x00092904    _ZNSt14numeric_limitsIlE8is_exactE
1886       0x00092908    _ZNSt14numeric_limitsIlE9is_iec559E
1887       0x0009290C    _ZNSt14numeric_limitsIlE9is_moduloE
1888       0x00092910    _ZNSt14numeric_limitsIlE9is_signedE
1889       0x00092914    _ZNSt14numeric_limitsImE10has_denormE
1890       0x00092918    _ZNSt14numeric_limitsImE10is_boundedE
1891       0x0009291C    _ZNSt14numeric_limitsImE10is_integerE
1892       0x00092920    _ZNSt14numeric_limitsImE11round_styleE
1893       0x00092924    _ZNSt14numeric_limitsImE12has_infinityE
1894       0x00092928    _ZNSt14numeric_limitsImE12max_digits10E
1895       0x0009292C    _ZNSt14numeric_limitsImE12max_exponentE
1896       0x00092930    _ZNSt14numeric_limitsImE12min_exponentE
1897       0x00092934    _ZNSt14numeric_limitsImE13has_quiet_NaNE
1898       0x00092938    _ZNSt14numeric_limitsImE14is_specializedE
1899       0x0009293C    _ZNSt14numeric_limitsImE14max_exponent10E
1900       0x00092940    _ZNSt14numeric_limitsImE14min_exponent10E
1901       0x00092944    _ZNSt14numeric_limitsImE15has_denorm_lossE
1902       0x00092948    _ZNSt14numeric_limitsImE15tinyness_beforeE
1903       0x0009294C    _ZNSt14numeric_limitsImE17has_signaling_NaNE
1904       0x00092950    _ZNSt14numeric_limitsImE5radixE
1905       0x00092954    _ZNSt14numeric_limitsImE5trapsE
1906       0x00092958    _ZNSt14numeric_limitsImE6digitsE
1907       0x0009295C    _ZNSt14numeric_limitsImE8digits10E
1908       0x00092960    _ZNSt14numeric_limitsImE8is_exactE
1909       0x00092964    _ZNSt14numeric_limitsImE9is_iec559E
1910       0x00092968    _ZNSt14numeric_limitsImE9is_moduloE
1911       0x0009296C    _ZNSt14numeric_limitsImE9is_signedE
1912       0x00092970    _ZNSt14numeric_limitsIsE10has_denormE
1913       0x00092974    _ZNSt14numeric_limitsIsE10is_boundedE
1914       0x00092978    _ZNSt14numeric_limitsIsE10is_integerE
1915       0x0009297C    _ZNSt14numeric_limitsIsE11round_styleE
1916       0x00092980    _ZNSt14numeric_limitsIsE12has_infinityE
1917       0x00092984    _ZNSt14numeric_limitsIsE12max_digits10E
1918       0x00092988    _ZNSt14numeric_limitsIsE12max_exponentE
1919       0x0009298C    _ZNSt14numeric_limitsIsE12min_exponentE
1920       0x00092990    _ZNSt14numeric_limitsIsE13has_quiet_NaNE
1921       0x00092994    _ZNSt14numeric_limitsIsE14is_specializedE
1922       0x00092998    _ZNSt14numeric_limitsIsE14max_exponent10E
1923       0x0009299C    _ZNSt14numeric_limitsIsE14min_exponent10E
1924       0x000929A0    _ZNSt14numeric_limitsIsE15has_denorm_lossE
1925       0x000929A4    _ZNSt14numeric_limitsIsE15tinyness_beforeE
1926       0x000929A8    _ZNSt14numeric_limitsIsE17has_signaling_NaNE
1927       0x000929AC    _ZNSt14numeric_limitsIsE5radixE
1928       0x000929B0    _ZNSt14numeric_limitsIsE5trapsE
1929       0x000929B4    _ZNSt14numeric_limitsIsE6digitsE
1930       0x000929B8    _ZNSt14numeric_limitsIsE8digits10E
1931       0x000929BC    _ZNSt14numeric_limitsIsE8is_exactE
1932       0x000929C0    _ZNSt14numeric_limitsIsE9is_iec559E
1933       0x000929C4    _ZNSt14numeric_limitsIsE9is_moduloE
1934       0x000929C8    _ZNSt14numeric_limitsIsE9is_signedE
1935       0x000929CC    _ZNSt14numeric_limitsItE10has_denormE
1936       0x000929D0    _ZNSt14numeric_limitsItE10is_boundedE
1937       0x000929D4    _ZNSt14numeric_limitsItE10is_integerE
1938       0x000929D8    _ZNSt14numeric_limitsItE11round_styleE
1939       0x000929DC    _ZNSt14numeric_limitsItE12has_infinityE
1940       0x000929E0    _ZNSt14numeric_limitsItE12max_digits10E
1941       0x000929E4    _ZNSt14numeric_limitsItE12max_exponentE
1942       0x000929E8    _ZNSt14numeric_limitsItE12min_exponentE
1943       0x000929EC    _ZNSt14numeric_limitsItE13has_quiet_NaNE
1944       0x000929F0    _ZNSt14numeric_limitsItE14is_specializedE
1945       0x000929F4    _ZNSt14numeric_limitsItE14max_exponent10E
1946       0x000929F8    _ZNSt14numeric_limitsItE14min_exponent10E
1947       0x000929FC    _ZNSt14numeric_limitsItE15has_denorm_lossE
1948       0x00092A00    _ZNSt14numeric_limitsItE15tinyness_beforeE
1949       0x00092A04    _ZNSt14numeric_limitsItE17has_signaling_NaNE
1950       0x00092A08    _ZNSt14numeric_limitsItE5radixE
1951       0x00092A0C    _ZNSt14numeric_limitsItE5trapsE
1952       0x00092A10    _ZNSt14numeric_limitsItE6digitsE
1953       0x00092A14    _ZNSt14numeric_limitsItE8digits10E
1954       0x00092A18    _ZNSt14numeric_limitsItE8is_exactE
1955       0x00092A1C    _ZNSt14numeric_limitsItE9is_iec559E
1956       0x00092A20    _ZNSt14numeric_limitsItE9is_moduloE
1957       0x00092A24    _ZNSt14numeric_limitsItE9is_signedE
1958       0x00092A28    _ZNSt14numeric_limitsIwE10has_denormE
1959       0x00092A2C    _ZNSt14numeric_limitsIwE10is_boundedE
1960       0x00092A30    _ZNSt14numeric_limitsIwE10is_integerE
1961       0x00092A34    _ZNSt14numeric_limitsIwE11round_styleE
1962       0x00092A38    _ZNSt14numeric_limitsIwE12has_infinityE
1963       0x00092A3C    _ZNSt14numeric_limitsIwE12max_digits10E
1964       0x00092A40    _ZNSt14numeric_limitsIwE12max_exponentE
1965       0x00092A44    _ZNSt14numeric_limitsIwE12min_exponentE
1966       0x00092A48    _ZNSt14numeric_limitsIwE13has_quiet_NaNE
1967       0x00092A4C    _ZNSt14numeric_limitsIwE14is_specializedE
1968       0x00092A50    _ZNSt14numeric_limitsIwE14max_exponent10E
1969       0x00092A54    _ZNSt14numeric_limitsIwE14min_exponent10E
1970       0x00092A58    _ZNSt14numeric_limitsIwE15has_denorm_lossE
1971       0x00092A5C    _ZNSt14numeric_limitsIwE15tinyness_beforeE
1972       0x00092A60    _ZNSt14numeric_limitsIwE17has_signaling_NaNE
1973       0x00092A64    _ZNSt14numeric_limitsIwE5radixE
1974       0x00092A68    _ZNSt14numeric_limitsIwE5trapsE
1975       0x00092A6C    _ZNSt14numeric_limitsIwE6digitsE
1976       0x00092A70    _ZNSt14numeric_limitsIwE8digits10E
1977       0x00092A74    _ZNSt14numeric_limitsIwE8is_exactE
1978       0x00092A78    _ZNSt14numeric_limitsIwE9is_iec559E
1979       0x00092A7C    _ZNSt14numeric_limitsIwE9is_moduloE
1980       0x00092A80    _ZNSt14numeric_limitsIwE9is_signedE
1981       0x00092A84    _ZNSt14numeric_limitsIxE10has_denormE
1982       0x00092A88    _ZNSt14numeric_limitsIxE10is_boundedE
1983       0x00092A8C    _ZNSt14numeric_limitsIxE10is_integerE
1984       0x00092A90    _ZNSt14numeric_limitsIxE11round_styleE
1985       0x00092A94    _ZNSt14numeric_limitsIxE12has_infinityE
1986       0x00092A98    _ZNSt14numeric_limitsIxE12max_digits10E
1987       0x00092A9C    _ZNSt14numeric_limitsIxE12max_exponentE
1988       0x00092AA0    _ZNSt14numeric_limitsIxE12min_exponentE
1989       0x00092AA4    _ZNSt14numeric_limitsIxE13has_quiet_NaNE
1990       0x00092AA8    _ZNSt14numeric_limitsIxE14is_specializedE
1991       0x00092AAC    _ZNSt14numeric_limitsIxE14max_exponent10E
1992       0x00092AB0    _ZNSt14numeric_limitsIxE14min_exponent10E
1993       0x00092AB4    _ZNSt14numeric_limitsIxE15has_denorm_lossE
1994       0x00092AB8    _ZNSt14numeric_limitsIxE15tinyness_beforeE
1995       0x00092ABC    _ZNSt14numeric_limitsIxE17has_signaling_NaNE
1996       0x00092AC0    _ZNSt14numeric_limitsIxE5radixE
1997       0x00092AC4    _ZNSt14numeric_limitsIxE5trapsE
1998       0x00092AC8    _ZNSt14numeric_limitsIxE6digitsE
1999       0x00092ACC    _ZNSt14numeric_limitsIxE8digits10E
2000       0x00092AD0    _ZNSt14numeric_limitsIxE8is_exactE
2001       0x00092AD4    _ZNSt14numeric_limitsIxE9is_iec559E
2002       0x00092AD8    _ZNSt14numeric_limitsIxE9is_moduloE
2003       0x00092ADC    _ZNSt14numeric_limitsIxE9is_signedE
2004       0x00092AE0    _ZNSt14numeric_limitsIyE10has_denormE
2005       0x00092AE4    _ZNSt14numeric_limitsIyE10is_boundedE
2006       0x00092AE8    _ZNSt14numeric_limitsIyE10is_integerE
2007       0x00092AEC    _ZNSt14numeric_limitsIyE11round_styleE
2008       0x00092AF0    _ZNSt14numeric_limitsIyE12has_infinityE
2009       0x00092AF4    _ZNSt14numeric_limitsIyE12max_digits10E
2010       0x00092AF8    _ZNSt14numeric_limitsIyE12max_exponentE
2011       0x00092AFC    _ZNSt14numeric_limitsIyE12min_exponentE
2012       0x00092B00    _ZNSt14numeric_limitsIyE13has_quiet_NaNE
2013       0x00092B04    _ZNSt14numeric_limitsIyE14is_specializedE
2014       0x00092B08    _ZNSt14numeric_limitsIyE14max_exponent10E
2015       0x00092B0C    _ZNSt14numeric_limitsIyE14min_exponent10E
2016       0x00092B10    _ZNSt14numeric_limitsIyE15has_denorm_lossE
2017       0x00092B14    _ZNSt14numeric_limitsIyE15tinyness_beforeE
2018       0x00092B18    _ZNSt14numeric_limitsIyE17has_signaling_NaNE
2019       0x00092B1C    _ZNSt14numeric_limitsIyE5radixE
2020       0x00092B20    _ZNSt14numeric_limitsIyE5trapsE
2021       0x00092B24    _ZNSt14numeric_limitsIyE6digitsE
2022       0x00092B28    _ZNSt14numeric_limitsIyE8digits10E
2023       0x00092B2C    _ZNSt14numeric_limitsIyE8is_exactE
2024       0x00092B30    _ZNSt14numeric_limitsIyE9is_iec559E
2025       0x00092B34    _ZNSt14numeric_limitsIyE9is_moduloE
2026       0x00092B38    _ZNSt14numeric_limitsIyE9is_signedE
2027       0x00060700    _ZNSt14overflow_errorC1ERKSs
2028       0x00060700    _ZNSt14overflow_errorC2ERKSs
2029       0x00060730    _ZNSt14overflow_errorD0Ev
2030       0x00060760    _ZNSt14overflow_errorD1Ev
2031       0x00060760    _ZNSt14overflow_errorD2Ev
2032       0x00060780    _ZNSt15_List_node_base10_M_reverseEv
2033       0x000607B0    _ZNSt15_List_node_base11_M_transferEPS_S0_
2034       0x000607F0    _ZNSt15_List_node_base4hookEPS_
2035       0x00060810    _ZNSt15_List_node_base4swapERS_S0_
2036       0x00060890    _ZNSt15_List_node_base6unhookEv
2037       0x000608B0    _ZNSt15_List_node_base7_M_hookEPS_
2038       0x000608D0    _ZNSt15_List_node_base7reverseEv
2039       0x00060900    _ZNSt15_List_node_base8transferEPS_S0_
2040       0x00060940    _ZNSt15_List_node_base9_M_unhookEv
2041       0x00060A20    _ZNSt15__exception_ptr13exception_ptr4swapERS0_
2042       0x00060A60    _ZNSt15__exception_ptr13exception_ptrC1EMS0_FvvE
2043       0x00060A90    _ZNSt15__exception_ptr13exception_ptrC1ERKS0_
2044       0x00060AB0    _ZNSt15__exception_ptr13exception_ptrC1Ev
2045       0x00060A60    _ZNSt15__exception_ptr13exception_ptrC2EMS0_FvvE
2046       0x00060A90    _ZNSt15__exception_ptr13exception_ptrC2ERKS0_
2047       0x00060AB0    _ZNSt15__exception_ptr13exception_ptrC2Ev
2048       0x00060AC0    _ZNSt15__exception_ptr13exception_ptrD1Ev
2049       0x00060AC0    _ZNSt15__exception_ptr13exception_ptrD2Ev
2050       0x00060AE0    _ZNSt15__exception_ptr13exception_ptraSERKS0_
2051       0x00060B20    _ZNSt15__exception_ptreqERKNS_13exception_ptrES2_
2052       0x00060B40    _ZNSt15__exception_ptrneERKNS_13exception_ptrES2_
2053       0x00060B60    _ZNSt15basic_streambufIcSt11char_traitsIcEE10pubseekoffExSt12_Ios_SeekdirSt13_Ios_Openmode
2054       0x00060BC0    _ZNSt15basic_streambufIcSt11char_traitsIcEE10pubseekposESt4fposIiESt13_Ios_Openmode
2055       0x00060C30    _ZNSt15basic_streambufIcSt11char_traitsIcEE12__safe_gbumpEi
2056       0x00060C40    _ZNSt15basic_streambufIcSt11char_traitsIcEE12__safe_pbumpEi
2057       0x00060C50    _ZNSt15basic_streambufIcSt11char_traitsIcEE4setgEPcS3_S3_
2058       0x00060C70    _ZNSt15basic_streambufIcSt11char_traitsIcEE4setpEPcS3_
2059       0x00060C90    _ZNSt15basic_streambufIcSt11char_traitsIcEE4syncEv
2060       0x00060CA0    _ZNSt15basic_streambufIcSt11char_traitsIcEE5gbumpEi
2061       0x00060CB0    _ZNSt15basic_streambufIcSt11char_traitsIcEE5imbueERKSt6locale
2062       0x00060CC0    _ZNSt15basic_streambufIcSt11char_traitsIcEE5pbumpEi
2063       0x00060CD0    _ZNSt15basic_streambufIcSt11char_traitsIcEE5sgetcEv
2064       0x00060D00    _ZNSt15basic_streambufIcSt11char_traitsIcEE5sgetnEPci
2065       0x00060D30    _ZNSt15basic_streambufIcSt11char_traitsIcEE5sputcEc
2066       0x00060D70    _ZNSt15basic_streambufIcSt11char_traitsIcEE5sputnEPKci
2067       0x00060DA0    _ZNSt15basic_streambufIcSt11char_traitsIcEE5uflowEv
2068       0x00060DE0    _ZNSt15basic_streambufIcSt11char_traitsIcEE6sbumpcEv
2069       0x00060E10    _ZNSt15basic_streambufIcSt11char_traitsIcEE6setbufEPci
2070       0x00060E20    _ZNSt15basic_streambufIcSt11char_traitsIcEE6snextcEv
2071       0x00060E70    _ZNSt15basic_streambufIcSt11char_traitsIcEE6stosscEv
2072       0x00060EA0    _ZNSt15basic_streambufIcSt11char_traitsIcEE6xsgetnEPci
2073       0x00060F20    _ZNSt15basic_streambufIcSt11char_traitsIcEE6xsputnEPKci
2074       0x00060FA0    _ZNSt15basic_streambufIcSt11char_traitsIcEE7pubsyncEv
2075       0x00060FC0    _ZNSt15basic_streambufIcSt11char_traitsIcEE7seekoffExSt12_Ios_SeekdirSt13_Ios_Openmode
2076       0x00060FE0    _ZNSt15basic_streambufIcSt11char_traitsIcEE7seekposESt4fposIiESt13_Ios_Openmode
2077       0x00061010    _ZNSt15basic_streambufIcSt11char_traitsIcEE7sungetcEv
2078       0x00061040    _ZNSt15basic_streambufIcSt11char_traitsIcEE8in_availEv
2079       0x00061070    _ZNSt15basic_streambufIcSt11char_traitsIcEE8overflowEi
2080       0x00061080    _ZNSt15basic_streambufIcSt11char_traitsIcEE8pubimbueERKSt6locale
2081       0x00061130    _ZNSt15basic_streambufIcSt11char_traitsIcEE9pbackfailEi
2082       0x00061140    _ZNSt15basic_streambufIcSt11char_traitsIcEE9pubsetbufEPci
2083       0x00061170    _ZNSt15basic_streambufIcSt11char_traitsIcEE9showmanycEv
2084       0x00061180    _ZNSt15basic_streambufIcSt11char_traitsIcEE9sputbackcEc
2085       0x000611C0    _ZNSt15basic_streambufIcSt11char_traitsIcEE9underflowEv
2086       0x000611D0    _ZNSt15basic_streambufIcSt11char_traitsIcEEC1ERKS2_
2087       0x00061220    _ZNSt15basic_streambufIcSt11char_traitsIcEEC1Ev
2088       0x00061270    _ZNSt15basic_streambufIcSt11char_traitsIcEEC2ERKS2_
2089       0x000612C0    _ZNSt15basic_streambufIcSt11char_traitsIcEEC2Ev
2090       0x00061310    _ZNSt15basic_streambufIcSt11char_traitsIcEED0Ev
2091       0x00061340    _ZNSt15basic_streambufIcSt11char_traitsIcEED1Ev
2092       0x00061360    _ZNSt15basic_streambufIcSt11char_traitsIcEED2Ev
2093       0x00061380    _ZNSt15basic_streambufIcSt11char_traitsIcEEaSERKS2_
2094       0x00061390    _ZNSt15basic_streambufIwSt11char_traitsIwEE10pubseekoffExSt12_Ios_SeekdirSt13_Ios_Openmode
2095       0x000613F0    _ZNSt15basic_streambufIwSt11char_traitsIwEE10pubseekposESt4fposIiESt13_Ios_Openmode
2096       0x00061460    _ZNSt15basic_streambufIwSt11char_traitsIwEE12__safe_gbumpEi
2097       0x00061470    _ZNSt15basic_streambufIwSt11char_traitsIwEE12__safe_pbumpEi
2098       0x00061480    _ZNSt15basic_streambufIwSt11char_traitsIwEE4setgEPwS3_S3_
2099       0x000614A0    _ZNSt15basic_streambufIwSt11char_traitsIwEE4setpEPwS3_
2100       0x000614C0    _ZNSt15basic_streambufIwSt11char_traitsIwEE4syncEv
2101       0x000614D0    _ZNSt15basic_streambufIwSt11char_traitsIwEE5gbumpEi
2102       0x000614E0    _ZNSt15basic_streambufIwSt11char_traitsIwEE5imbueERKSt6locale
2103       0x000614F0    _ZNSt15basic_streambufIwSt11char_traitsIwEE5pbumpEi
2104       0x00061500    _ZNSt15basic_streambufIwSt11char_traitsIwEE5sgetcEv
2105       0x00061530    _ZNSt15basic_streambufIwSt11char_traitsIwEE5sgetnEPwi
2106       0x00061560    _ZNSt15basic_streambufIwSt11char_traitsIwEE5sputcEw
2107       0x000615A0    _ZNSt15basic_streambufIwSt11char_traitsIwEE5sputnEPKwi
2108       0x000615D0    _ZNSt15basic_streambufIwSt11char_traitsIwEE5uflowEv
2109       0x00061610    _ZNSt15basic_streambufIwSt11char_traitsIwEE6sbumpcEv
2110       0x00061640    _ZNSt15basic_streambufIwSt11char_traitsIwEE6setbufEPwi
2111       0x00061650    _ZNSt15basic_streambufIwSt11char_traitsIwEE6snextcEv
2112       0x000616A0    _ZNSt15basic_streambufIwSt11char_traitsIwEE6stosscEv
2113       0x000616D0    _ZNSt15basic_streambufIwSt11char_traitsIwEE6xsgetnEPwi
2114       0x00061760    _ZNSt15basic_streambufIwSt11char_traitsIwEE6xsputnEPKwi
2115       0x000617F0    _ZNSt15basic_streambufIwSt11char_traitsIwEE7pubsyncEv
2116       0x00061810    _ZNSt15basic_streambufIwSt11char_traitsIwEE7seekoffExSt12_Ios_SeekdirSt13_Ios_Openmode
2117       0x00061830    _ZNSt15basic_streambufIwSt11char_traitsIwEE7seekposESt4fposIiESt13_Ios_Openmode
2118       0x00061860    _ZNSt15basic_streambufIwSt11char_traitsIwEE7sungetcEv
2119       0x00061890    _ZNSt15basic_streambufIwSt11char_traitsIwEE8in_availEv
2120       0x000618C0    _ZNSt15basic_streambufIwSt11char_traitsIwEE8overflowEt
2121       0x000618D0    _ZNSt15basic_streambufIwSt11char_traitsIwEE8pubimbueERKSt6locale
2122       0x00061980    _ZNSt15basic_streambufIwSt11char_traitsIwEE9pbackfailEt
2123       0x00061990    _ZNSt15basic_streambufIwSt11char_traitsIwEE9pubsetbufEPwi
2124       0x000619C0    _ZNSt15basic_streambufIwSt11char_traitsIwEE9showmanycEv
2125       0x000619D0    _ZNSt15basic_streambufIwSt11char_traitsIwEE9sputbackcEw
2126       0x00061A20    _ZNSt15basic_streambufIwSt11char_traitsIwEE9underflowEv
2127       0x00061A30    _ZNSt15basic_streambufIwSt11char_traitsIwEEC1ERKS2_
2128       0x00061A80    _ZNSt15basic_streambufIwSt11char_traitsIwEEC1Ev
2129       0x00061AD0    _ZNSt15basic_streambufIwSt11char_traitsIwEEC2ERKS2_
2130       0x00061B20    _ZNSt15basic_streambufIwSt11char_traitsIwEEC2Ev
2131       0x00061B70    _ZNSt15basic_streambufIwSt11char_traitsIwEED0Ev
2132       0x00061BA0    _ZNSt15basic_streambufIwSt11char_traitsIwEED1Ev
2133       0x00061BC0    _ZNSt15basic_streambufIwSt11char_traitsIwEED2Ev
2134       0x00061BE0    _ZNSt15basic_streambufIwSt11char_traitsIwEEaSERKS2_
2135       0x00061BF0    _ZNSt15basic_stringbufIcSt11char_traitsIcESaIcEE15_M_update_egptrEv
2136       0x00061C20    _ZNSt15basic_stringbufIcSt11char_traitsIcESaIcEE17_M_stringbuf_initESt13_Ios_Openmode
2137       0x00061C60    _ZNSt15basic_stringbufIcSt11char_traitsIcESaIcEE3strERKSs
2138       0x00061CC0    _ZNSt15basic_stringbufIcSt11char_traitsIcESaIcEE6setbufEPci
2139       0x00061D40    _ZNSt15basic_stringbufIcSt11char_traitsIcESaIcEE7_M_syncEPcjj
2140       0x00061E00    _ZNSt15basic_stringbufIcSt11char_traitsIcESaIcEE7seekoffExSt12_Ios_SeekdirSt13_Ios_Openmode
2141       0x00062070    _ZNSt15basic_stringbufIcSt11char_traitsIcESaIcEE7seekposESt4fposIiESt13_Ios_Openmode
2142       0x00062180    _ZNSt15basic_stringbufIcSt11char_traitsIcESaIcEE8_M_pbumpEPcS4_x
2143       0x000621D0    _ZNSt15basic_stringbufIcSt11char_traitsIcESaIcEE8overflowEi
2144       0x000623F0    _ZNSt15basic_stringbufIcSt11char_traitsIcESaIcEE9pbackfailEi
2145       0x00062460    _ZNSt15basic_stringbufIcSt11char_traitsIcESaIcEE9showmanycEv
2146       0x00062490    _ZNSt15basic_stringbufIcSt11char_traitsIcESaIcEE9underflowEv
2147       0x000624D0    _ZNSt15basic_stringbufIcSt11char_traitsIcESaIcEEC1ERKSsSt13_Ios_Openmode
2148       0x000625F0    _ZNSt15basic_stringbufIcSt11char_traitsIcESaIcEEC1ESt13_Ios_Openmode
2149       0x00062650    _ZNSt15basic_stringbufIcSt11char_traitsIcESaIcEEC2ERKSsSt13_Ios_Openmode
2150       0x00062770    _ZNSt15basic_stringbufIcSt11char_traitsIcESaIcEEC2ESt13_Ios_Openmode
2151       0x000627D0    _ZNSt15basic_stringbufIcSt11char_traitsIcESaIcEED0Ev
2152       0x00062850    _ZNSt15basic_stringbufIcSt11char_traitsIcESaIcEED1Ev
2153       0x000628C0    _ZNSt15basic_stringbufIwSt11char_traitsIwESaIwEE15_M_update_egptrEv
2154       0x000628F0    _ZNSt15basic_stringbufIwSt11char_traitsIwESaIwEE17_M_stringbuf_initESt13_Ios_Openmode
2155       0x00062930    _ZNSt15basic_stringbufIwSt11char_traitsIwESaIwEE3strERKSbIwS1_S2_E
2156       0x00062990    _ZNSt15basic_stringbufIwSt11char_traitsIwESaIwEE6setbufEPwi
2157       0x00062A10    _ZNSt15basic_stringbufIwSt11char_traitsIwESaIwEE7_M_syncEPwjj
2158       0x00062AC0    _ZNSt15basic_stringbufIwSt11char_traitsIwESaIwEE7seekoffExSt12_Ios_SeekdirSt13_Ios_Openmode
2159       0x00062D40    _ZNSt15basic_stringbufIwSt11char_traitsIwESaIwEE7seekposESt4fposIiESt13_Ios_Openmode
2160       0x00062E50    _ZNSt15basic_stringbufIwSt11char_traitsIwESaIwEE8_M_pbumpEPwS4_x
2161       0x00062EA0    _ZNSt15basic_stringbufIwSt11char_traitsIwESaIwEE8overflowEt
2162       0x000630D0    _ZNSt15basic_stringbufIwSt11char_traitsIwESaIwEE9pbackfailEt
2163       0x00063150    _ZNSt15basic_stringbufIwSt11char_traitsIwESaIwEE9showmanycEv
2164       0x00063180    _ZNSt15basic_stringbufIwSt11char_traitsIwESaIwEE9underflowEv
2165       0x000631C0    _ZNSt15basic_stringbufIwSt11char_traitsIwESaIwEEC1ERKSbIwS1_S2_ESt13_Ios_Openmode
2166       0x000632E0    _ZNSt15basic_stringbufIwSt11char_traitsIwESaIwEEC1ESt13_Ios_Openmode
2167       0x00063340    _ZNSt15basic_stringbufIwSt11char_traitsIwESaIwEEC2ERKSbIwS1_S2_ESt13_Ios_Openmode
2168       0x00063460    _ZNSt15basic_stringbufIwSt11char_traitsIwESaIwEEC2ESt13_Ios_Openmode
2169       0x000634C0    _ZNSt15basic_stringbufIwSt11char_traitsIwESaIwEED0Ev
2170       0x00063540    _ZNSt15basic_stringbufIwSt11char_traitsIwESaIwEED1Ev
2171       0x000635B0    _ZNSt15messages_bynameIcEC1EPKcj
2172       0x000636A0    _ZNSt15messages_bynameIcEC2EPKcj
2173       0x00063790    _ZNSt15messages_bynameIcED0Ev
2174       0x000637C0    _ZNSt15messages_bynameIcED1Ev
2175       0x000637E0    _ZNSt15messages_bynameIcED2Ev
2176       0x00063800    _ZNSt15messages_bynameIwEC1EPKcj
2177       0x000638F0    _ZNSt15messages_bynameIwEC2EPKcj
2178       0x000639E0    _ZNSt15messages_bynameIwED0Ev
2179       0x00063A10    _ZNSt15messages_bynameIwED1Ev
2180       0x00063A30    _ZNSt15messages_bynameIwED2Ev
2181       0x00063A50    _ZNSt15numpunct_bynameIcEC1EPKcj
2182       0x00063BA0    _ZNSt15numpunct_bynameIcEC2EPKcj
2183       0x00063CF0    _ZNSt15numpunct_bynameIcED0Ev
2184       0x00063D20    _ZNSt15numpunct_bynameIcED1Ev
2185       0x00063D40    _ZNSt15numpunct_bynameIcED2Ev
2186       0x00063D60    _ZNSt15numpunct_bynameIwEC1EPKcj
2187       0x00063EB0    _ZNSt15numpunct_bynameIwEC2EPKcj
2188       0x00064000    _ZNSt15numpunct_bynameIwED0Ev
2189       0x00064030    _ZNSt15numpunct_bynameIwED1Ev
2190       0x00064050    _ZNSt15numpunct_bynameIwED2Ev
2191       0x00064070    _ZNSt15time_get_bynameIcSt19istreambuf_iteratorIcSt11char_traitsIcEEEC1EPKcj
2192       0x00064090    _ZNSt15time_get_bynameIcSt19istreambuf_iteratorIcSt11char_traitsIcEEEC2EPKcj
2193       0x000640B0    _ZNSt15time_get_bynameIcSt19istreambuf_iteratorIcSt11char_traitsIcEEED0Ev
2194       0x000640E0    _ZNSt15time_get_bynameIcSt19istreambuf_iteratorIcSt11char_traitsIcEEED1Ev
2195       0x00064100    _ZNSt15time_get_bynameIcSt19istreambuf_iteratorIcSt11char_traitsIcEEED2Ev
2196       0x00064120    _ZNSt15time_get_bynameIwSt19istreambuf_iteratorIwSt11char_traitsIwEEEC1EPKcj
2197       0x00064140    _ZNSt15time_get_bynameIwSt19istreambuf_iteratorIwSt11char_traitsIwEEEC2EPKcj
2198       0x00064160    _ZNSt15time_get_bynameIwSt19istreambuf_iteratorIwSt11char_traitsIwEEED0Ev
2199       0x00064190    _ZNSt15time_get_bynameIwSt19istreambuf_iteratorIwSt11char_traitsIwEEED1Ev
2200       0x000641B0    _ZNSt15time_get_bynameIwSt19istreambuf_iteratorIwSt11char_traitsIwEEED2Ev
2201       0x000641D0    _ZNSt15time_put_bynameIcSt19ostreambuf_iteratorIcSt11char_traitsIcEEEC1EPKcj
2202       0x000641F0    _ZNSt15time_put_bynameIcSt19ostreambuf_iteratorIcSt11char_traitsIcEEEC2EPKcj
2203       0x00064210    _ZNSt15time_put_bynameIcSt19ostreambuf_iteratorIcSt11char_traitsIcEEED0Ev
2204       0x00064240    _ZNSt15time_put_bynameIcSt19ostreambuf_iteratorIcSt11char_traitsIcEEED1Ev
2205       0x00064260    _ZNSt15time_put_bynameIcSt19ostreambuf_iteratorIcSt11char_traitsIcEEED2Ev
2206       0x00064280    _ZNSt15time_put_bynameIwSt19ostreambuf_iteratorIwSt11char_traitsIwEEEC1EPKcj
2207       0x000642A0    _ZNSt15time_put_bynameIwSt19ostreambuf_iteratorIwSt11char_traitsIwEEEC2EPKcj
2208       0x000642C0    _ZNSt15time_put_bynameIwSt19ostreambuf_iteratorIwSt11char_traitsIwEEED0Ev
2209       0x000642F0    _ZNSt15time_put_bynameIwSt19ostreambuf_iteratorIwSt11char_traitsIwEEED1Ev
2210       0x00064310    _ZNSt15time_put_bynameIwSt19ostreambuf_iteratorIwSt11char_traitsIwEEED2Ev
2211       0x00064330    _ZNSt15underflow_errorC1ERKSs
2212       0x00064330    _ZNSt15underflow_errorC2ERKSs
2213       0x00064360    _ZNSt15underflow_errorD0Ev
2214       0x00064390    _ZNSt15underflow_errorD1Ev
2215       0x00064390    _ZNSt15underflow_errorD2Ev
2216       0x000643B0    _ZNSt16__numpunct_cacheIcE8_M_cacheERKSt6locale
2217       0x000648E0    _ZNSt16__numpunct_cacheIcEC1Ej
2218       0x00064940    _ZNSt16__numpunct_cacheIcEC2Ej
2219       0x000649A0    _ZNSt16__numpunct_cacheIcED0Ev
2220       0x000649C0    _ZNSt16__numpunct_cacheIcED1Ev
2221       0x00064A20    _ZNSt16__numpunct_cacheIcED2Ev
2222       0x00064A80    _ZNSt16__numpunct_cacheIwE8_M_cacheERKSt6locale
2223       0x00065070    _ZNSt16__numpunct_cacheIwEC1Ej
2224       0x000650D0    _ZNSt16__numpunct_cacheIwEC2Ej
2225       0x00065130    _ZNSt16__numpunct_cacheIwED0Ev
2226       0x00065150    _ZNSt16__numpunct_cacheIwED1Ev
2227       0x000651B0    _ZNSt16__numpunct_cacheIwED2Ev
2228       0x00065210    _ZNSt16invalid_argumentC1ERKSs
2229       0x00065210    _ZNSt16invalid_argumentC2ERKSs
2230       0x00065240    _ZNSt16invalid_argumentD0Ev
2231       0x00065270    _ZNSt16invalid_argumentD1Ev
2232       0x00065270    _ZNSt16invalid_argumentD2Ev
2233       0x00065290    _ZNSt16nested_exceptionD0Ev
2234       0x000652B0    _ZNSt16nested_exceptionD1Ev
2235       0x000652B0    _ZNSt16nested_exceptionD2Ev
2236       0x0008CE60    _ZNSt17__timepunct_cacheIcE12_S_timezonesE
2237       0x000652D0    _ZNSt17__timepunct_cacheIcEC1Ej
2238       0x00065470    _ZNSt17__timepunct_cacheIcEC2Ej
2239       0x00065610    _ZNSt17__timepunct_cacheIcED0Ev
2240       0x00065640    _ZNSt17__timepunct_cacheIcED1Ev
2241       0x00065660    _ZNSt17__timepunct_cacheIcED2Ev
2242       0x0008CEA0    _ZNSt17__timepunct_cacheIwE12_S_timezonesE
2243       0x00065680    _ZNSt17__timepunct_cacheIwEC1Ej
2244       0x00065820    _ZNSt17__timepunct_cacheIwEC2Ej
2245       0x000659C0    _ZNSt17__timepunct_cacheIwED0Ev
2246       0x000659F0    _ZNSt17__timepunct_cacheIwED1Ev
2247       0x00065A10    _ZNSt17__timepunct_cacheIwED2Ev
2248       0x00065A30    _ZNSt17bad_function_callD0Ev
2249       0x00065A60    _ZNSt17bad_function_callD1Ev
2250       0x00065A60    _ZNSt17bad_function_callD2Ev
2251       0x00092B3C    _ZNSt17moneypunct_bynameIcLb0EE4intlE
2252       0x00065A80    _ZNSt17moneypunct_bynameIcLb0EEC1EPKcj
2253       0x00065BE0    _ZNSt17moneypunct_bynameIcLb0EEC2EPKcj
2254       0x00065D40    _ZNSt17moneypunct_bynameIcLb0EED0Ev
2255       0x00065D70    _ZNSt17moneypunct_bynameIcLb0EED1Ev
2256       0x00065D90    _ZNSt17moneypunct_bynameIcLb0EED2Ev
2257       0x00092B40    _ZNSt17moneypunct_bynameIcLb1EE4intlE
2258       0x00065DB0    _ZNSt17moneypunct_bynameIcLb1EEC1EPKcj
2259       0x00065F10    _ZNSt17moneypunct_bynameIcLb1EEC2EPKcj
2260       0x00066070    _ZNSt17moneypunct_bynameIcLb1EED0Ev
2261       0x000660A0    _ZNSt17moneypunct_bynameIcLb1EED1Ev
2262       0x000660C0    _ZNSt17moneypunct_bynameIcLb1EED2Ev
2263       0x00092B44    _ZNSt17moneypunct_bynameIwLb0EE4intlE
2264       0x000660E0    _ZNSt17moneypunct_bynameIwLb0EEC1EPKcj
2265       0x00066240    _ZNSt17moneypunct_bynameIwLb0EEC2EPKcj
2266       0x000663A0    _ZNSt17moneypunct_bynameIwLb0EED0Ev
2267       0x000663D0    _ZNSt17moneypunct_bynameIwLb0EED1Ev
2268       0x000663F0    _ZNSt17moneypunct_bynameIwLb0EED2Ev
2269       0x00092B48    _ZNSt17moneypunct_bynameIwLb1EE4intlE
2270       0x00066410    _ZNSt17moneypunct_bynameIwLb1EEC1EPKcj
2271       0x00066570    _ZNSt17moneypunct_bynameIwLb1EEC2EPKcj
2272       0x000666D0    _ZNSt17moneypunct_bynameIwLb1EED0Ev
2273       0x00066700    _ZNSt17moneypunct_bynameIwLb1EED1Ev
2274       0x00066720    _ZNSt17moneypunct_bynameIwLb1EED2Ev
2275       0x00066740    _ZNSt18__moneypunct_cacheIcLb0EE8_M_cacheERKSt6locale
2276       0x00066D00    _ZNSt18__moneypunct_cacheIcLb0EEC1Ej
2277       0x00066D90    _ZNSt18__moneypunct_cacheIcLb0EEC2Ej
2278       0x00066E20    _ZNSt18__moneypunct_cacheIcLb0EED0Ev
2279       0x00066E40    _ZNSt18__moneypunct_cacheIcLb0EED1Ev
2280       0x00066EA0    _ZNSt18__moneypunct_cacheIcLb0EED2Ev
2281       0x00066F00    _ZNSt18__moneypunct_cacheIcLb1EE8_M_cacheERKSt6locale
2282       0x000674C0    _ZNSt18__moneypunct_cacheIcLb1EEC1Ej
2283       0x00067550    _ZNSt18__moneypunct_cacheIcLb1EEC2Ej
2284       0x000675E0    _ZNSt18__moneypunct_cacheIcLb1EED0Ev
2285       0x00067600    _ZNSt18__moneypunct_cacheIcLb1EED1Ev
2286       0x00067660    _ZNSt18__moneypunct_cacheIcLb1EED2Ev
2287       0x000676C0    _ZNSt18__moneypunct_cacheIwLb0EE8_M_cacheERKSt6locale
2288       0x00067E80    _ZNSt18__moneypunct_cacheIwLb0EEC1Ej
2289       0x00067F10    _ZNSt18__moneypunct_cacheIwLb0EEC2Ej
2290       0x00067FA0    _ZNSt18__moneypunct_cacheIwLb0EED0Ev
2291       0x00067FC0    _ZNSt18__moneypunct_cacheIwLb0EED1Ev
2292       0x00068020    _ZNSt18__moneypunct_cacheIwLb0EED2Ev
2293       0x00068080    _ZNSt18__moneypunct_cacheIwLb1EE8_M_cacheERKSt6locale
2294       0x00068840    _ZNSt18__moneypunct_cacheIwLb1EEC1Ej
2295       0x000688D0    _ZNSt18__moneypunct_cacheIwLb1EEC2Ej
2296       0x00068960    _ZNSt18__moneypunct_cacheIwLb1EED0Ev
2297       0x00068980    _ZNSt18__moneypunct_cacheIwLb1EED1Ev
2298       0x000689E0    _ZNSt18__moneypunct_cacheIwLb1EED2Ev
2299       0x00068A40    _ZNSt18basic_stringstreamIcSt11char_traitsIcESaIcEE3strERKSs
2300       0x00068AA0    _ZNSt18basic_stringstreamIcSt11char_traitsIcESaIcEEC1ERKSsSt13_Ios_Openmode
2301       0x00068D30    _ZNSt18basic_stringstreamIcSt11char_traitsIcESaIcEEC1ESt13_Ios_Openmode
2302       0x00068F40    _ZNSt18basic_stringstreamIcSt11char_traitsIcESaIcEEC2ERKSsSt13_Ios_Openmode
2303       0x00069190    _ZNSt18basic_stringstreamIcSt11char_traitsIcESaIcEEC2ESt13_Ios_Openmode
2304       0x00069360    _ZNSt18basic_stringstreamIcSt11char_traitsIcESaIcEED0Ev
2305       0x00069410    _ZNSt18basic_stringstreamIcSt11char_traitsIcESaIcEED1Ev
2306       0x000694C0    _ZNSt18basic_stringstreamIcSt11char_traitsIcESaIcEED2Ev
2307       0x00069590    _ZNSt18basic_stringstreamIwSt11char_traitsIwESaIwEE3strERKSbIwS1_S2_E
2308       0x000695F0    _ZNSt18basic_stringstreamIwSt11char_traitsIwESaIwEEC1ERKSbIwS1_S2_ESt13_Ios_Openmode
2309       0x00069890    _ZNSt18basic_stringstreamIwSt11char_traitsIwESaIwEEC1ESt13_Ios_Openmode
2310       0x00069AA0    _ZNSt18basic_stringstreamIwSt11char_traitsIwESaIwEEC2ERKSbIwS1_S2_ESt13_Ios_Openmode
2311       0x00069CF0    _ZNSt18basic_stringstreamIwSt11char_traitsIwESaIwEEC2ESt13_Ios_Openmode
2312       0x00069EC0    _ZNSt18basic_stringstreamIwSt11char_traitsIwESaIwEED0Ev
2313       0x00069F70    _ZNSt18basic_stringstreamIwSt11char_traitsIwESaIwEED1Ev
2314       0x0006A020    _ZNSt18basic_stringstreamIwSt11char_traitsIwESaIwEED2Ev
2315       0x0006A0F0    _ZNSt19basic_istringstreamIcSt11char_traitsIcESaIcEE3strERKSs
2316       0x0006A150    _ZNSt19basic_istringstreamIcSt11char_traitsIcESaIcEEC1ERKSsSt13_Ios_Openmode
2317       0x0006A380    _ZNSt19basic_istringstreamIcSt11char_traitsIcESaIcEEC1ESt13_Ios_Openmode
2318       0x0006A530    _ZNSt19basic_istringstreamIcSt11char_traitsIcESaIcEEC2ERKSsSt13_Ios_Openmode
2319       0x0006A700    _ZNSt19basic_istringstreamIcSt11char_traitsIcESaIcEEC2ESt13_Ios_Openmode
2320       0x0006A850    _ZNSt19basic_istringstreamIcSt11char_traitsIcESaIcEED0Ev
2321       0x0006A8F0    _ZNSt19basic_istringstreamIcSt11char_traitsIcESaIcEED1Ev
2322       0x0006A990    _ZNSt19basic_istringstreamIcSt11char_traitsIcESaIcEED2Ev
2323       0x0006AA30    _ZNSt19basic_istringstreamIwSt11char_traitsIwESaIwEE3strERKSbIwS1_S2_E
2324       0x0006AA90    _ZNSt19basic_istringstreamIwSt11char_traitsIwESaIwEEC1ERKSbIwS1_S2_ESt13_Ios_Openmode
2325       0x0006ACC0    _ZNSt19basic_istringstreamIwSt11char_traitsIwESaIwEEC1ESt13_Ios_Openmode
2326       0x0006AE70    _ZNSt19basic_istringstreamIwSt11char_traitsIwESaIwEEC2ERKSbIwS1_S2_ESt13_Ios_Openmode
2327       0x0006B040    _ZNSt19basic_istringstreamIwSt11char_traitsIwESaIwEEC2ESt13_Ios_Openmode
2328       0x0006B190    _ZNSt19basic_istringstreamIwSt11char_traitsIwESaIwEED0Ev
2329       0x0006B230    _ZNSt19basic_istringstreamIwSt11char_traitsIwESaIwEED1Ev
2330       0x0006B2D0    _ZNSt19basic_istringstreamIwSt11char_traitsIwESaIwEED2Ev
2331       0x0006B370    _ZNSt19basic_ostringstreamIcSt11char_traitsIcESaIcEE3strERKSs
2332       0x0006B3D0    _ZNSt19basic_ostringstreamIcSt11char_traitsIcESaIcEEC1ERKSsSt13_Ios_Openmode
2333       0x0006B5F0    _ZNSt19basic_ostringstreamIcSt11char_traitsIcESaIcEEC1ESt13_Ios_Openmode
2334       0x0006B790    _ZNSt19basic_ostringstreamIcSt11char_traitsIcESaIcEEC2ERKSsSt13_Ios_Openmode
2335       0x0006B950    _ZNSt19basic_ostringstreamIcSt11char_traitsIcESaIcEEC2ESt13_Ios_Openmode
2336       0x0006BA90    _ZNSt19basic_ostringstreamIcSt11char_traitsIcESaIcEED0Ev
2337       0x0006BB30    _ZNSt19basic_ostringstreamIcSt11char_traitsIcESaIcEED1Ev
2338       0x0006BBD0    _ZNSt19basic_ostringstreamIcSt11char_traitsIcESaIcEED2Ev
2339       0x0006BC70    _ZNSt19basic_ostringstreamIwSt11char_traitsIwESaIwEE3strERKSbIwS1_S2_E
2340       0x0006BCD0    _ZNSt19basic_ostringstreamIwSt11char_traitsIwESaIwEEC1ERKSbIwS1_S2_ESt13_Ios_Openmode
2341       0x0006BF00    _ZNSt19basic_ostringstreamIwSt11char_traitsIwESaIwEEC1ESt13_Ios_Openmode
2342       0x0006C0A0    _ZNSt19basic_ostringstreamIwSt11char_traitsIwESaIwEEC2ERKSbIwS1_S2_ESt13_Ios_Openmode
2343       0x0006C260    _ZNSt19basic_ostringstreamIwSt11char_traitsIwESaIwEEC2ESt13_Ios_Openmode
2344       0x0006C3A0    _ZNSt19basic_ostringstreamIwSt11char_traitsIwESaIwEED0Ev
2345       0x0006C440    _ZNSt19basic_ostringstreamIwSt11char_traitsIwESaIwEED1Ev
2346       0x0006C4E0    _ZNSt19basic_ostringstreamIwSt11char_traitsIwESaIwEED2Ev
2347       0x00092B4C    _ZNSt21__numeric_limits_base10has_denormE
2348       0x00092B50    _ZNSt21__numeric_limits_base10is_boundedE
2349       0x00092B54    _ZNSt21__numeric_limits_base10is_integerE
2350       0x00092B58    _ZNSt21__numeric_limits_base11round_styleE
2351       0x00092B5C    _ZNSt21__numeric_limits_base12has_infinityE
2352       0x00092B60    _ZNSt21__numeric_limits_base12max_digits10E
2353       0x00092B64    _ZNSt21__numeric_limits_base12max_exponentE
2354       0x00092B68    _ZNSt21__numeric_limits_base12min_exponentE
2355       0x00092B6C    _ZNSt21__numeric_limits_base13has_quiet_NaNE
2356       0x00092B70    _ZNSt21__numeric_limits_base14is_specializedE
2357       0x00092B74    _ZNSt21__numeric_limits_base14max_exponent10E
2358       0x00092B78    _ZNSt21__numeric_limits_base14min_exponent10E
2359       0x00092B7C    _ZNSt21__numeric_limits_base15has_denorm_lossE
2360       0x00092B80    _ZNSt21__numeric_limits_base15tinyness_beforeE
2361       0x00092B84    _ZNSt21__numeric_limits_base17has_signaling_NaNE
2362       0x00092B88    _ZNSt21__numeric_limits_base5radixE
2363       0x00092B8C    _ZNSt21__numeric_limits_base5trapsE
2364       0x00092B90    _ZNSt21__numeric_limits_base6digitsE
2365       0x00092B94    _ZNSt21__numeric_limits_base8digits10E
2366       0x00092B98    _ZNSt21__numeric_limits_base8is_exactE
2367       0x00092B9C    _ZNSt21__numeric_limits_base9is_iec559E
2368       0x00092BA0    _ZNSt21__numeric_limits_base9is_moduloE
2369       0x00092BA4    _ZNSt21__numeric_limits_base9is_signedE
2370       0x00092BC0    _ZNSt3tr18__detail12__prime_listE
2371       0x00092FE0    _ZNSt5ctypeIcE10table_sizeE
2372       0x0006CAC0    _ZNSt5ctypeIcE13classic_tableEv
2373       0x0008CEE0    _ZNSt5ctypeIcE2idE
2374       0x0006CAD0    _ZNSt5ctypeIcEC1EPKtbj
2375       0x0006CC20    _ZNSt5ctypeIcEC1EPiPKtbj
2376       0x0006CAD0    _ZNSt5ctypeIcEC2EPKtbj
2377       0x0006CC20    _ZNSt5ctypeIcEC2EPiPKtbj
2378       0x0006CD70    _ZNSt5ctypeIcED0Ev
2379       0x0006CD90    _ZNSt5ctypeIcED1Ev
2380       0x0006CD90    _ZNSt5ctypeIcED2Ev
2381       0x0006CE40    _ZNSt5ctypeIwE19_M_initialize_ctypeEv
2382       0x0008CEE4    _ZNSt5ctypeIwE2idE
2383       0x0006CED0    _ZNSt5ctypeIwEC1EPij
2384       0x0006CF10    _ZNSt5ctypeIwEC1Ej
2385       0x0006CED0    _ZNSt5ctypeIwEC2EPij
2386       0x0006CF10    _ZNSt5ctypeIwEC2Ej
2387       0x0006CFC0    _ZNSt5ctypeIwED0Ev
2388       0x0006CFE0    _ZNSt5ctypeIwED1Ev
2389       0x0006CFE0    _ZNSt5ctypeIwED2Ev
2390       0x0006D090    _ZNSt6__norm15_List_node_base10_M_reverseEv
2391       0x0006D0C0    _ZNSt6__norm15_List_node_base11_M_transferEPS0_S1_
2392       0x0006D100    _ZNSt6__norm15_List_node_base4hookEPS0_
2393       0x0006D120    _ZNSt6__norm15_List_node_base4swapERS0_S1_
2394       0x0006D1A0    _ZNSt6__norm15_List_node_base6unhookEv
2395       0x0006D1C0    _ZNSt6__norm15_List_node_base7_M_hookEPS0_
2396       0x0006D1E0    _ZNSt6__norm15_List_node_base7reverseEv
2397       0x0006D210    _ZNSt6__norm15_List_node_base8transferEPS0_S1_
2398       0x0006D250    _ZNSt6__norm15_List_node_base9_M_unhookEv
2399       0x00092FE4    _ZNSt6chrono12system_clock12is_monotonicE
2400       0x0006D270    _ZNSt6chrono12system_clock3nowEv
2401       0x0006D310    _ZNSt6gslice8_IndexerC1EjRKSt8valarrayIjES4_
2402       0x0006D310    _ZNSt6gslice8_IndexerC2EjRKSt8valarrayIjES4_
2403       0x0006D4E0    _ZNSt6locale11_M_coalesceERKS_S1_i
2404       0x0006D6C0    _ZNSt6locale21_S_normalize_categoryEi
2405       0x00092FEC    _ZNSt6locale3allE
2406       0x00092FF0    _ZNSt6locale4noneE
2407       0x00092FF4    _ZNSt6locale4timeE
2408       0x0006D730    _ZNSt6locale5_Impl16_M_install_cacheEPKNS_5facetEj
2409       0x0006D950    _ZNSt6locale5_Impl16_M_install_facetEPKNS_2idEPKNS_5facetE
2410       0x0006DCB0    _ZNSt6locale5_Impl16_M_replace_facetEPKS0_PKNS_2idE
2411       0x0006DD10    _ZNSt6locale5_Impl19_M_replace_categoryEPKS0_PKPKNS_2idE
2412       0x0006DD50    _ZNSt6locale5_Impl21_M_replace_categoriesEPKS0_i
2413       0x0006DF00    _ZNSt6locale5_ImplC1EPKcj
2414       0x0006ED50    _ZNSt6locale5_ImplC1ERKS0_j
2415       0x0006EFA0    _ZNSt6locale5_ImplC1Ej
2416       0x0006DF00    _ZNSt6locale5_ImplC2EPKcj
2417       0x0006ED50    _ZNSt6locale5_ImplC2ERKS0_j
2418       0x0006EFA0    _ZNSt6locale5_ImplC2Ej
2419       0x000700F0    _ZNSt6locale5_ImplD1Ev
2420       0x000700F0    _ZNSt6locale5_ImplD2Ev
2421       0x000930BC    _ZNSt6locale5ctypeE
2422       0x00070320    _ZNSt6locale5facet13_S_get_c_nameEv
2423       0x00070330    _ZNSt6locale5facet15_S_get_c_localeEv
2424       0x00070350    _ZNSt6locale5facet17_S_clone_c_localeERPi
2425       0x00070360    _ZNSt6locale5facet18_S_create_c_localeERPiPKcS1_
2426       0x000703D0    _ZNSt6locale5facet19_S_destroy_c_localeERPi
2427       0x000703F0    _ZNSt6locale5facetD0Ev
2428       0x00070410    _ZNSt6locale5facetD1Ev
2429       0x00070410    _ZNSt6locale5facetD2Ev
2430       0x00070420    _ZNSt6locale6globalERKS_
2431       0x00070660    _ZNSt6locale7classicEv
2432       0x000930C4    _ZNSt6locale7collateE
2433       0x000930C8    _ZNSt6locale7numericE
2434       0x000930CC    _ZNSt6locale8messagesE
2435       0x000930D0    _ZNSt6locale8monetaryE
2436       0x00070690    _ZNSt6localeC1EPKc
2437       0x00071190    _ZNSt6localeC1EPNS_5_ImplE
2438       0x000711A0    _ZNSt6localeC1ERKS_
2439       0x000711D0    _ZNSt6localeC1ERKS_PKci
2440       0x00071290    _ZNSt6localeC1ERKS_S1_i
2441       0x000712C0    _ZNSt6localeC1Ev
2442       0x00070690    _ZNSt6localeC2EPKc
2443       0x00071190    _ZNSt6localeC2EPNS_5_ImplE
2444       0x000711A0    _ZNSt6localeC2ERKS_
2445       0x000711D0    _ZNSt6localeC2ERKS_PKci
2446       0x00071290    _ZNSt6localeC2ERKS_S1_i
2447       0x000712C0    _ZNSt6localeC2Ev
2448       0x00071420    _ZNSt6localeD1Ev
2449       0x00071420    _ZNSt6localeD2Ev
2450       0x00071470    _ZNSt6localeaSERKS_
2451       0x0008CF08    _ZNSt7codecvtIcciE2idE
2452       0x000714F0    _ZNSt7codecvtIcciEC1EPij
2453       0x00071530    _ZNSt7codecvtIcciEC1Ej
2454       0x000714F0    _ZNSt7codecvtIcciEC2EPij
2455       0x00071530    _ZNSt7codecvtIcciEC2Ej
2456       0x000715D0    _ZNSt7codecvtIcciED0Ev
2457       0x000715F0    _ZNSt7codecvtIcciED1Ev
2458       0x000715F0    _ZNSt7codecvtIcciED2Ev
2459       0x0008CF0C    _ZNSt7codecvtIwciE2idE
2460       0x000716A0    _ZNSt7codecvtIwciEC1EPij
2461       0x000716E0    _ZNSt7codecvtIwciEC1Ej
2462       0x000716A0    _ZNSt7codecvtIwciEC2EPij
2463       0x000716E0    _ZNSt7codecvtIwciEC2Ej
2464       0x00071780    _ZNSt7codecvtIwciED0Ev
2465       0x000717A0    _ZNSt7codecvtIwciED1Ev
2466       0x000717A0    _ZNSt7codecvtIwciED2Ev
2467       0x0008CF10    _ZNSt7collateIcE2idE
2468       0x00071850    _ZNSt7collateIcEC1EPij
2469       0x00071890    _ZNSt7collateIcEC1Ej
2470       0x00071930    _ZNSt7collateIcEC2EPij
2471       0x00071970    _ZNSt7collateIcEC2Ej
2472       0x00071A10    _ZNSt7collateIcED0Ev
2473       0x00071AC0    _ZNSt7collateIcED1Ev
2474       0x00071B60    _ZNSt7collateIcED2Ev
2475       0x0008CF14    _ZNSt7collateIwE2idE
2476       0x00071C00    _ZNSt7collateIwEC1EPij
2477       0x00071C40    _ZNSt7collateIwEC1Ej
2478       0x00071CE0    _ZNSt7collateIwEC2EPij
2479       0x00071D20    _ZNSt7collateIwEC2Ej
2480       0x00071DC0    _ZNSt7collateIwED0Ev
2481       0x00071E70    _ZNSt7collateIwED1Ev
2482       0x00071F10    _ZNSt7collateIwED2Ev
2483       0x0008CF18    _ZNSt7num_getIcSt19istreambuf_iteratorIcSt11char_traitsIcEEE2idE
2484       0x00071FB0    _ZNSt7num_getIcSt19istreambuf_iteratorIcSt11char_traitsIcEEEC1Ej
2485       0x00071FD0    _ZNSt7num_getIcSt19istreambuf_iteratorIcSt11char_traitsIcEEEC2Ej
2486       0x00071FF0    _ZNSt7num_getIcSt19istreambuf_iteratorIcSt11char_traitsIcEEED0Ev
2487       0x00072020    _ZNSt7num_getIcSt19istreambuf_iteratorIcSt11char_traitsIcEEED1Ev
2488       0x00072040    _ZNSt7num_getIcSt19istreambuf_iteratorIcSt11char_traitsIcEEED2Ev
2489       0x0008CF1C    _ZNSt7num_getIwSt19istreambuf_iteratorIwSt11char_traitsIwEEE2idE
2490       0x00072060    _ZNSt7num_getIwSt19istreambuf_iteratorIwSt11char_traitsIwEEEC1Ej
2491       0x00072080    _ZNSt7num_getIwSt19istreambuf_iteratorIwSt11char_traitsIwEEEC2Ej
2492       0x000720A0    _ZNSt7num_getIwSt19istreambuf_iteratorIwSt11char_traitsIwEEED0Ev
2493       0x000720D0    _ZNSt7num_getIwSt19istreambuf_iteratorIwSt11char_traitsIwEEED1Ev
2494       0x000720F0    _ZNSt7num_getIwSt19istreambuf_iteratorIwSt11char_traitsIwEEED2Ev
2495       0x0008CF20    _ZNSt7num_putIcSt19ostreambuf_iteratorIcSt11char_traitsIcEEE2idE
2496       0x00072110    _ZNSt7num_putIcSt19ostreambuf_iteratorIcSt11char_traitsIcEEEC1Ej
2497       0x00072130    _ZNSt7num_putIcSt19ostreambuf_iteratorIcSt11char_traitsIcEEEC2Ej
2498       0x00072150    _ZNSt7num_putIcSt19ostreambuf_iteratorIcSt11char_traitsIcEEED0Ev
2499       0x00072180    _ZNSt7num_putIcSt19ostreambuf_iteratorIcSt11char_traitsIcEEED1Ev
2500       0x000721A0    _ZNSt7num_putIcSt19ostreambuf_iteratorIcSt11char_traitsIcEEED2Ev
2501       0x0008CF24    _ZNSt7num_putIwSt19ostreambuf_iteratorIwSt11char_traitsIwEEE2idE
2502       0x000721C0    _ZNSt7num_putIwSt19ostreambuf_iteratorIwSt11char_traitsIwEEEC1Ej
2503       0x000721E0    _ZNSt7num_putIwSt19ostreambuf_iteratorIwSt11char_traitsIwEEEC2Ej
2504       0x00072200    _ZNSt7num_putIwSt19ostreambuf_iteratorIwSt11char_traitsIwEEED0Ev
2505       0x00072230    _ZNSt7num_putIwSt19ostreambuf_iteratorIwSt11char_traitsIwEEED1Ev
2506       0x00072250    _ZNSt7num_putIwSt19ostreambuf_iteratorIwSt11char_traitsIwEEED2Ev
2507       0x000930E0    _ZNSt8__detail12__prime_listE
2508       0x00072270    _ZNSt8__detail15_List_node_base10_M_reverseEv
2509       0x000722A0    _ZNSt8__detail15_List_node_base11_M_transferEPS0_S1_
2510       0x000722E0    _ZNSt8__detail15_List_node_base4swapERS0_S1_
2511       0x00072360    _ZNSt8__detail15_List_node_base7_M_hookEPS0_
2512       0x00072380    _ZNSt8__detail15_List_node_base9_M_unhookEv
2513       0x000723A0    _ZNSt8bad_castD0Ev
2514       0x000723D0    _ZNSt8bad_castD1Ev
2515       0x000723D0    _ZNSt8bad_castD2Ev
2516       0x00093500    _ZNSt8ios_base10floatfieldE
2517       0x00093504    _ZNSt8ios_base10scientificE
2518       0x00093508    _ZNSt8ios_base11adjustfieldE
2519       0x000723F0    _ZNSt8ios_base13_M_grow_wordsEib
2520       0x00072620    _ZNSt8ios_base15sync_with_stdioEb
2521       0x00072900    _ZNSt8ios_base17_M_call_callbacksENS_5eventE
2522       0x000729D0    _ZNSt8ios_base17register_callbackEPFvNS_5eventERS_iEi
2523       0x00072A10    _ZNSt8ios_base20_M_dispose_callbacksEv
2524       0x0009350C    _ZNSt8ios_base2inE
2525       0x00093510    _ZNSt8ios_base3appE
2526       0x00093514    _ZNSt8ios_base3ateE
2527       0x00093518    _ZNSt8ios_base3begE
2528       0x0009351C    _ZNSt8ios_base3curE
2529       0x00093520    _ZNSt8ios_base3decE
2530       0x00093524    _ZNSt8ios_base3endE
2531       0x00093528    _ZNSt8ios_base3hexE
2532       0x0009352C    _ZNSt8ios_base3octE
2533       0x00093530    _ZNSt8ios_base3outE
2534       0x00072A70    _ZNSt8ios_base4InitC1Ev
2535       0x00072A70    _ZNSt8ios_base4InitC2Ev
2536       0x000733A0    _ZNSt8ios_base4InitD1Ev
2537       0x000733A0    _ZNSt8ios_base4InitD2Ev
2538       0x00093534    _ZNSt8ios_base4leftE
2539       0x00093538    _ZNSt8ios_base5fixedE
2540       0x000734A0    _ZNSt8ios_base5imbueERKSt6locale
2541       0x0009353C    _ZNSt8ios_base5rightE
2542       0x00093540    _ZNSt8ios_base5truncE
2543       0x00093544    _ZNSt8ios_base6badbitE
2544       0x00093548    _ZNSt8ios_base6binaryE
2545       0x0009354C    _ZNSt8ios_base6eofbitE
2546       0x00093550    _ZNSt8ios_base6skipwsE
2547       0x00073500    _ZNSt8ios_base6xallocEv
2548       0x00073540    _ZNSt8ios_base7_M_initEv
2549       0x00093554    _ZNSt8ios_base7failbitE
2550       0x00073590    _ZNSt8ios_base7failureC1ERKSs
2551       0x00073590    _ZNSt8ios_base7failureC2ERKSs
2552       0x00073630    _ZNSt8ios_base7failureD0Ev
2553       0x00073650    _ZNSt8ios_base7failureD1Ev
2554       0x00073650    _ZNSt8ios_base7failureD2Ev
2555       0x00093558    _ZNSt8ios_base7goodbitE
2556       0x0009355C    _ZNSt8ios_base7showposE
2557       0x00093560    _ZNSt8ios_base7unitbufE
2558       0x00093564    _ZNSt8ios_base8internalE
2559       0x00093568    _ZNSt8ios_base8showbaseE
2560       0x0009356C    _ZNSt8ios_base9basefieldE
2561       0x00093570    _ZNSt8ios_base9boolalphaE
2562       0x00093574    _ZNSt8ios_base9showpointE
2563       0x00093578    _ZNSt8ios_base9uppercaseE
2564       0x000736C0    _ZNSt8ios_baseC1Ev
2565       0x000736C0    _ZNSt8ios_baseC2Ev
2566       0x00073740    _ZNSt8ios_baseD0Ev
2567       0x00073760    _ZNSt8ios_baseD1Ev
2568       0x00073760    _ZNSt8ios_baseD2Ev
2569       0x0008CF30    _ZNSt8messagesIcE2idE
2570       0x000737C0    _ZNSt8messagesIcEC1EPiPKcj
2571       0x00073860    _ZNSt8messagesIcEC1Ej
2572       0x00073900    _ZNSt8messagesIcEC2EPiPKcj
2573       0x000739A0    _ZNSt8messagesIcEC2Ej
2574       0x00073A40    _ZNSt8messagesIcED0Ev
2575       0x00073A60    _ZNSt8messagesIcED1Ev
2576       0x00073B00    _ZNSt8messagesIcED2Ev
2577       0x0008CF34    _ZNSt8messagesIwE2idE
2578       0x00073BA0    _ZNSt8messagesIwEC1EPiPKcj
2579       0x00073C40    _ZNSt8messagesIwEC1Ej
2580       0x00073CE0    _ZNSt8messagesIwEC2EPiPKcj
2581       0x00073D80    _ZNSt8messagesIwEC2Ej
2582       0x00073E20    _ZNSt8messagesIwED0Ev
2583       0x00073E40    _ZNSt8messagesIwED1Ev
2584       0x00073EE0    _ZNSt8messagesIwED2Ev
2585       0x00073F80    _ZNSt8numpunctIcE22_M_initialize_numpunctEPi
2586       0x0008CF38    _ZNSt8numpunctIcE2idE
2587       0x00074070    _ZNSt8numpunctIcEC1EPSt16__numpunct_cacheIcEj
2588       0x00074110    _ZNSt8numpunctIcEC1EPij
2589       0x000741B0    _ZNSt8numpunctIcEC1Ej
2590       0x00074250    _ZNSt8numpunctIcEC2EPSt16__numpunct_cacheIcEj
2591       0x000742F0    _ZNSt8numpunctIcEC2EPij
2592       0x00074390    _ZNSt8numpunctIcEC2Ej
2593       0x00074430    _ZNSt8numpunctIcED0Ev
2594       0x00074450    _ZNSt8numpunctIcED1Ev
2595       0x00074450    _ZNSt8numpunctIcED2Ev
2596       0x000744F0    _ZNSt8numpunctIwE22_M_initialize_numpunctEPi
2597       0x0008CF3C    _ZNSt8numpunctIwE2idE
2598       0x000745E0    _ZNSt8numpunctIwEC1EPSt16__numpunct_cacheIwEj
2599       0x00074680    _ZNSt8numpunctIwEC1EPij
2600       0x00074720    _ZNSt8numpunctIwEC1Ej
2601       0x000747C0    _ZNSt8numpunctIwEC2EPSt16__numpunct_cacheIwEj
2602       0x00074860    _ZNSt8numpunctIwEC2EPij
2603       0x00074900    _ZNSt8numpunctIwEC2Ej
2604       0x000749A0    _ZNSt8numpunctIwED0Ev
2605       0x000749C0    _ZNSt8numpunctIwED1Ev
2606       0x000749C0    _ZNSt8numpunctIwED2Ev
2607       0x0008CF40    _ZNSt8time_getIcSt19istreambuf_iteratorIcSt11char_traitsIcEEE2idE
2608       0x00074A60    _ZNSt8time_getIcSt19istreambuf_iteratorIcSt11char_traitsIcEEEC1Ej
2609       0x00074A80    _ZNSt8time_getIcSt19istreambuf_iteratorIcSt11char_traitsIcEEEC2Ej
2610       0x00074AA0    _ZNSt8time_getIcSt19istreambuf_iteratorIcSt11char_traitsIcEEED0Ev
2611       0x00074AD0    _ZNSt8time_getIcSt19istreambuf_iteratorIcSt11char_traitsIcEEED1Ev
2612       0x00074AF0    _ZNSt8time_getIcSt19istreambuf_iteratorIcSt11char_traitsIcEEED2Ev
2613       0x0008CF44    _ZNSt8time_getIwSt19istreambuf_iteratorIwSt11char_traitsIwEEE2idE
2614       0x00074B10    _ZNSt8time_getIwSt19istreambuf_iteratorIwSt11char_traitsIwEEEC1Ej
2615       0x00074B30    _ZNSt8time_getIwSt19istreambuf_iteratorIwSt11char_traitsIwEEEC2Ej
2616       0x00074B50    _ZNSt8time_getIwSt19istreambuf_iteratorIwSt11char_traitsIwEEED0Ev
2617       0x00074B80    _ZNSt8time_getIwSt19istreambuf_iteratorIwSt11char_traitsIwEEED1Ev
2618       0x00074BA0    _ZNSt8time_getIwSt19istreambuf_iteratorIwSt11char_traitsIwEEED2Ev
2619       0x0008CF48    _ZNSt8time_putIcSt19ostreambuf_iteratorIcSt11char_traitsIcEEE2idE
2620       0x00074BC0    _ZNSt8time_putIcSt19ostreambuf_iteratorIcSt11char_traitsIcEEEC1Ej
2621       0x00074BE0    _ZNSt8time_putIcSt19ostreambuf_iteratorIcSt11char_traitsIcEEEC2Ej
2622       0x00074C00    _ZNSt8time_putIcSt19ostreambuf_iteratorIcSt11char_traitsIcEEED0Ev
2623       0x00074C30    _ZNSt8time_putIcSt19ostreambuf_iteratorIcSt11char_traitsIcEEED1Ev
2624       0x00074C50    _ZNSt8time_putIcSt19ostreambuf_iteratorIcSt11char_traitsIcEEED2Ev
2625       0x0008CF4C    _ZNSt8time_putIwSt19ostreambuf_iteratorIwSt11char_traitsIwEEE2idE
2626       0x00074C70    _ZNSt8time_putIwSt19ostreambuf_iteratorIwSt11char_traitsIwEEEC1Ej
2627       0x00074C90    _ZNSt8time_putIwSt19ostreambuf_iteratorIwSt11char_traitsIwEEEC2Ej
2628       0x00074CB0    _ZNSt8time_putIwSt19ostreambuf_iteratorIwSt11char_traitsIwEEED0Ev
2629       0x00074CE0    _ZNSt8time_putIwSt19ostreambuf_iteratorIwSt11char_traitsIwEEED1Ev
2630       0x00074D00    _ZNSt8time_putIwSt19ostreambuf_iteratorIwSt11char_traitsIwEEED2Ev
2631       0x00074D20    _ZNSt8valarrayIjEC1ERKS0_
2632       0x00074D70    _ZNSt8valarrayIjEC1Ej
2633       0x00074DB0    _ZNSt8valarrayIjEC2ERKS0_
2634       0x00074E00    _ZNSt8valarrayIjEC2Ej
2635       0x00074E40    _ZNSt8valarrayIjED1Ev
2636       0x00074E60    _ZNSt8valarrayIjED2Ev
2637       0x00074E80    _ZNSt8valarrayIjEixEj
2638       0x00074EA0    _ZNSt9__atomic011atomic_flag12test_and_setESt12memory_order
2639       0x00074EB0    _ZNSt9__atomic011atomic_flag5clearESt12memory_order
2640       0x00074EC0    _ZNSt9bad_allocD0Ev
2641       0x00074EF0    _ZNSt9bad_allocD1Ev
2642       0x00074EF0    _ZNSt9bad_allocD2Ev
2643       0x00074F10    _ZNSt9basic_iosIcSt11char_traitsIcEE10exceptionsESt12_Ios_Iostate
2644       0x00074F30    _ZNSt9basic_iosIcSt11char_traitsIcEE11_M_setstateESt12_Ios_Iostate
2645       0x00074F50    _ZNSt9basic_iosIcSt11char_traitsIcEE15_M_cache_localeERKSt6locale
2646       0x00074FE0    _ZNSt9basic_iosIcSt11char_traitsIcEE3tieEPSo
2647       0x00075000    _ZNSt9basic_iosIcSt11char_traitsIcEE4fillEc
2648       0x00075080    _ZNSt9basic_iosIcSt11char_traitsIcEE4initEPSt15basic_streambufIcS1_E
2649       0x000750E0    _ZNSt9basic_iosIcSt11char_traitsIcEE5clearESt12_Ios_Iostate
2650       0x00075120    _ZNSt9basic_iosIcSt11char_traitsIcEE5imbueERKSt6locale
2651       0x00075260    _ZNSt9basic_iosIcSt11char_traitsIcEE5rdbufEPSt15basic_streambufIcS1_E
2652       0x00075290    _ZNSt9basic_iosIcSt11char_traitsIcEE7copyfmtERKS2_
2653       0x000754C0    _ZNSt9basic_iosIcSt11char_traitsIcEE8setstateESt12_Ios_Iostate
2654       0x000754E0    _ZNSt9basic_iosIcSt11char_traitsIcEEC1EPSt15basic_streambufIcS1_E
2655       0x000755B0    _ZNSt9basic_iosIcSt11char_traitsIcEEC1Ev
2656       0x00075600    _ZNSt9basic_iosIcSt11char_traitsIcEEC2EPSt15basic_streambufIcS1_E
2657       0x000756D0    _ZNSt9basic_iosIcSt11char_traitsIcEEC2Ev
2658       0x00075720    _ZNSt9basic_iosIcSt11char_traitsIcEED0Ev
2659       0x00075750    _ZNSt9basic_iosIcSt11char_traitsIcEED1Ev
2660       0x00075770    _ZNSt9basic_iosIcSt11char_traitsIcEED2Ev
2661       0x00075790    _ZNSt9basic_iosIwSt11char_traitsIwEE10exceptionsESt12_Ios_Iostate
2662       0x000757B0    _ZNSt9basic_iosIwSt11char_traitsIwEE11_M_setstateESt12_Ios_Iostate
2663       0x000757D0    _ZNSt9basic_iosIwSt11char_traitsIwEE15_M_cache_localeERKSt6locale
2664       0x00075860    _ZNSt9basic_iosIwSt11char_traitsIwEE3tieEPSt13basic_ostreamIwS1_E
2665       0x00075880    _ZNSt9basic_iosIwSt11char_traitsIwEE4fillEw
2666       0x000758F0    _ZNSt9basic_iosIwSt11char_traitsIwEE4initEPSt15basic_streambufIwS1_E
2667       0x00075950    _ZNSt9basic_iosIwSt11char_traitsIwEE5clearESt12_Ios_Iostate
2668       0x00075990    _ZNSt9basic_iosIwSt11char_traitsIwEE5imbueERKSt6locale
2669       0x00075AD0    _ZNSt9basic_iosIwSt11char_traitsIwEE5rdbufEPSt15basic_streambufIwS1_E
2670       0x00075B00    _ZNSt9basic_iosIwSt11char_traitsIwEE7copyfmtERKS2_
2671       0x00075D00    _ZNSt9basic_iosIwSt11char_traitsIwEE8setstateESt12_Ios_Iostate
2672       0x00075D20    _ZNSt9basic_iosIwSt11char_traitsIwEEC1EPSt15basic_streambufIwS1_E
2673       0x00075DF0    _ZNSt9basic_iosIwSt11char_traitsIwEEC1Ev
2674       0x00075E50    _ZNSt9basic_iosIwSt11char_traitsIwEEC2EPSt15basic_streambufIwS1_E
2675       0x00075F20    _ZNSt9basic_iosIwSt11char_traitsIwEEC2Ev
2676       0x00075F80    _ZNSt9basic_iosIwSt11char_traitsIwEED0Ev
2677       0x00075FB0    _ZNSt9basic_iosIwSt11char_traitsIwEED1Ev
2678       0x00075FD0    _ZNSt9basic_iosIwSt11char_traitsIwEED2Ev
2679       0x00075FF0    _ZNSt9exceptionD0Ev
2680       0x00076010    _ZNSt9exceptionD1Ev
2681       0x00076010    _ZNSt9exceptionD2Ev
2682       0x0008CF50    _ZNSt9money_getIcSt19istreambuf_iteratorIcSt11char_traitsIcEEE2idE
2683       0x00076020    _ZNSt9money_getIcSt19istreambuf_iteratorIcSt11char_traitsIcEEEC1Ej
2684       0x00076040    _ZNSt9money_getIcSt19istreambuf_iteratorIcSt11char_traitsIcEEEC2Ej
2685       0x00076060    _ZNSt9money_getIcSt19istreambuf_iteratorIcSt11char_traitsIcEEED0Ev
2686       0x00076090    _ZNSt9money_getIcSt19istreambuf_iteratorIcSt11char_traitsIcEEED1Ev
2687       0x000760B0    _ZNSt9money_getIcSt19istreambuf_iteratorIcSt11char_traitsIcEEED2Ev
2688       0x0008CF54    _ZNSt9money_getIwSt19istreambuf_iteratorIwSt11char_traitsIwEEE2idE
2689       0x000760D0    _ZNSt9money_getIwSt19istreambuf_iteratorIwSt11char_traitsIwEEEC1Ej
2690       0x000760F0    _ZNSt9money_getIwSt19istreambuf_iteratorIwSt11char_traitsIwEEEC2Ej
2691       0x00076110    _ZNSt9money_getIwSt19istreambuf_iteratorIwSt11char_traitsIwEEED0Ev
2692       0x00076140    _ZNSt9money_getIwSt19istreambuf_iteratorIwSt11char_traitsIwEEED1Ev
2693       0x00076160    _ZNSt9money_getIwSt19istreambuf_iteratorIwSt11char_traitsIwEEED2Ev
2694       0x0008CF58    _ZNSt9money_putIcSt19ostreambuf_iteratorIcSt11char_traitsIcEEE2idE
2695       0x00076180    _ZNSt9money_putIcSt19ostreambuf_iteratorIcSt11char_traitsIcEEEC1Ej
2696       0x000761A0    _ZNSt9money_putIcSt19ostreambuf_iteratorIcSt11char_traitsIcEEEC2Ej
2697       0x000761C0    _ZNSt9money_putIcSt19ostreambuf_iteratorIcSt11char_traitsIcEEED0Ev
2698       0x000761F0    _ZNSt9money_putIcSt19ostreambuf_iteratorIcSt11char_traitsIcEEED1Ev
2699       0x00076210    _ZNSt9money_putIcSt19ostreambuf_iteratorIcSt11char_traitsIcEEED2Ev
2700       0x0008CF5C    _ZNSt9money_putIwSt19ostreambuf_iteratorIwSt11char_traitsIwEEE2idE
2701       0x00076230    _ZNSt9money_putIwSt19ostreambuf_iteratorIwSt11char_traitsIwEEEC1Ej
2702       0x00076250    _ZNSt9money_putIwSt19ostreambuf_iteratorIwSt11char_traitsIwEEEC2Ej
2703       0x00076270    _ZNSt9money_putIwSt19ostreambuf_iteratorIwSt11char_traitsIwEEED0Ev
2704       0x000762A0    _ZNSt9money_putIwSt19ostreambuf_iteratorIwSt11char_traitsIwEEED1Ev
2705       0x000762C0    _ZNSt9money_putIwSt19ostreambuf_iteratorIwSt11char_traitsIwEEED2Ev
2706       0x000762E0    _ZNSt9strstream3strEv
2707       0x00076300    _ZNSt9strstream6freezeEb
2708       0x00076330    _ZNSt9strstreamC1EPciSt13_Ios_Openmode
2709       0x00076520    _ZNSt9strstreamC1Ev
2710       0x00076710    _ZNSt9strstreamC2EPciSt13_Ios_Openmode
2711       0x000768D0    _ZNSt9strstreamC2Ev
2712       0x00076A80    _ZNSt9strstreamD0Ev
2713       0x00076AA0    _ZNSt9strstreamD1Ev
2714       0x00076B90    _ZNSt9strstreamD2Ev
2715       0x00076C80    _ZNSt9type_infoD0Ev
2716       0x00076CA0    _ZNSt9type_infoD1Ev
2717       0x00076CA0    _ZNSt9type_infoD2Ev
2718       0x00076CB0    _ZSt10unexpectedv
2719       0x00076CD0    _ZSt11_Hash_bytesPKvjj
2720       0x00077080    _ZSt13set_terminatePFvvE
2721       0x00077400    _ZSt14__convert_to_vIdEvPKcRT_RSt12_Ios_IostateRKPi
2722       0x00077570    _ZSt14__convert_to_vIeEvPKcRT_RSt12_Ios_IostateRKPi
2723       0x00077700    _ZSt14__convert_to_vIfEvPKcRT_RSt12_Ios_IostateRKPi
2724       0x00077870    _ZSt14set_unexpectedPFvvE
2725       0x00077890    _ZSt15_Fnv_hash_bytesPKvjj
2726       0x00077910    _ZSt15future_categoryv
2727       0x000779D0    _ZSt15set_new_handlerPFvvE
2728       0x000779F0    _ZSt15system_categoryv
2729       0x00077AF0    _ZSt16__ostream_insertIcSt11char_traitsIcEERSt13basic_ostreamIT_T0_ES6_PKS3_i
2730       0x00078050    _ZSt16__ostream_insertIwSt11char_traitsIwEERSt13basic_ostreamIT_T0_ES6_PKS3_i
2731       0x00078590    _ZSt16__throw_bad_castv
2732       0x000785C0    _ZSt16generic_categoryv
2733       0x000785D0    _ZSt17__copy_streambufsIcSt11char_traitsIcEEiPSt15basic_streambufIT_T0_ES6_
2734       0x00078600    _ZSt17__copy_streambufsIwSt11char_traitsIwEEiPSt15basic_streambufIT_T0_ES6_
2735       0x00078750    _ZSt17__throw_bad_allocv
2736       0x00078780    _ZSt17__verify_groupingPKcjRKSs
2737       0x00078810    _ZSt17current_exceptionv
2738       0x00078880    _ZSt17rethrow_exceptionNSt15__exception_ptr13exception_ptrE
2739       0x000788E0    _ZSt18_Rb_tree_decrementPKSt18_Rb_tree_node_base
2740       0x00078900    _ZSt18_Rb_tree_decrementPSt18_Rb_tree_node_base
2741       0x00078950    _ZSt18_Rb_tree_incrementPKSt18_Rb_tree_node_base
2742       0x00078970    _ZSt18_Rb_tree_incrementPSt18_Rb_tree_node_base
2743       0x000789C0    _ZSt18__throw_bad_typeidv
2744       0x000789F0    _ZSt18uncaught_exceptionv
2745       0x00078A10    _ZSt19__throw_ios_failurePKc
2746       0x00078AE0    _ZSt19__throw_logic_errorPKc
2747       0x00078BD0    _ZSt19__throw_range_errorPKc
2748       0x00078CC0    _ZSt19__throw_regex_errorNSt15regex_constants10error_typeE
2749       0x00078D60    _ZSt20_Rb_tree_black_countPKSt18_Rb_tree_node_baseS1_
2750       0x00078D90    _ZSt20_Rb_tree_rotate_leftPSt18_Rb_tree_node_baseRS0_
2751       0x00078DA0    _ZSt20__throw_domain_errorPKc
2752       0x00078E90    _ZSt20__throw_future_errori
2753       0x00078FA0    _ZSt20__throw_length_errorPKc
2754       0x00079090    _ZSt20__throw_out_of_rangePKc
2755       0x00079180    _ZSt20__throw_system_errori
2756       0x00079290    _ZSt21_Rb_tree_rotate_rightPSt18_Rb_tree_node_baseRS0_
2757       0x000792A0    _ZSt21__copy_streambufs_eofIcSt11char_traitsIcEEiPSt15basic_streambufIT_T0_ES6_Rb
2758       0x000793A0    _ZSt21__copy_streambufs_eofIwSt11char_traitsIwEEiPSt15basic_streambufIT_T0_ES6_Rb
2759       0x000794A0    _ZSt21__throw_bad_exceptionv
2760       0x000794D0    _ZSt21__throw_runtime_errorPKc
2761       0x000795C0    _ZSt22__throw_overflow_errorPKc
2762       0x000796B0    _ZSt23__throw_underflow_errorPKc
2763       0x000797A0    _ZSt24__throw_invalid_argumentPKc
2764       0x00079890    _ZSt25__throw_bad_function_callv
2765       0x000798C0    _ZSt28_Rb_tree_rebalance_for_erasePSt18_Rb_tree_node_baseRS_
2766       0x00079BA0    _ZSt29_Rb_tree_insert_and_rebalancebPSt18_Rb_tree_node_baseS0_RS_
2767       0x00079CE0    _ZSt2wsIcSt11char_traitsIcEERSt13basic_istreamIT_T0_ES6_
2768       0x00079E30    _ZSt2wsIwSt11char_traitsIwEERSt13basic_istreamIT_T0_ES6_
2769       0x0008CF60    _ZSt3cin
2770       0x0008D000    _ZSt4cerr
2771       0x0008D0A0    _ZSt4clog
2772       0x0008D140    _ZSt4cout
2773       0x00079FC0    _ZSt4endlIcSt11char_traitsIcEERSt13basic_ostreamIT_T0_ES6_
2774       0x0007A020    _ZSt4endlIwSt11char_traitsIwEERSt13basic_ostreamIT_T0_ES6_
2775       0x0007A070    _ZSt4endsIcSt11char_traitsIcEERSt13basic_ostreamIT_T0_ES6_
2776       0x0007A090    _ZSt4endsIwSt11char_traitsIwEERSt13basic_ostreamIT_T0_ES6_
2777       0x0008D1E0    _ZSt4wcin
2778       0x0007A0B0    _ZSt5flushIcSt11char_traitsIcEERSt13basic_ostreamIT_T0_ES6_
2779       0x0007A0D0    _ZSt5flushIwSt11char_traitsIwEERSt13basic_ostreamIT_T0_ES6_
2780       0x0008D280    _ZSt5wcerr
2781       0x0008D320    _ZSt5wclog
2782       0x0008D3C0    _ZSt5wcout
2783       0x0007A0F0    _ZSt7getlineIcSt11char_traitsIcESaIcEERSt13basic_istreamIT_T0_ES7_RSbIS4_S5_T1_E
2784       0x0007A150    _ZSt7getlineIcSt11char_traitsIcESaIcEERSt13basic_istreamIT_T0_ES7_RSbIS4_S5_T1_ES4_
2785       0x0007A550    _ZSt7getlineIwSt11char_traitsIwESaIwEERSt13basic_istreamIT_T0_ES7_RSbIS4_S5_T1_E
2786       0x0007A5A0    _ZSt7getlineIwSt11char_traitsIwESaIwEERSt13basic_istreamIT_T0_ES7_RSbIS4_S5_T1_ES4_
2787       0x0009357C    _ZSt7nothrow
2788       0x0007A9B0    _ZSt9has_facetISt10moneypunctIcLb0EEEbRKSt6locale
2789       0x0007AA10    _ZSt9has_facetISt10moneypunctIwLb0EEEbRKSt6locale
2790       0x0007AA70    _ZSt9has_facetISt11__timepunctIcEEbRKSt6locale
2791       0x0007AAD0    _ZSt9has_facetISt11__timepunctIwEEbRKSt6locale
2792       0x0007AB30    _ZSt9has_facetISt5ctypeIcEEbRKSt6locale
2793       0x0007AB90    _ZSt9has_facetISt5ctypeIwEEbRKSt6locale
2794       0x0007ABF0    _ZSt9has_facetISt7codecvtIcciEEbRKSt6locale
2795       0x0007AC50    _ZSt9has_facetISt7codecvtIwciEEbRKSt6locale
2796       0x0007ACB0    _ZSt9has_facetISt7collateIcEEbRKSt6locale
2797       0x0007AD10    _ZSt9has_facetISt7collateIwEEbRKSt6locale
2798       0x0007AD70    _ZSt9has_facetISt7num_getIcSt19istreambuf_iteratorIcSt11char_traitsIcEEEEbRKSt6locale
2799       0x0007ADD0    _ZSt9has_facetISt7num_getIwSt19istreambuf_iteratorIwSt11char_traitsIwEEEEbRKSt6locale
2800       0x0007AE30    _ZSt9has_facetISt7num_putIcSt19ostreambuf_iteratorIcSt11char_traitsIcEEEEbRKSt6locale
2801       0x0007AE90    _ZSt9has_facetISt7num_putIwSt19ostreambuf_iteratorIwSt11char_traitsIwEEEEbRKSt6locale
2802       0x0007AEF0    _ZSt9has_facetISt8messagesIcEEbRKSt6locale
2803       0x0007AF50    _ZSt9has_facetISt8messagesIwEEbRKSt6locale
2804       0x0007AFB0    _ZSt9has_facetISt8numpunctIcEEbRKSt6locale
2805       0x0007B010    _ZSt9has_facetISt8numpunctIwEEbRKSt6locale
2806       0x0007B070    _ZSt9has_facetISt8time_getIcSt19istreambuf_iteratorIcSt11char_traitsIcEEEEbRKSt6locale
2807       0x0007B0D0    _ZSt9has_facetISt8time_getIwSt19istreambuf_iteratorIwSt11char_traitsIwEEEEbRKSt6locale
2808       0x0007B130    _ZSt9has_facetISt8time_putIcSt19ostreambuf_iteratorIcSt11char_traitsIcEEEEbRKSt6locale
2809       0x0007B190    _ZSt9has_facetISt8time_putIwSt19ostreambuf_iteratorIwSt11char_traitsIwEEEEbRKSt6locale
2810       0x0007B1F0    _ZSt9has_facetISt9money_getIcSt19istreambuf_iteratorIcSt11char_traitsIcEEEEbRKSt6locale
2811       0x0007B250    _ZSt9has_facetISt9money_getIwSt19istreambuf_iteratorIwSt11char_traitsIwEEEEbRKSt6locale
2812       0x0007B2B0    _ZSt9has_facetISt9money_putIcSt19ostreambuf_iteratorIcSt11char_traitsIcEEEEbRKSt6locale
2813       0x0007B310    _ZSt9has_facetISt9money_putIwSt19ostreambuf_iteratorIwSt11char_traitsIwEEEEbRKSt6locale
2814       0x0007B370    _ZSt9terminatev
2815       0x0007B390    _ZSt9use_facetISt10moneypunctIcLb0EEERKT_RKSt6locale
2816       0x0007B3F0    _ZSt9use_facetISt10moneypunctIcLb1EEERKT_RKSt6locale
2817       0x0007B450    _ZSt9use_facetISt10moneypunctIwLb0EEERKT_RKSt6locale
2818       0x0007B4B0    _ZSt9use_facetISt10moneypunctIwLb1EEERKT_RKSt6locale
2819       0x0007B510    _ZSt9use_facetISt11__timepunctIcEERKT_RKSt6locale
2820       0x0007B570    _ZSt9use_facetISt11__timepunctIwEERKT_RKSt6locale
2821       0x0007B5D0    _ZSt9use_facetISt5ctypeIcEERKT_RKSt6locale
2822       0x0007B630    _ZSt9use_facetISt5ctypeIwEERKT_RKSt6locale
2823       0x0007B690    _ZSt9use_facetISt7codecvtIcciEERKT_RKSt6locale
2824       0x0007B6F0    _ZSt9use_facetISt7codecvtIwciEERKT_RKSt6locale
2825       0x0007B750    _ZSt9use_facetISt7collateIcEERKT_RKSt6locale
2826       0x0007B7B0    _ZSt9use_facetISt7collateIwEERKT_RKSt6locale
2827       0x0007B810    _ZSt9use_facetISt7num_getIcSt19istreambuf_iteratorIcSt11char_traitsIcEEEERKT_RKSt6locale
2828       0x0007B870    _ZSt9use_facetISt7num_getIwSt19istreambuf_iteratorIwSt11char_traitsIwEEEERKT_RKSt6locale
2829       0x0007B8D0    _ZSt9use_facetISt7num_putIcSt19ostreambuf_iteratorIcSt11char_traitsIcEEEERKT_RKSt6locale
2830       0x0007B930    _ZSt9use_facetISt7num_putIwSt19ostreambuf_iteratorIwSt11char_traitsIwEEEERKT_RKSt6locale
2831       0x0007B990    _ZSt9use_facetISt8messagesIcEERKT_RKSt6locale
2832       0x0007B9F0    _ZSt9use_facetISt8messagesIwEERKT_RKSt6locale
2833       0x0007BA50    _ZSt9use_facetISt8numpunctIcEERKT_RKSt6locale
2834       0x0007BAB0    _ZSt9use_facetISt8numpunctIwEERKT_RKSt6locale
2835       0x0007BB10    _ZSt9use_facetISt8time_getIcSt19istreambuf_iteratorIcSt11char_traitsIcEEEERKT_RKSt6locale
2836       0x0007BB70    _ZSt9use_facetISt8time_getIwSt19istreambuf_iteratorIwSt11char_traitsIwEEEERKT_RKSt6locale
2837       0x0007BBD0    _ZSt9use_facetISt8time_putIcSt19ostreambuf_iteratorIcSt11char_traitsIcEEEERKT_RKSt6locale
2838       0x0007BC30    _ZSt9use_facetISt8time_putIwSt19ostreambuf_iteratorIwSt11char_traitsIwEEEERKT_RKSt6locale
2839       0x0007BC90    _ZSt9use_facetISt9money_getIcSt19istreambuf_iteratorIcSt11char_traitsIcEEEERKT_RKSt6locale
2840       0x0007BCF0    _ZSt9use_facetISt9money_getIwSt19istreambuf_iteratorIwSt11char_traitsIwEEEERKT_RKSt6locale
2841       0x0007BD50    _ZSt9use_facetISt9money_putIcSt19ostreambuf_iteratorIcSt11char_traitsIcEEEERKT_RKSt6locale
2842       0x0007BDB0    _ZSt9use_facetISt9money_putIwSt19ostreambuf_iteratorIwSt11char_traitsIwEEEERKT_RKSt6locale
2843       0x0007BEB0    _ZStlsISt11char_traitsIcEERSt13basic_ostreamIcT_ES5_PKa
2844       0x0007BF20    _ZStlsISt11char_traitsIcEERSt13basic_ostreamIcT_ES5_PKc
2845       0x0007BF90    _ZStlsISt11char_traitsIcEERSt13basic_ostreamIcT_ES5_PKh
2846       0x0007C000    _ZStlsISt11char_traitsIcEERSt13basic_ostreamIcT_ES5_a
2847       0x0007C030    _ZStlsISt11char_traitsIcEERSt13basic_ostreamIcT_ES5_c
2848       0x0007C060    _ZStlsISt11char_traitsIcEERSt13basic_ostreamIcT_ES5_h
2849       0x0007C090    _ZStlsIcSt11char_traitsIcEERSt13basic_ostreamIT_T0_ES6_St12_Setiosflags
2850       0x0007C0B0    _ZStlsIcSt11char_traitsIcEERSt13basic_ostreamIT_T0_ES6_St13_Setprecision
2851       0x0007C0D0    _ZStlsIcSt11char_traitsIcEERSt13basic_ostreamIT_T0_ES6_St14_Resetiosflags
2852       0x0007C0F0    _ZStlsIcSt11char_traitsIcEERSt13basic_ostreamIT_T0_ES6_St5_Setw
2853       0x0007C110    _ZStlsIcSt11char_traitsIcEERSt13basic_ostreamIT_T0_ES6_St8_Setbase
2854       0x0007C150    _ZStlsIcSt11char_traitsIcEERSt13basic_ostreamIT_T0_ES6_St8_SetfillIS3_E
2855       0x0007C1C0    _ZStlsIcSt11char_traitsIcESaIcEERSt13basic_ostreamIT_T0_ES7_RKSbIS4_S5_T1_E
2856       0x0007C1F0    _ZStlsIdcSt11char_traitsIcEERSt13basic_ostreamIT0_T1_ES6_RKSt7complexIT_E
2857       0x0007C890    _ZStlsIdwSt11char_traitsIwEERSt13basic_ostreamIT0_T1_ES6_RKSt7complexIT_E
2858       0x0007D000    _ZStlsIecSt11char_traitsIcEERSt13basic_ostreamIT0_T1_ES6_RKSt7complexIT_E
2859       0x0007D6A0    _ZStlsIewSt11char_traitsIwEERSt13basic_ostreamIT0_T1_ES6_RKSt7complexIT_E
2860       0x0007DE10    _ZStlsIfcSt11char_traitsIcEERSt13basic_ostreamIT0_T1_ES6_RKSt7complexIT_E
2861       0x0007E4B0    _ZStlsIfwSt11char_traitsIwEERSt13basic_ostreamIT0_T1_ES6_RKSt7complexIT_E
2862       0x0007EC20    _ZStlsIwSt11char_traitsIwEERSt13basic_ostreamIT_T0_ES6_PKS3_
2863       0x0007EC90    _ZStlsIwSt11char_traitsIwEERSt13basic_ostreamIT_T0_ES6_PKc
2864       0x0007EEF0    _ZStlsIwSt11char_traitsIwEERSt13basic_ostreamIT_T0_ES6_S3_
2865       0x0007EF20    _ZStlsIwSt11char_traitsIwEERSt13basic_ostreamIT_T0_ES6_St12_Setiosflags
2866       0x0007EF40    _ZStlsIwSt11char_traitsIwEERSt13basic_ostreamIT_T0_ES6_St13_Setprecision
2867       0x0007EF60    _ZStlsIwSt11char_traitsIwEERSt13basic_ostreamIT_T0_ES6_St14_Resetiosflags
2868       0x0007EF80    _ZStlsIwSt11char_traitsIwEERSt13basic_ostreamIT_T0_ES6_St5_Setw
2869       0x0007EFA0    _ZStlsIwSt11char_traitsIwEERSt13basic_ostreamIT_T0_ES6_St8_Setbase
2870       0x0007EFE0    _ZStlsIwSt11char_traitsIwEERSt13basic_ostreamIT_T0_ES6_St8_SetfillIS3_E
2871       0x0007F040    _ZStlsIwSt11char_traitsIwEERSt13basic_ostreamIT_T0_ES6_c
2872       0x0007F090    _ZStlsIwSt11char_traitsIwESaIwEERSt13basic_ostreamIT_T0_ES7_RKSbIS4_S5_T1_E
2873       0x0007F0C0    _ZStplIcSt11char_traitsIcESaIcEESbIT_T0_T1_EPKS3_RKS6_
2874       0x0007F190    _ZStplIcSt11char_traitsIcESaIcEESbIT_T0_T1_ERKS6_S8_
2875       0x0007F230    _ZStplIcSt11char_traitsIcESaIcEESbIT_T0_T1_ES3_RKS6_
2876       0x0007F300    _ZStplIwSt11char_traitsIwESaIwEESbIT_T0_T1_EPKS3_RKS6_
2877       0x0007F3D0    _ZStplIwSt11char_traitsIwESaIwEESbIT_T0_T1_ERKS6_S8_
2878       0x0007F470    _ZStplIwSt11char_traitsIwESaIwEESbIT_T0_T1_ES3_RKS6_
2879       0x0007F540    _ZStrsISt11char_traitsIcEERSt13basic_istreamIcT_ES5_Pa
2880       0x0007F560    _ZStrsISt11char_traitsIcEERSt13basic_istreamIcT_ES5_Ph
2881       0x0007F580    _ZStrsISt11char_traitsIcEERSt13basic_istreamIcT_ES5_Ra
2882       0x0007F5A0    _ZStrsISt11char_traitsIcEERSt13basic_istreamIcT_ES5_Rh
2883       0x0007F5C0    _ZStrsIcSt11char_traitsIcEERSt13basic_istreamIT_T0_ES6_PS3_
2884       0x0007F970    _ZStrsIcSt11char_traitsIcEERSt13basic_istreamIT_T0_ES6_RS3_
2885       0x0007FB20    _ZStrsIcSt11char_traitsIcEERSt13basic_istreamIT_T0_ES6_St12_Setiosflags
2886       0x0007FB40    _ZStrsIcSt11char_traitsIcEERSt13basic_istreamIT_T0_ES6_St13_Setprecision
2887       0x0007FB60    _ZStrsIcSt11char_traitsIcEERSt13basic_istreamIT_T0_ES6_St14_Resetiosflags
2888       0x0007FB80    _ZStrsIcSt11char_traitsIcEERSt13basic_istreamIT_T0_ES6_St5_Setw
2889       0x0007FBA0    _ZStrsIcSt11char_traitsIcEERSt13basic_istreamIT_T0_ES6_St8_Setbase
2890       0x0007FBE0    _ZStrsIcSt11char_traitsIcEERSt13basic_istreamIT_T0_ES6_St8_SetfillIS3_E
2891       0x0007FC50    _ZStrsIcSt11char_traitsIcESaIcEERSt13basic_istreamIT_T0_ES7_RSbIS4_S5_T1_E
2892       0x00080070    _ZStrsIdcSt11char_traitsIcEERSt13basic_istreamIT0_T1_ES6_RSt7complexIT_E
2893       0x00080160    _ZStrsIdwSt11char_traitsIwEERSt13basic_istreamIT0_T1_ES6_RSt7complexIT_E
2894       0x00080250    _ZStrsIecSt11char_traitsIcEERSt13basic_istreamIT0_T1_ES6_RSt7complexIT_E
2895       0x00080370    _ZStrsIewSt11char_traitsIwEERSt13basic_istreamIT0_T1_ES6_RSt7complexIT_E
2896       0x00080490    _ZStrsIfcSt11char_traitsIcEERSt13basic_istreamIT0_T1_ES6_RSt7complexIT_E
2897       0x00080580    _ZStrsIfwSt11char_traitsIwEERSt13basic_istreamIT0_T1_ES6_RSt7complexIT_E
2898       0x00080680    _ZStrsIwSt11char_traitsIwEERSt13basic_istreamIT_T0_ES6_PS3_
2899       0x000809B0    _ZStrsIwSt11char_traitsIwEERSt13basic_istreamIT_T0_ES6_RS3_
2900       0x00080B60    _ZStrsIwSt11char_traitsIwEERSt13basic_istreamIT_T0_ES6_St12_Setiosflags
2901       0x00080B80    _ZStrsIwSt11char_traitsIwEERSt13basic_istreamIT_T0_ES6_St13_Setprecision
2902       0x00080BA0    _ZStrsIwSt11char_traitsIwEERSt13basic_istreamIT_T0_ES6_St14_Resetiosflags
2903       0x00080BC0    _ZStrsIwSt11char_traitsIwEERSt13basic_istreamIT_T0_ES6_St5_Setw
2904       0x00080BE0    _ZStrsIwSt11char_traitsIwEERSt13basic_istreamIT_T0_ES6_St8_Setbase
2905       0x00080C20    _ZStrsIwSt11char_traitsIwEERSt13basic_istreamIT_T0_ES6_St8_SetfillIS3_E
2906       0x00080C80    _ZStrsIwSt11char_traitsIwESaIwEERSt13basic_istreamIT_T0_ES7_RSbIS4_S5_T1_E
2907       0x00093CC0    _ZTIDd
2908       0x00093CC8    _ZTIDe
2909       0x00093CD0    _ZTIDf
2910       0x00093CD8    _ZTIDi
2911       0x00093CE0    _ZTIDn
2912       0x00093CE8    _ZTIDs
2913       0x00093CF0    _ZTIN10__cxxabiv115__forced_unwindE
2914       0x00093CF8    _ZTIN10__cxxabiv116__enum_type_infoE
2915       0x00093D04    _ZTIN10__cxxabiv117__array_type_infoE
2916       0x00093D10    _ZTIN10__cxxabiv117__class_type_infoE
2917       0x00093D1C    _ZTIN10__cxxabiv117__pbase_type_infoE
2918       0x00093D28    _ZTIN10__cxxabiv119__foreign_exceptionE
2919       0x00093D30    _ZTIN10__cxxabiv119__pointer_type_infoE
2920       0x00093D3C    _ZTIN10__cxxabiv120__function_type_infoE
2921       0x00093D48    _ZTIN10__cxxabiv120__si_class_type_infoE
2922       0x00093D54    _ZTIN10__cxxabiv121__vmi_class_type_infoE
2923       0x00093D60    _ZTIN10__cxxabiv123__fundamental_type_infoE
2924       0x00093D6C    _ZTIN10__cxxabiv129__pointer_to_member_type_infoE
2925       0x00093D9C    _ZTIN9__gnu_cxx13stdio_filebufIcSt11char_traitsIcEEE
2926       0x00093DA8    _ZTIN9__gnu_cxx13stdio_filebufIwSt11char_traitsIwEEE
2927       0x00093DB4    _ZTIN9__gnu_cxx18stdio_sync_filebufIcSt11char_traitsIcEEE
2928       0x00093DC0    _ZTIN9__gnu_cxx18stdio_sync_filebufIwSt11char_traitsIwEEE
2929       0x00093DF0    _ZTINSt6locale5facetE
2930       0x00093DF8    _ZTINSt8ios_base7failureE
2931       0x00093E04    _ZTIPDd
2932       0x00093E14    _ZTIPDe
2933       0x00093E24    _ZTIPDf
2934       0x00093E34    _ZTIPDi
2935       0x00093E44    _ZTIPDn
2936       0x00093E54    _ZTIPDs
2937       0x00093E64    _ZTIPKDd
2938       0x00093E74    _ZTIPKDe
2939       0x00093E84    _ZTIPKDf
2940       0x00093E94    _ZTIPKDi
2941       0x00093EA4    _ZTIPKDn
2942       0x00093EB4    _ZTIPKDs
2943       0x00093EC4    _ZTIPKa
2944       0x00093ED4    _ZTIPKb
2945       0x00093EE4    _ZTIPKc
2946       0x00093EF4    _ZTIPKd
2947       0x00093F04    _ZTIPKe
2948       0x00093F14    _ZTIPKf
2949       0x00093F24    _ZTIPKh
2950       0x00093F34    _ZTIPKi
2951       0x00093F44    _ZTIPKj
2952       0x00093F54    _ZTIPKl
2953       0x00093F64    _ZTIPKm
2954       0x00093F74    _ZTIPKs
2955       0x00093F84    _ZTIPKt
2956       0x00093F94    _ZTIPKv
2957       0x00093FA4    _ZTIPKw
2958       0x00093FB4    _ZTIPKx
2959       0x00093FC4    _ZTIPKy
2960       0x00093FD4    _ZTIPa
2961       0x00093FE4    _ZTIPb
2962       0x00093FF4    _ZTIPc
2963       0x00094004    _ZTIPd
2964       0x00094014    _ZTIPe
2965       0x00094024    _ZTIPf
2966       0x00094034    _ZTIPh
2967       0x00094044    _ZTIPi
2968       0x00094054    _ZTIPj
2969       0x00094064    _ZTIPl
2970       0x00094074    _ZTIPm
2971       0x00094084    _ZTIPs
2972       0x00094094    _ZTIPt
2973       0x000940A4    _ZTIPv
2974       0x000940B4    _ZTIPw
2975       0x000940C4    _ZTIPx
2976       0x000940D4    _ZTIPy
2977       0x00094100    _ZTISd
2978       0x00094120    _ZTISi
2979       0x00094138    _ZTISo
2980       0x00094150    _ZTISt10bad_typeid
2981       0x0009415C    _ZTISt10ctype_base
2982       0x00094164    _ZTISt10istrstream
2983       0x00094170    _ZTISt10money_base
2984       0x00094180    _ZTISt10moneypunctIcLb0EE
2985       0x000941A0    _ZTISt10moneypunctIcLb1EE
2986       0x000941C0    _ZTISt10moneypunctIwLb0EE
2987       0x000941E0    _ZTISt10moneypunctIwLb1EE
2988       0x00094200    _ZTISt10ostrstream
2989       0x0009420C    _ZTISt11__timepunctIcE
2990       0x00094218    _ZTISt11__timepunctIwE
2991       0x00094224    _ZTISt11logic_error
2992       0x00094230    _ZTISt11range_error
2993       0x0009423C    _ZTISt11regex_error
2994       0x00094248    _ZTISt12bad_weak_ptr
2995       0x00094254    _ZTISt12codecvt_base
2996       0x0009425C    _ZTISt12ctype_bynameIcE
2997       0x00094268    _ZTISt12ctype_bynameIwE
2998       0x00094274    _ZTISt12domain_error
2999       0x00094280    _ZTISt12future_error
3000       0x0009428C    _ZTISt12length_error
3001       0x00094298    _ZTISt12out_of_range
3002       0x000942A4    _ZTISt12strstreambuf
3003       0x000942B0    _ZTISt12system_error
3004       0x000942BC    _ZTISt13bad_exception
3005       0x000942C8    _ZTISt13basic_filebufIcSt11char_traitsIcEE
3006       0x000942D4    _ZTISt13basic_filebufIwSt11char_traitsIwEE
3007       0x000942E0    _ZTISt13basic_fstreamIcSt11char_traitsIcEE
3008       0x000942EC    _ZTISt13basic_fstreamIwSt11char_traitsIwEE
3009       0x000942F8    _ZTISt13basic_istreamIwSt11char_traitsIwEE
3010       0x00094310    _ZTISt13basic_ostreamIwSt11char_traitsIwEE
3011       0x00094328    _ZTISt13messages_base
3012       0x00094330    _ZTISt13runtime_error
3013       0x0009433C    _ZTISt14basic_ifstreamIcSt11char_traitsIcEE
3014       0x00094348    _ZTISt14basic_ifstreamIwSt11char_traitsIwEE
3015       0x00094360    _ZTISt14basic_iostreamIwSt11char_traitsIwEE
3016       0x00094380    _ZTISt14basic_ofstreamIcSt11char_traitsIcEE
3017       0x0009438C    _ZTISt14basic_ofstreamIwSt11char_traitsIwEE
3018       0x00094398    _ZTISt14codecvt_bynameIcciE
3019       0x000943A4    _ZTISt14codecvt_bynameIwciE
3020       0x000943B0    _ZTISt14collate_bynameIcE
3021       0x000943BC    _ZTISt14collate_bynameIwE
3022       0x000943C8    _ZTISt14error_category
3023       0x000943D0    _ZTISt14overflow_error
3024       0x000943DC    _ZTISt15basic_streambufIcSt11char_traitsIcEE
3025       0x000943E4    _ZTISt15basic_streambufIwSt11char_traitsIwEE
3026       0x000943EC    _ZTISt15basic_stringbufIcSt11char_traitsIcESaIcEE
3027       0x000943F8    _ZTISt15basic_stringbufIwSt11char_traitsIwESaIwEE
3028       0x00094404    _ZTISt15messages_bynameIcE
3029       0x00094410    _ZTISt15messages_bynameIwE
3030       0x0009441C    _ZTISt15numpunct_bynameIcE
3031       0x00094428    _ZTISt15numpunct_bynameIwE
3032       0x00094434    _ZTISt15time_get_bynameIcSt19istreambuf_iteratorIcSt11char_traitsIcEEE
3033       0x00094440    _ZTISt15time_get_bynameIwSt19istreambuf_iteratorIwSt11char_traitsIwEEE
3034       0x0009444C    _ZTISt15time_put_bynameIcSt19ostreambuf_iteratorIcSt11char_traitsIcEEE
3035       0x00094458    _ZTISt15time_put_bynameIwSt19ostreambuf_iteratorIwSt11char_traitsIwEEE
3036       0x00094464    _ZTISt15underflow_error
3037       0x00094488    _ZTISt16invalid_argument
3038       0x00094494    _ZTISt16nested_exception
3039       0x000944B4    _ZTISt17bad_function_call
3040       0x000944C0    _ZTISt17moneypunct_bynameIcLb0EE
3041       0x000944CC    _ZTISt17moneypunct_bynameIcLb1EE
3042       0x000944D8    _ZTISt17moneypunct_bynameIwLb0EE
3043       0x000944E4    _ZTISt17moneypunct_bynameIwLb1EE
3044       0x00094520    _ZTISt18basic_stringstreamIcSt11char_traitsIcESaIcEE
3045       0x0009452C    _ZTISt18basic_stringstreamIwSt11char_traitsIwESaIwEE
3046       0x00094538    _ZTISt19basic_istringstreamIcSt11char_traitsIcESaIcEE
3047       0x00094544    _ZTISt19basic_istringstreamIwSt11char_traitsIwESaIwEE
3048       0x00094550    _ZTISt19basic_ostringstreamIcSt11char_traitsIcESaIcEE
3049       0x0009455C    _ZTISt19basic_ostringstreamIwSt11char_traitsIwESaIwEE
3050       0x00094580    _ZTISt21__ctype_abstract_baseIcE
3051       0x000945A0    _ZTISt21__ctype_abstract_baseIwE
3052       0x00094600    _ZTISt5ctypeIcE
3053       0x00094620    _ZTISt5ctypeIwE
3054       0x0009462C    _ZTISt7codecvtIcciE
3055       0x00094638    _ZTISt7codecvtIwciE
3056       0x00094644    _ZTISt7collateIcE
3057       0x00094650    _ZTISt7collateIwE
3058       0x0009465C    _ZTISt7num_getIcSt19istreambuf_iteratorIcSt11char_traitsIcEEE
3059       0x00094668    _ZTISt7num_getIwSt19istreambuf_iteratorIwSt11char_traitsIwEEE
3060       0x00094674    _ZTISt7num_putIcSt19ostreambuf_iteratorIcSt11char_traitsIcEEE
3061       0x00094680    _ZTISt7num_putIwSt19ostreambuf_iteratorIwSt11char_traitsIwEEE
3062       0x0009468C    _ZTISt8bad_cast
3063       0x00094698    _ZTISt8ios_base
3064       0x000946A0    _ZTISt8messagesIcE
3065       0x000946C0    _ZTISt8messagesIwE
3066       0x000946E0    _ZTISt8numpunctIcE
3067       0x000946EC    _ZTISt8numpunctIwE
3068       0x00094700    _ZTISt8time_getIcSt19istreambuf_iteratorIcSt11char_traitsIcEEE
3069       0x00094720    _ZTISt8time_getIwSt19istreambuf_iteratorIwSt11char_traitsIwEEE
3070       0x00094740    _ZTISt8time_putIcSt19ostreambuf_iteratorIcSt11char_traitsIcEEE
3071       0x0009474C    _ZTISt8time_putIwSt19ostreambuf_iteratorIwSt11char_traitsIwEEE
3072       0x00094758    _ZTISt9bad_alloc
3073       0x00094764    _ZTISt9basic_iosIcSt11char_traitsIcEE
3074       0x00094770    _ZTISt9basic_iosIwSt11char_traitsIwEE
3075       0x0009477C    _ZTISt9exception
3076       0x00094784    _ZTISt9money_getIcSt19istreambuf_iteratorIcSt11char_traitsIcEEE
3077       0x00094790    _ZTISt9money_getIwSt19istreambuf_iteratorIwSt11char_traitsIwEEE
3078       0x0009479C    _ZTISt9money_putIcSt19ostreambuf_iteratorIcSt11char_traitsIcEEE
3079       0x000947A8    _ZTISt9money_putIwSt19ostreambuf_iteratorIwSt11char_traitsIwEEE
3080       0x000947B4    _ZTISt9strstream
3081       0x000947C0    _ZTISt9time_base
3082       0x000947C8    _ZTISt9type_info
3083       0x000947D0    _ZTIa
3084       0x000947D8    _ZTIb
3085       0x000947E0    _ZTIc
3086       0x000947E8    _ZTId
3087       0x000947F0    _ZTIe
3088       0x000947F8    _ZTIf
3089       0x00094800    _ZTIh
3090       0x00094808    _ZTIi
3091       0x00094810    _ZTIj
3092       0x00094818    _ZTIl
3093       0x00094820    _ZTIm
3094       0x00094828    _ZTIs
3095       0x00094830    _ZTIt
3096       0x00094838    _ZTIv
3097       0x00094840    _ZTIw
3098       0x00094848    _ZTIx
3099       0x00094850    _ZTIy
3100       0x000948A0    _ZTSN10__cxxabiv116__enum_type_infoE
3101       0x000948E0    _ZTSN10__cxxabiv117__array_type_infoE
3102       0x00094920    _ZTSN10__cxxabiv117__class_type_infoE
3103       0x00094960    _ZTSN10__cxxabiv117__pbase_type_infoE
3104       0x000949E0    _ZTSN10__cxxabiv119__pointer_type_infoE
3105       0x00094A20    _ZTSN10__cxxabiv120__function_type_infoE
3106       0x00094A60    _ZTSN10__cxxabiv120__si_class_type_infoE
3107       0x00094AA0    _ZTSN10__cxxabiv121__vmi_class_type_infoE
3108       0x00094AE0    _ZTSN10__cxxabiv123__fundamental_type_infoE
3109       0x00094B20    _ZTSN10__cxxabiv129__pointer_to_member_type_infoE
3110       0x00094C20    _ZTSN9__gnu_cxx13stdio_filebufIcSt11char_traitsIcEEE
3111       0x00094C60    _ZTSN9__gnu_cxx13stdio_filebufIwSt11char_traitsIwEEE
3112       0x00094CA0    _ZTSN9__gnu_cxx18stdio_sync_filebufIcSt11char_traitsIcEEE
3113       0x00094CE0    _ZTSN9__gnu_cxx18stdio_sync_filebufIwSt11char_traitsIwEEE
3114       0x00094DE0    _ZTSNSt6locale5facetE
3115       0x00094DF4    _ZTSNSt8ios_base7failureE
3116       0x00094E54    _ZTSPKa
3117       0x00094E58    _ZTSPKb
3118       0x00094E5C    _ZTSPKc
3119       0x00094E60    _ZTSPKd
3120       0x00094E64    _ZTSPKe
3121       0x00094E68    _ZTSPKf
3122       0x00094E6C    _ZTSPKh
3123       0x00094E70    _ZTSPKi
3124       0x00094E74    _ZTSPKj
3125       0x00094E78    _ZTSPKl
3126       0x00094E7C    _ZTSPKm
3127       0x00094E80    _ZTSPKs
3128       0x00094E84    _ZTSPKt
3129       0x00094E88    _ZTSPKv
3130       0x00094E8C    _ZTSPKw
3131       0x00094E90    _ZTSPKx
3132       0x00094E94    _ZTSPKy
3133       0x00094E98    _ZTSPa
3134       0x00094E9C    _ZTSPb
3135       0x00094EA0    _ZTSPc
3136       0x00094EA4    _ZTSPd
3137       0x00094EA8    _ZTSPe
3138       0x00094EAC    _ZTSPf
3139       0x00094EB0    _ZTSPh
3140       0x00094EB4    _ZTSPi
3141       0x00094EB8    _ZTSPj
3142       0x00094EBC    _ZTSPl
3143       0x00094EC0    _ZTSPm
3144       0x00094EC4    _ZTSPs
3145       0x00094EC8    _ZTSPt
3146       0x00094ECC    _ZTSPv
3147       0x00094ED0    _ZTSPw
3148       0x00094ED4    _ZTSPx
3149       0x00094ED8    _ZTSPy
3150       0x00094EDC    _ZTSSd
3151       0x00094EE0    _ZTSSi
3152       0x00094EE4    _ZTSSo
3153       0x00094EE8    _ZTSSt10bad_typeid
3154       0x00094EF8    _ZTSSt10ctype_base
3155       0x00094F08    _ZTSSt10istrstream
3156       0x00094F18    _ZTSSt10money_base
3157       0x00094F28    _ZTSSt10moneypunctIcLb0EE
3158       0x00094F40    _ZTSSt10moneypunctIcLb1EE
3159       0x00094F58    _ZTSSt10moneypunctIwLb0EE
3160       0x00094F70    _ZTSSt10moneypunctIwLb1EE
3161       0x00094F88    _ZTSSt10ostrstream
3162       0x00094F98    _ZTSSt11__timepunctIcE
3163       0x00094FAC    _ZTSSt11__timepunctIwE
3164       0x00094FC0    _ZTSSt11logic_error
3165       0x00094FD0    _ZTSSt11range_error
3166       0x00095004    _ZTSSt12codecvt_base
3167       0x00095018    _ZTSSt12ctype_bynameIcE
3168       0x0009502C    _ZTSSt12ctype_bynameIwE
3169       0x00095040    _ZTSSt12domain_error
3170       0x00095054    _ZTSSt12future_error
3171       0x00095068    _ZTSSt12length_error
3172       0x0009507C    _ZTSSt12out_of_range
3173       0x00095090    _ZTSSt12strstreambuf
3174       0x000950A4    _ZTSSt12system_error
3175       0x000950B8    _ZTSSt13bad_exception
3176       0x000950E0    _ZTSSt13basic_filebufIcSt11char_traitsIcEE
3177       0x00095120    _ZTSSt13basic_filebufIwSt11char_traitsIwEE
3178       0x00095160    _ZTSSt13basic_fstreamIcSt11char_traitsIcEE
3179       0x000951A0    _ZTSSt13basic_fstreamIwSt11char_traitsIwEE
3180       0x000951E0    _ZTSSt13basic_istreamIwSt11char_traitsIwEE
3181       0x00095220    _ZTSSt13basic_ostreamIwSt11char_traitsIwEE
3182       0x00095260    _ZTSSt13messages_base
3183       0x00095274    _ZTSSt13runtime_error
3184       0x000952A0    _ZTSSt14basic_ifstreamIcSt11char_traitsIcEE
3185       0x000952E0    _ZTSSt14basic_ifstreamIwSt11char_traitsIwEE
3186       0x00095320    _ZTSSt14basic_iostreamIwSt11char_traitsIwEE
3187       0x00095360    _ZTSSt14basic_ofstreamIcSt11char_traitsIcEE
3188       0x000953A0    _ZTSSt14basic_ofstreamIwSt11char_traitsIwEE
3189       0x000953E0    _ZTSSt14codecvt_bynameIcciE
3190       0x000953F8    _ZTSSt14codecvt_bynameIwciE
3191       0x00095410    _ZTSSt14collate_bynameIcE
3192       0x00095428    _ZTSSt14collate_bynameIwE
3193       0x00095440    _ZTSSt14error_category
3194       0x00095454    _ZTSSt14overflow_error
3195       0x00095480    _ZTSSt15basic_streambufIcSt11char_traitsIcEE
3196       0x000954C0    _ZTSSt15basic_streambufIwSt11char_traitsIwEE
3197       0x00095500    _ZTSSt15basic_stringbufIcSt11char_traitsIcESaIcEE
3198       0x00095540    _ZTSSt15basic_stringbufIwSt11char_traitsIwESaIwEE
3199       0x00095580    _ZTSSt15messages_bynameIcE
3200       0x00095598    _ZTSSt15messages_bynameIwE
3201       0x000955B0    _ZTSSt15numpunct_bynameIcE
3202       0x000955C8    _ZTSSt15numpunct_bynameIwE
3203       0x000955E0    _ZTSSt15time_get_bynameIcSt19istreambuf_iteratorIcSt11char_traitsIcEEE
3204       0x00095640    _ZTSSt15time_get_bynameIwSt19istreambuf_iteratorIwSt11char_traitsIwEEE
3205       0x000956A0    _ZTSSt15time_put_bynameIcSt19ostreambuf_iteratorIcSt11char_traitsIcEEE
3206       0x00095700    _ZTSSt15time_put_bynameIwSt19ostreambuf_iteratorIwSt11char_traitsIwEEE
3207       0x00095760    _ZTSSt15underflow_error
3208       0x000957A4    _ZTSSt16invalid_argument
3209       0x00095824    _ZTSSt17moneypunct_bynameIcLb0EE
3210       0x00095844    _ZTSSt17moneypunct_bynameIcLb1EE
3211       0x00095864    _ZTSSt17moneypunct_bynameIwLb0EE
3212       0x00095884    _ZTSSt17moneypunct_bynameIwLb1EE
3213       0x00095940    _ZTSSt18basic_stringstreamIcSt11char_traitsIcESaIcEE
3214       0x00095980    _ZTSSt18basic_stringstreamIwSt11char_traitsIwESaIwEE
3215       0x000959C0    _ZTSSt19basic_istringstreamIcSt11char_traitsIcESaIcEE
3216       0x00095A00    _ZTSSt19basic_istringstreamIwSt11char_traitsIwESaIwEE
3217       0x00095A40    _ZTSSt19basic_ostringstreamIcSt11char_traitsIcESaIcEE
3218       0x00095A80    _ZTSSt19basic_ostringstreamIwSt11char_traitsIwESaIwEE
3219       0x00095AC0    _ZTSSt21__ctype_abstract_baseIcE
3220       0x00095AE0    _ZTSSt21__ctype_abstract_baseIwE
3221       0x00095B80    _ZTSSt5ctypeIcE
3222       0x00095B8C    _ZTSSt5ctypeIwE
3223       0x00095B98    _ZTSSt7codecvtIcciE
3224       0x00095BA8    _ZTSSt7codecvtIwciE
3225       0x00095BB8    _ZTSSt7collateIcE
3226       0x00095BC8    _ZTSSt7collateIwE
3227       0x00095BE0    _ZTSSt7num_getIcSt19istreambuf_iteratorIcSt11char_traitsIcEEE
3228       0x00095C20    _ZTSSt7num_getIwSt19istreambuf_iteratorIwSt11char_traitsIwEEE
3229       0x00095C60    _ZTSSt7num_putIcSt19ostreambuf_iteratorIcSt11char_traitsIcEEE
3230       0x00095CA0    _ZTSSt7num_putIwSt19ostreambuf_iteratorIwSt11char_traitsIwEEE
3231       0x00095CE0    _ZTSSt8bad_cast
3232       0x00095CEC    _ZTSSt8ios_base
3233       0x00095CF8    _ZTSSt8messagesIcE
3234       0x00095D08    _ZTSSt8messagesIwE
3235       0x00095D18    _ZTSSt8numpunctIcE
3236       0x00095D28    _ZTSSt8numpunctIwE
3237       0x00095D40    _ZTSSt8time_getIcSt19istreambuf_iteratorIcSt11char_traitsIcEEE
3238       0x00095D80    _ZTSSt8time_getIwSt19istreambuf_iteratorIwSt11char_traitsIwEEE
3239       0x00095DC0    _ZTSSt8time_putIcSt19ostreambuf_iteratorIcSt11char_traitsIcEEE
3240       0x00095E00    _ZTSSt8time_putIwSt19ostreambuf_iteratorIwSt11char_traitsIwEEE
3241       0x00095E40    _ZTSSt9bad_alloc
3242       0x00095E60    _ZTSSt9basic_iosIcSt11char_traitsIcEE
3243       0x00095EA0    _ZTSSt9basic_iosIwSt11char_traitsIwEE
3244       0x00095EE0    _ZTSSt9exception
3245       0x00095F00    _ZTSSt9money_getIcSt19istreambuf_iteratorIcSt11char_traitsIcEEE
3246       0x00095F40    _ZTSSt9money_getIwSt19istreambuf_iteratorIwSt11char_traitsIwEEE
3247       0x00095F80    _ZTSSt9money_putIcSt19ostreambuf_iteratorIcSt11char_traitsIcEEE
3248       0x00095FC0    _ZTSSt9money_putIwSt19ostreambuf_iteratorIwSt11char_traitsIwEEE
3249       0x00096000    _ZTSSt9strstream
3250       0x00096010    _ZTSSt9time_base
3251       0x00096020    _ZTSSt9type_info
3252       0x00096030    _ZTSa
3253       0x00096034    _ZTSb
3254       0x00096038    _ZTSc
3255       0x0009603C    _ZTSd
3256       0x00096040    _ZTSe
3257       0x00096044    _ZTSf
3258       0x00096048    _ZTSh
3259       0x0009604C    _ZTSi
3260       0x00096050    _ZTSj
3261       0x00096054    _ZTSl
3262       0x00096058    _ZTSm
3263       0x0009605C    _ZTSs
3264       0x00096060    _ZTSt
3265       0x00096064    _ZTSv
3266       0x00096068    _ZTSw
3267       0x0009606C    _ZTSx
3268       0x00096070    _ZTSy
3269       0x00096078    _ZTTSd
3270       0x00096098    _ZTTSi
3271       0x000960A0    _ZTTSo
3272       0x000960A8    _ZTTSt10istrstream
3273       0x000960B8    _ZTTSt10ostrstream
3274       0x000960E0    _ZTTSt13basic_fstreamIcSt11char_traitsIcEE
3275       0x00096120    _ZTTSt13basic_fstreamIwSt11char_traitsIwEE
3276       0x00096160    _ZTTSt13basic_istreamIwSt11char_traitsIwEE
3277       0x00096168    _ZTTSt13basic_ostreamIwSt11char_traitsIwEE
3278       0x00096170    _ZTTSt14basic_ifstreamIcSt11char_traitsIcEE
3279       0x00096180    _ZTTSt14basic_ifstreamIwSt11char_traitsIwEE
3280       0x00096190    _ZTTSt14basic_iostreamIwSt11char_traitsIwEE
3281       0x000961B0    _ZTTSt14basic_ofstreamIcSt11char_traitsIcEE
3282       0x000961C0    _ZTTSt14basic_ofstreamIwSt11char_traitsIwEE
3283       0x000961E0    _ZTTSt18basic_stringstreamIcSt11char_traitsIcESaIcEE
3284       0x00096220    _ZTTSt18basic_stringstreamIwSt11char_traitsIwESaIwEE
3285       0x00096260    _ZTTSt19basic_istringstreamIcSt11char_traitsIcESaIcEE
3286       0x00096270    _ZTTSt19basic_istringstreamIwSt11char_traitsIwESaIwEE
3287       0x00096280    _ZTTSt19basic_ostringstreamIcSt11char_traitsIcESaIcEE
3288       0x00096290    _ZTTSt19basic_ostringstreamIwSt11char_traitsIwESaIwEE
3289       0x000962A0    _ZTTSt9strstream
3290       0x00096300    _ZTVN10__cxxabiv116__enum_type_infoE
3291       0x00096320    _ZTVN10__cxxabiv117__array_type_infoE
3292       0x00096340    _ZTVN10__cxxabiv117__class_type_infoE
3293       0x00096380    _ZTVN10__cxxabiv117__pbase_type_infoE
3294       0x000963E0    _ZTVN10__cxxabiv119__pointer_type_infoE
3295       0x00096420    _ZTVN10__cxxabiv120__function_type_infoE
3296       0x00096440    _ZTVN10__cxxabiv120__si_class_type_infoE
3297       0x00096480    _ZTVN10__cxxabiv121__vmi_class_type_infoE
3298       0x000964C0    _ZTVN10__cxxabiv123__fundamental_type_infoE
3299       0x000964E0    _ZTVN10__cxxabiv129__pointer_to_member_type_infoE
3300       0x00096660    _ZTVN9__gnu_cxx18stdio_sync_filebufIcSt11char_traitsIcEEE
3301       0x000966A0    _ZTVN9__gnu_cxx18stdio_sync_filebufIwSt11char_traitsIwEEE
3302       0x00096728    _ZTVNSt6locale5facetE
3303       0x00096738    _ZTVNSt8ios_base7failureE
3304       0x00096760    _ZTVSd
3305       0x000967A0    _ZTVSi
3306       0x000967E0    _ZTVSo
3307       0x00096820    _ZTVSt10bad_typeid
3308       0x00096840    _ZTVSt10istrstream
3309       0x00096880    _ZTVSt10moneypunctIcLb0EE
3310       0x000968C0    _ZTVSt10moneypunctIcLb1EE
3311       0x00096900    _ZTVSt10moneypunctIwLb0EE
3312       0x00096940    _ZTVSt10moneypunctIwLb1EE
3313       0x00096980    _ZTVSt10ostrstream
3314       0x000969C0    _ZTVSt11__timepunctIcE
3315       0x000969D0    _ZTVSt11__timepunctIwE
3316       0x000969E0    _ZTVSt11logic_error
3317       0x000969F8    _ZTVSt11range_error
3318       0x00096A10    _ZTVSt11regex_error
3319       0x00096A28    _ZTVSt12bad_weak_ptr
3320       0x00096A40    _ZTVSt12ctype_bynameIcE
3321       0x00096A80    _ZTVSt12ctype_bynameIwE
3322       0x00096AC0    _ZTVSt12domain_error
3323       0x00096AD8    _ZTVSt12future_error
3324       0x00096AF0    _ZTVSt12length_error
3325       0x00096B08    _ZTVSt12out_of_range
3326       0x00096B20    _ZTVSt12strstreambuf
3327       0x00096B60    _ZTVSt12system_error
3328       0x00096B78    _ZTVSt13bad_exception
3329       0x00096BA0    _ZTVSt13basic_filebufIcSt11char_traitsIcEE
3330       0x00096BE0    _ZTVSt13basic_filebufIwSt11char_traitsIwEE
3331       0x00096C20    _ZTVSt13basic_fstreamIcSt11char_traitsIcEE
3332       0x00096C60    _ZTVSt13basic_fstreamIwSt11char_traitsIwEE
3333       0x00096CA0    _ZTVSt13basic_istreamIwSt11char_traitsIwEE
3334       0x00096CE0    _ZTVSt13basic_ostreamIwSt11char_traitsIwEE
3335       0x00096D20    _ZTVSt13runtime_error
3336       0x00096D40    _ZTVSt14basic_ifstreamIcSt11char_traitsIcEE
3337       0x00096D80    _ZTVSt14basic_ifstreamIwSt11char_traitsIwEE
3338       0x00096DC0    _ZTVSt14basic_iostreamIwSt11char_traitsIwEE
3339       0x00096E00    _ZTVSt14basic_ofstreamIcSt11char_traitsIcEE
3340       0x00096E40    _ZTVSt14basic_ofstreamIwSt11char_traitsIwEE
3341       0x00096E80    _ZTVSt14codecvt_bynameIcciE
3342       0x00096EC0    _ZTVSt14codecvt_bynameIwciE
3343       0x00096F00    _ZTVSt14collate_bynameIcE
3344       0x00096F20    _ZTVSt14collate_bynameIwE
3345       0x00096F40    _ZTVSt14error_category
3346       0x00096F80    _ZTVSt14overflow_error
3347       0x00096FA0    _ZTVSt15basic_streambufIcSt11char_traitsIcEE
3348       0x00096FE0    _ZTVSt15basic_streambufIwSt11char_traitsIwEE
3349       0x00097020    _ZTVSt15basic_stringbufIcSt11char_traitsIcESaIcEE
3350       0x00097060    _ZTVSt15basic_stringbufIwSt11char_traitsIwESaIwEE
3351       0x000970A0    _ZTVSt15messages_bynameIcE
3352       0x000970C0    _ZTVSt15messages_bynameIwE
3353       0x000970E0    _ZTVSt15numpunct_bynameIcE
3354       0x00097120    _ZTVSt15numpunct_bynameIwE
3355       0x00097160    _ZTVSt15time_get_bynameIcSt19istreambuf_iteratorIcSt11char_traitsIcEEE
3356       0x000971A0    _ZTVSt15time_get_bynameIwSt19istreambuf_iteratorIwSt11char_traitsIwEEE
3357       0x000971E0    _ZTVSt15time_put_bynameIcSt19ostreambuf_iteratorIcSt11char_traitsIcEEE
3358       0x000971F8    _ZTVSt15time_put_bynameIwSt19ostreambuf_iteratorIwSt11char_traitsIwEEE
3359       0x00097210    _ZTVSt15underflow_error
3360       0x00097248    _ZTVSt16invalid_argument
3361       0x00097260    _ZTVSt16nested_exception
3362       0x00097290    _ZTVSt17bad_function_call
3363       0x000972C0    _ZTVSt17moneypunct_bynameIcLb0EE
3364       0x00097300    _ZTVSt17moneypunct_bynameIcLb1EE
3365       0x00097340    _ZTVSt17moneypunct_bynameIwLb0EE
3366       0x00097380    _ZTVSt17moneypunct_bynameIwLb1EE
3367       0x00097400    _ZTVSt18basic_stringstreamIcSt11char_traitsIcESaIcEE
3368       0x00097440    _ZTVSt18basic_stringstreamIwSt11char_traitsIwESaIwEE
3369       0x00097480    _ZTVSt19basic_istringstreamIcSt11char_traitsIcESaIcEE
3370       0x000974C0    _ZTVSt19basic_istringstreamIwSt11char_traitsIwESaIwEE
3371       0x00097500    _ZTVSt19basic_ostringstreamIcSt11char_traitsIcESaIcEE
3372       0x00097540    _ZTVSt19basic_ostringstreamIwSt11char_traitsIwESaIwEE
3373       0x00097580    _ZTVSt21__ctype_abstract_baseIcE
3374       0x000975C0    _ZTVSt21__ctype_abstract_baseIwE
3375       0x00097680    _ZTVSt5ctypeIcE
3376       0x000976C0    _ZTVSt5ctypeIwE
3377       0x00097700    _ZTVSt7codecvtIcciE
3378       0x00097740    _ZTVSt7codecvtIwciE
3379       0x00097780    _ZTVSt7collateIcE
3380       0x000977A0    _ZTVSt7collateIwE
3381       0x000977C0    _ZTVSt7num_getIcSt19istreambuf_iteratorIcSt11char_traitsIcEEE
3382       0x00097800    _ZTVSt7num_getIwSt19istreambuf_iteratorIwSt11char_traitsIwEEE
3383       0x00097840    _ZTVSt7num_putIcSt19ostreambuf_iteratorIcSt11char_traitsIcEEE
3384       0x00097880    _ZTVSt7num_putIwSt19ostreambuf_iteratorIwSt11char_traitsIwEEE
3385       0x000978C0    _ZTVSt8bad_cast
3386       0x000978D8    _ZTVSt8ios_base
3387       0x000978E8    _ZTVSt8messagesIcE
3388       0x00097908    _ZTVSt8messagesIwE
3389       0x00097940    _ZTVSt8numpunctIcE
3390       0x00097980    _ZTVSt8numpunctIwE
3391       0x000979C0    _ZTVSt8time_getIcSt19istreambuf_iteratorIcSt11char_traitsIcEEE
3392       0x00097A00    _ZTVSt8time_getIwSt19istreambuf_iteratorIwSt11char_traitsIwEEE
3393       0x00097A40    _ZTVSt8time_putIcSt19ostreambuf_iteratorIcSt11char_traitsIcEEE
3394       0x00097A58    _ZTVSt8time_putIwSt19ostreambuf_iteratorIwSt11char_traitsIwEEE
3395       0x00097A70    _ZTVSt9bad_alloc
3396       0x00097A88    _ZTVSt9basic_iosIcSt11char_traitsIcEE
3397       0x00097A98    _ZTVSt9basic_iosIwSt11char_traitsIwEE
3398       0x00097AA8    _ZTVSt9exception
3399       0x00097AC0    _ZTVSt9money_getIcSt19istreambuf_iteratorIcSt11char_traitsIcEEE
3400       0x00097AD8    _ZTVSt9money_getIwSt19istreambuf_iteratorIwSt11char_traitsIwEEE
3401       0x00097AF0    _ZTVSt9money_putIcSt19ostreambuf_iteratorIcSt11char_traitsIcEEE
3402       0x00097B08    _ZTVSt9money_putIwSt19ostreambuf_iteratorIwSt11char_traitsIwEEE
3403       0x00097B20    _ZTVSt9strstream
3404       0x00097B60    _ZTVSt9type_info
3405       0x00081120    _ZThn8_NSdD0Ev
3406       0x00081130    _ZThn8_NSdD1Ev
3407       0x00081140    _ZThn8_NSt13basic_fstreamIcSt11char_traitsIcEED0Ev
3408       0x00081150    _ZThn8_NSt13basic_fstreamIcSt11char_traitsIcEED1Ev
3409       0x00081160    _ZThn8_NSt13basic_fstreamIwSt11char_traitsIwEED0Ev
3410       0x00081170    _ZThn8_NSt13basic_fstreamIwSt11char_traitsIwEED1Ev
3411       0x00081180    _ZThn8_NSt14basic_iostreamIwSt11char_traitsIwEED0Ev
3412       0x00081190    _ZThn8_NSt14basic_iostreamIwSt11char_traitsIwEED1Ev
3413       0x000811A0    _ZThn8_NSt18basic_stringstreamIcSt11char_traitsIcESaIcEED0Ev
3414       0x000811B0    _ZThn8_NSt18basic_stringstreamIcSt11char_traitsIcESaIcEED1Ev
3415       0x000811C0    _ZThn8_NSt18basic_stringstreamIwSt11char_traitsIwESaIwEED0Ev
3416       0x000811D0    _ZThn8_NSt18basic_stringstreamIwSt11char_traitsIwESaIwEED1Ev
3417       0x000811E0    _ZThn8_NSt9strstreamD0Ev
3418       0x000811F0    _ZThn8_NSt9strstreamD1Ev
3419       0x00081200    _ZTv0_n12_NSdD0Ev
3420       0x00081220    _ZTv0_n12_NSdD1Ev
3421       0x00081240    _ZTv0_n12_NSiD0Ev
3422       0x00081260    _ZTv0_n12_NSiD1Ev
3423       0x00081280    _ZTv0_n12_NSoD0Ev
3424       0x000812A0    _ZTv0_n12_NSoD1Ev
3425       0x000812C0    _ZTv0_n12_NSt10istrstreamD0Ev
3426       0x000812E0    _ZTv0_n12_NSt10istrstreamD1Ev
3427       0x00081300    _ZTv0_n12_NSt10ostrstreamD0Ev
3428       0x00081320    _ZTv0_n12_NSt10ostrstreamD1Ev
3429       0x00081340    _ZTv0_n12_NSt13basic_fstreamIcSt11char_traitsIcEED0Ev
3430       0x00081360    _ZTv0_n12_NSt13basic_fstreamIcSt11char_traitsIcEED1Ev
3431       0x00081380    _ZTv0_n12_NSt13basic_fstreamIwSt11char_traitsIwEED0Ev
3432       0x000813A0    _ZTv0_n12_NSt13basic_fstreamIwSt11char_traitsIwEED1Ev
3433       0x000813C0    _ZTv0_n12_NSt13basic_istreamIwSt11char_traitsIwEED0Ev
3434       0x000813E0    _ZTv0_n12_NSt13basic_istreamIwSt11char_traitsIwEED1Ev
3435       0x00081400    _ZTv0_n12_NSt13basic_ostreamIwSt11char_traitsIwEED0Ev
3436       0x00081420    _ZTv0_n12_NSt13basic_ostreamIwSt11char_traitsIwEED1Ev
3437       0x00081440    _ZTv0_n12_NSt14basic_ifstreamIcSt11char_traitsIcEED0Ev
3438       0x00081460    _ZTv0_n12_NSt14basic_ifstreamIcSt11char_traitsIcEED1Ev
3439       0x00081480    _ZTv0_n12_NSt14basic_ifstreamIwSt11char_traitsIwEED0Ev
3440       0x000814A0    _ZTv0_n12_NSt14basic_ifstreamIwSt11char_traitsIwEED1Ev
3441       0x000814C0    _ZTv0_n12_NSt14basic_iostreamIwSt11char_traitsIwEED0Ev
3442       0x000814E0    _ZTv0_n12_NSt14basic_iostreamIwSt11char_traitsIwEED1Ev
3443       0x00081500    _ZTv0_n12_NSt14basic_ofstreamIcSt11char_traitsIcEED0Ev
3444       0x00081520    _ZTv0_n12_NSt14basic_ofstreamIcSt11char_traitsIcEED1Ev
3445       0x00081540    _ZTv0_n12_NSt14basic_ofstreamIwSt11char_traitsIwEED0Ev
3446       0x00081560    _ZTv0_n12_NSt14basic_ofstreamIwSt11char_traitsIwEED1Ev
3447       0x00081580    _ZTv0_n12_NSt18basic_stringstreamIcSt11char_traitsIcESaIcEED0Ev
3448       0x000815A0    _ZTv0_n12_NSt18basic_stringstreamIcSt11char_traitsIcESaIcEED1Ev
3449       0x000815C0    _ZTv0_n12_NSt18basic_stringstreamIwSt11char_traitsIwESaIwEED0Ev
3450       0x000815E0    _ZTv0_n12_NSt18basic_stringstreamIwSt11char_traitsIwESaIwEED1Ev
3451       0x00081600    _ZTv0_n12_NSt19basic_istringstreamIcSt11char_traitsIcESaIcEED0Ev
3452       0x00081620    _ZTv0_n12_NSt19basic_istringstreamIcSt11char_traitsIcESaIcEED1Ev
3453       0x00081640    _ZTv0_n12_NSt19basic_istringstreamIwSt11char_traitsIwESaIwEED0Ev
3454       0x00081660    _ZTv0_n12_NSt19basic_istringstreamIwSt11char_traitsIwESaIwEED1Ev
3455       0x00081680    _ZTv0_n12_NSt19basic_ostringstreamIcSt11char_traitsIcESaIcEED0Ev
3456       0x000816A0    _ZTv0_n12_NSt19basic_ostringstreamIcSt11char_traitsIcESaIcEED1Ev
3457       0x000816C0    _ZTv0_n12_NSt19basic_ostringstreamIwSt11char_traitsIwESaIwEED0Ev
3458       0x000816E0    _ZTv0_n12_NSt19basic_ostringstreamIwSt11char_traitsIwESaIwEED1Ev
3459       0x00081700    _ZTv0_n12_NSt9strstreamD0Ev
3460       0x00081720    _ZTv0_n12_NSt9strstreamD1Ev
3461       0x00081740    _ZdaPv
3462       0x00081760    _ZdaPvRKSt9nothrow_t
3463       0x00081780    _ZdlPv
3464       0x000817A0    _ZdlPvRKSt9nothrow_t
3465       0x000817C0    _Znaj
3466       0x00081840    _ZnajRKSt9nothrow_t
3467       0x00081860    _Znwj
3468       0x00081930    _ZnwjRKSt9nothrow_t
3469       0x00081A20    __atomic_flag_for_address
3470       0x00081A60    __atomic_flag_wait_explicit
3471       0x00081C40    __cxa_allocate_exception
3472       0x00081E10    __cxa_bad_cast
3473       0x00081E40    __cxa_bad_typeid
3474       0x00081E70    __cxa_begin_catch
3475       0x00081F50    __cxa_call_unexpected
3476       0x000820B0    __cxa_current_exception_type
3477       0x00007B60    __cxa_demangle
3478       0x000820E0    __cxa_end_catch
3479       0x000822D0    __cxa_free_exception
3480       0x00082420    __cxa_get_exception_ptr
3481       0x00082430    __cxa_get_globals
3482       0x00082500    __cxa_get_globals_fast
3483       0x000825A0    __cxa_guard_abort
3484       0x00082630    __cxa_guard_acquire
3485       0x000827D0    __cxa_guard_release
3486       0x00082860    __cxa_pure_virtual
3487       0x00082890    __cxa_rethrow
3488       0x000828F0    __cxa_throw
3489       0x00082950    __cxa_vec_cctor
3490       0x00082A60    __cxa_vec_cleanup
3491       0x00082AF0    __cxa_vec_ctor
3492       0x00082BF0    __cxa_vec_delete
3493       0x00082C20    __cxa_vec_delete2
3494       0x00082D40    __cxa_vec_delete3
3495       0x00082E80    __cxa_vec_dtor
3496       0x00082F80    __cxa_vec_new
3497       0x00082FC0    __cxa_vec_new2
3498       0x00083100    __cxa_vec_new3
3499       0x00083240    __dynamic_cast
3500       0x00083350    __gxx_personality_sj0
3501       0x00083AF0    atomic_flag_clear_explicit
3502       0x00083B00    atomic_flag_test_and_set_explicit

----------Imported symbols----------

[IMAGE_IMPORT_DESCRIPTOR]
0x27A00    0x0   OriginalFirstThunk:            0x0       
0x27A00    0x0   Characteristics:               0x0       
0x27A04    0x4   TimeDateStamp:                 0x0        [Thu Jan  1 00:00:00 1970 UTC]
0x27A08    0x8   ForwarderChain:                0x0       
0x27A0C    0xC   Name:                          0xD6078   
0x27A10    0x10  FirstThunk:                    0xD6050   

KERNEL32.DLL.LoadLibraryA Hint[0]
KERNEL32.DLL.GetProcAddress Hint[0]
KERNEL32.DLL.VirtualProtect Hint[0]
KERNEL32.DLL.VirtualAlloc Hint[0]
KERNEL32.DLL.VirtualFree Hint[0]

[IMAGE_IMPORT_DESCRIPTOR]
0x27A14    0x0   OriginalFirstThunk:            0x0       
0x27A14    0x0   Characteristics:               0x0       
0x27A18    0x4   TimeDateStamp:                 0x0        [Thu Jan  1 00:00:00 1970 UTC]
0x27A1C    0x8   ForwarderChain:                0x0       
0x27A20    0xC   Name:                          0xD6085   
0x27A24    0x10  FirstThunk:                    0xD6068   

libgcc_s_sjlj-1.dll.__udivdi3 Hint[0]

[IMAGE_IMPORT_DESCRIPTOR]
0x27A28    0x0   OriginalFirstThunk:            0x0       
0x27A28    0x0   Characteristics:               0x0       
0x27A2C    0x4   TimeDateStamp:                 0x0        [Thu Jan  1 00:00:00 1970 UTC]
0x27A30    0x8   ForwarderChain:                0x0       
0x27A34    0xC   Name:                          0xD6099   
0x27A38    0x10  FirstThunk:                    0xD6070   

msvcrt.dll._iob Hint[0]

----------TLS----------

[IMAGE_TLS_DIRECTORY]
0x278C0    0x0   StartAddressOfRawData:         0x6FD156D8
0x278C4    0x4   EndAddressOfRawData:           0x6FD156DB
0x278C8    0x8   AddressOfIndex:                0x6FCD8010
0x278CC    0xC   AddressOfCallBacks:            0x6FD156DB
0x278D0    0x10  SizeOfZeroFill:                0x0       
0x278D4    0x14  Characteristics:               0x0       

----------Base relocations----------

[IMAGE_BASE_RELOCATION]
0x55404    0x0   VirtualAddress:                0xD5000   
0x55408    0x4   SizeOfBlock:                   0x18      
    000D54ADh HIGHLOW
    000D56A5h HIGHLOW
    000D56C0h HIGHLOW
    000D56C4h HIGHLOW
    000D56C8h HIGHLOW
    000D56CCh HIGHLOW
    000D56DBh HIGHLOW
    000D5000h ABSOLUTE

